GAS LISTING C:\Users\Duckb\AppData\Local\Temp\ccEgig1L.s 			page 1


   1              		.file	"lcd.c"
   2              		.option nopic
   3              		.attribute arch, "rv32i2p0_m2p0_a2p0_c2p0"
   4              		.attribute unaligned_access, 0
   5              		.attribute stack_align, 16
   6              		.text
   7              	.Ltext0:
   8              		.cfi_sections	.debug_frame
   9              		.globl	__floatundidf
  10              		.globl	__floatunsidf
  11              		.globl	__divdf3
  12              		.globl	__muldf3
  13              		.globl	__ltdf2
  14              		.section	.text.lcd_delay_1ms,"ax",@progbits
  15              		.align	1
  16              		.globl	lcd_delay_1ms
  18              	lcd_delay_1ms:
  19              	.LFB2:
  20              		.file 1 "lcd.c"
   1:lcd.c         **** /*
   2:lcd.c         ****   Longan Nano LCD driver
   3:lcd.c         **** */
   4:lcd.c         **** 
   5:lcd.c         **** #include "lcd.h"
   6:lcd.c         **** #include "oledfont.h"
   7:lcd.c         **** 
   8:lcd.c         **** u16 BACK_COLOR;	// Background color
   9:lcd.c         **** 
  10:lcd.c         **** typedef struct{
  11:lcd.c         **** 	u8 configured;
  12:lcd.c         **** 	u8 inverted;
  13:lcd.c         **** 	u8 offset_x;
  14:lcd.c         **** 	u8 offset_y;
  15:lcd.c         **** }lcd_config_t;
  16:lcd.c         **** 
  17:lcd.c         **** lcd_config_t lcd_conf = {0};
  18:lcd.c         **** 
  19:lcd.c         **** 
  20:lcd.c         **** void lcd_delay_1ms(uint32_t count)
  21:lcd.c         **** {
  21              		.loc 1 21 1
  22              		.cfi_startproc
  23              	.LVL0:
  22:lcd.c         **** 	uint64_t start_mtime, delta_mtime;
  24              		.loc 1 22 2
  23:lcd.c         **** 
  24:lcd.c         **** 	// Don't start measuring until we see an mtime tick
  25:lcd.c         **** 	uint64_t tmp = get_timer_value();
  25              		.loc 1 25 2
  21:lcd.c         **** 	uint64_t start_mtime, delta_mtime;
  26              		.loc 1 21 1 is_stmt 0
  27 0000 7971     		addi	sp,sp,-48
  28              	.LCFI0:
  29              		.cfi_def_cfa_offset 48
  30 0002 4AD0     		sw	s2,32(sp)
  31 0004 4ECE     		sw	s3,28(sp)
  32 0006 5AC8     		sw	s6,16(sp)
GAS LISTING C:\Users\Duckb\AppData\Local\Temp\ccEgig1L.s 			page 2


  33 0008 06D6     		sw	ra,44(sp)
  34 000a 22D4     		sw	s0,40(sp)
  35 000c 26D2     		sw	s1,36(sp)
  36 000e 52CC     		sw	s4,24(sp)
  37 0010 56CA     		sw	s5,20(sp)
  38 0012 5EC6     		sw	s7,12(sp)
  39 0014 62C4     		sw	s8,8(sp)
  40 0016 66C2     		sw	s9,4(sp)
  41              		.cfi_offset 18, -16
  42              		.cfi_offset 19, -20
  43              		.cfi_offset 22, -32
  44              		.cfi_offset 1, -4
  45              		.cfi_offset 8, -8
  46              		.cfi_offset 9, -12
  47              		.cfi_offset 20, -24
  48              		.cfi_offset 21, -28
  49              		.cfi_offset 23, -36
  50              		.cfi_offset 24, -40
  51              		.cfi_offset 25, -44
  21:lcd.c         **** 	uint64_t start_mtime, delta_mtime;
  52              		.loc 1 21 1
  53 0018 2A8B     		mv	s6,a0
  54              		.loc 1 25 17
  55 001a 97000000 		call	get_timer_value
  55      E7800000 
  56              	.LVL1:
  57 0022 AA89     		mv	s3,a0
  58 0024 2E89     		mv	s2,a1
  59              	.LVL2:
  60              	.L2:
  26:lcd.c         **** 	do {
  61              		.loc 1 26 2 is_stmt 1 discriminator 1
  27:lcd.c         **** 	start_mtime = get_timer_value();
  62              		.loc 1 27 2 discriminator 1
  63              		.loc 1 27 16 is_stmt 0 discriminator 1
  64 0026 97000000 		call	get_timer_value
  64      E7800000 
  65              	.LVL3:
  66 002e AA84     		mv	s1,a0
  67 0030 2E84     		mv	s0,a1
  68              	.LVL4:
  28:lcd.c         **** 	} while (start_mtime == tmp);
  69              		.loc 1 28 2 discriminator 1
  70 0032 6394A900 		bne	s3,a0,.L3
  71 0036 E308B9FE 		beq	s2,a1,.L2
  72              	.L3:
  29:lcd.c         **** 
  30:lcd.c         **** 	do {
  31:lcd.c         **** 	delta_mtime = get_timer_value() - start_mtime;
  32:lcd.c         **** 	}while(delta_mtime <(SystemCoreClock/4000.0 *count ));
  73              		.loc 1 32 38 discriminator 1
  74 003a B7070000 		lui	a5,%hi(.LC0)
  75 003e 03A90700 		lw	s2,%lo(.LC0)(a5)
  76              	.LVL5:
  77 0042 83A94700 		lw	s3,%lo(.LC0+4)(a5)
  78 0046 B70B0000 		lui	s7,%hi(SystemCoreClock)
  79              	.L4:
GAS LISTING C:\Users\Duckb\AppData\Local\Temp\ccEgig1L.s 			page 3


  30:lcd.c         **** 	delta_mtime = get_timer_value() - start_mtime;
  80              		.loc 1 30 2 is_stmt 1 discriminator 1
  31:lcd.c         **** 	}while(delta_mtime <(SystemCoreClock/4000.0 *count ));
  81              		.loc 1 31 2 discriminator 1
  31:lcd.c         **** 	}while(delta_mtime <(SystemCoreClock/4000.0 *count ));
  82              		.loc 1 31 16 is_stmt 0 discriminator 1
  83 004a 97000000 		call	get_timer_value
  83      E7800000 
  84              	.LVL6:
  85 0052 AA87     		mv	a5,a0
  31:lcd.c         **** 	}while(delta_mtime <(SystemCoreClock/4000.0 *count ));
  86              		.loc 1 31 14 discriminator 1
  87 0054 058D     		sub	a0,a0,s1
  88              	.LVL7:
  89 0056 B3B7A700 		sgtu	a5,a0,a5
  90              	.LVL8:
  91 005a 818D     		sub	a1,a1,s0
  92              		.loc 1 32 21 discriminator 1
  93 005c 9D8D     		sub	a1,a1,a5
  94 005e 97000000 		call	__floatundidf
  94      E7800000 
  95              	.LVL9:
  96 0066 2A8A     		mv	s4,a0
  97              		.loc 1 32 38 discriminator 1
  98 0068 03A50B00 		lw	a0,%lo(SystemCoreClock)(s7)
  99              		.loc 1 32 21 discriminator 1
 100 006c AE8A     		mv	s5,a1
 101              		.loc 1 32 38 discriminator 1
 102 006e 97000000 		call	__floatunsidf
 102      E7800000 
 103              	.LVL10:
 104 0076 4A86     		mv	a2,s2
 105 0078 CE86     		mv	a3,s3
 106 007a 97000000 		call	__divdf3
 106      E7800000 
 107              	.LVL11:
 108 0082 2A8C     		mv	s8,a0
 109              		.loc 1 32 46 discriminator 1
 110 0084 5A85     		mv	a0,s6
 111              		.loc 1 32 38 discriminator 1
 112 0086 AE8C     		mv	s9,a1
 113              		.loc 1 32 46 discriminator 1
 114 0088 97000000 		call	__floatunsidf
 114      E7800000 
 115              	.LVL12:
 116 0090 2A86     		mv	a2,a0
 117 0092 AE86     		mv	a3,a1
 118 0094 6285     		mv	a0,s8
 119 0096 E685     		mv	a1,s9
 120 0098 97000000 		call	__muldf3
 120      E7800000 
 121              	.LVL13:
 122              		.loc 1 32 2 discriminator 1
 123 00a0 2A86     		mv	a2,a0
 124 00a2 AE86     		mv	a3,a1
 125 00a4 5285     		mv	a0,s4
 126 00a6 D685     		mv	a1,s5
GAS LISTING C:\Users\Duckb\AppData\Local\Temp\ccEgig1L.s 			page 4


 127 00a8 97000000 		call	__ltdf2
 127      E7800000 
 128              	.LVL14:
 129 00b0 E34D05F8 		blt	a0,zero,.L4
  33:lcd.c         **** }
 130              		.loc 1 33 1
 131 00b4 B250     		lw	ra,44(sp)
 132              		.cfi_restore 1
 133 00b6 2254     		lw	s0,40(sp)
 134              		.cfi_restore 8
 135              	.LVL15:
 136 00b8 9254     		lw	s1,36(sp)
 137              		.cfi_restore 9
 138 00ba 0259     		lw	s2,32(sp)
 139              		.cfi_restore 18
 140 00bc F249     		lw	s3,28(sp)
 141              		.cfi_restore 19
 142 00be 624A     		lw	s4,24(sp)
 143              		.cfi_restore 20
 144 00c0 D24A     		lw	s5,20(sp)
 145              		.cfi_restore 21
 146 00c2 424B     		lw	s6,16(sp)
 147              		.cfi_restore 22
 148              	.LVL16:
 149 00c4 B24B     		lw	s7,12(sp)
 150              		.cfi_restore 23
 151 00c6 224C     		lw	s8,8(sp)
 152              		.cfi_restore 24
 153 00c8 924C     		lw	s9,4(sp)
 154              		.cfi_restore 25
 155 00ca 4561     		addi	sp,sp,48
 156              	.LCFI1:
 157              		.cfi_def_cfa_offset 0
 158 00cc 8280     		jr	ra
 159              		.cfi_endproc
 160              	.LFE2:
 162              		.section	.text.LCD_WR_Queue,"ax",@progbits
 163              		.align	1
 164              		.globl	LCD_WR_Queue
 166              	LCD_WR_Queue:
 167              	.LFB4:
  34:lcd.c         **** 
  35:lcd.c         **** 
  36:lcd.c         **** 
  37:lcd.c         **** int r=0, w=0, queue[256]={0};                       // 256 Byte wr queue
  38:lcd.c         **** 
  39:lcd.c         **** void LCD_Wait_On_Queue(){
  40:lcd.c         **** 	while(r != w) LCD_WR_Queue();					//Blocks while emptying the queue
  41:lcd.c         **** }
  42:lcd.c         **** 
  43:lcd.c         **** void LCD_WR_Queue(){
 168              		.loc 1 43 20 is_stmt 1
 169              		.cfi_startproc
  44:lcd.c         ****     if (r!=w) {                                     // Buffer empty?
 170              		.loc 1 44 5
  43:lcd.c         ****     if (r!=w) {                                     // Buffer empty?
 171              		.loc 1 43 20 is_stmt 0
GAS LISTING C:\Users\Duckb\AppData\Local\Temp\ccEgig1L.s 			page 5


 172 0000 4111     		addi	sp,sp,-16
 173              	.LCFI2:
 174              		.cfi_def_cfa_offset 16
 175 0002 22C4     		sw	s0,8(sp)
 176              		.loc 1 44 8
 177 0004 B7070000 		lui	a5,%hi(.LANCHOR1)
 178              		.cfi_offset 8, -8
 179              		.loc 1 44 10
 180 0008 37040000 		lui	s0,%hi(.LANCHOR0)
 181              		.loc 1 44 8
 182 000c 03270400 		lw	a4,%lo(.LANCHOR0)(s0)
 183 0010 83A70700 		lw	a5,%lo(.LANCHOR1)(a5)
  43:lcd.c         ****     if (r!=w) {                                     // Buffer empty?
 184              		.loc 1 43 20
 185 0014 06C6     		sw	ra,12(sp)
 186 0016 26C2     		sw	s1,4(sp)
 187              		.cfi_offset 1, -4
 188              		.cfi_offset 9, -12
 189              		.loc 1 44 8
 190 0018 630AF708 		beq	a4,a5,.L8
  45:lcd.c         ****        if (spi_i2s_flag_get(SPI1,SPI_FLAG_TBE)) {   // ...no! Device redy?
 191              		.loc 1 45 8 is_stmt 1
 192              		.loc 1 45 12 is_stmt 0
 193 001c 37450040 		li	a0,1073758208
 194 0020 8945     		li	a1,2
 195 0022 13050580 		addi	a0,a0,-2048
 196 0026 97000000 		call	spi_i2s_flag_get
 196      E7800000 
 197              	.LVL17:
 198              		.loc 1 45 11
 199 002e 2DC5     		beq	a0,zero,.L7
 200              	.LBB168:
 201              	.LBB169:
  46:lcd.c         ****           OLED_CS_Clr();                            // ......Yes! CS (again)
 202              		.loc 1 46 11
 203 0030 8965     		li	a1,8192
 204 0032 37150140 		li	a0,1073811456
 205 0036 97000000 		call	gpio_bit_reset
 205      E7800000 
 206              	.LVL18:
 207 003e 13040400 		addi	s0,s0,%lo(.LANCHOR0)
 208              		.loc 1 46 11 is_stmt 1
  47:lcd.c         ****           (queue[r]>=1<<8) ? OLED_DC_Set() : OLED_DC_Clr(); //    DC
 209              		.loc 1 47 11
 210              		.loc 1 47 17 is_stmt 0
 211 0042 1440     		lw	a3,0(s0)
 212 0044 B7070000 		lui	a5,%hi(.LANCHOR2)
 213 0048 13870700 		addi	a4,a5,%lo(.LANCHOR2)
 214 004c 8A06     		slli	a3,a3,2
 215 004e 3697     		add	a4,a4,a3
 216              		.loc 1 47 44
 217 0050 1443     		lw	a3,0(a4)
 218 0052 1307F00F 		li	a4,255
 219 0056 93840700 		addi	s1,a5,%lo(.LANCHOR2)
 220              		.loc 1 47 30
 221 005a A165     		li	a1,32768
 222 005c 37150140 		li	a0,1073811456
GAS LISTING C:\Users\Duckb\AppData\Local\Temp\ccEgig1L.s 			page 6


 223              		.loc 1 47 44
 224 0060 6351D704 		ble	a3,a4,.L10
 225              		.loc 1 47 30
 226 0064 97000000 		call	gpio_bit_set
 226      E7800000 
 227              	.LVL19:
 228              	.L11:
  48:lcd.c         ****           spi_i2s_data_transmit(SPI1, queue[r++]&0xFF); //        Write!
 229              		.loc 1 48 11 is_stmt 1
 230              		.loc 1 48 46 is_stmt 0
 231 006c 1C40     		lw	a5,0(s0)
 232              		.loc 1 48 11
 233 006e 37450040 		li	a0,1073758208
 234 0072 13050580 		addi	a0,a0,-2048
 235              		.loc 1 48 46
 236 0076 13871700 		addi	a4,a5,1
 237              		.loc 1 48 44
 238 007a 8A07     		slli	a5,a5,2
 239 007c A697     		add	a5,s1,a5
 240              		.loc 1 48 11
 241 007e 83C50700 		lbu	a1,0(a5)
 242              		.loc 1 48 46
 243 0082 18C0     		sw	a4,0(s0)
 244              		.loc 1 48 11
 245 0084 97000000 		call	spi_i2s_data_transmit
 245      E7800000 
 246              	.LVL20:
  49:lcd.c         ****           r%=256;                                   //            Advance.
 247              		.loc 1 49 11 is_stmt 1
 248              		.loc 1 49 12 is_stmt 0
 249 008c 1C40     		lw	a5,0(s0)
 250 008e 13070010 		li	a4,256
 251 0092 B3E7E702 		rem	a5,a5,a4
 252 0096 1CC0     		sw	a5,0(s0)
 253              	.L7:
 254              	.LBE169:
 255              	.LBE168:
  50:lcd.c         ****         }                                           //       (No! Return!)
  51:lcd.c         ****     } else {
  52:lcd.c         ****         OLED_CS_Set();                              // ...yes! CS high, done!
  53:lcd.c         ****     }
  54:lcd.c         **** }
 256              		.loc 1 54 1
 257 0098 B240     		lw	ra,12(sp)
 258              		.cfi_remember_state
 259              		.cfi_restore 1
 260 009a 2244     		lw	s0,8(sp)
 261              		.cfi_restore 8
 262 009c 9244     		lw	s1,4(sp)
 263              		.cfi_restore 9
 264 009e 4101     		addi	sp,sp,16
 265              	.LCFI3:
 266              		.cfi_def_cfa_offset 0
 267 00a0 8280     		jr	ra
 268              	.L10:
 269              	.LCFI4:
 270              		.cfi_restore_state
GAS LISTING C:\Users\Duckb\AppData\Local\Temp\ccEgig1L.s 			page 7


 271              	.LBB171:
 272              	.LBB170:
  47:lcd.c         ****           spi_i2s_data_transmit(SPI1, queue[r++]&0xFF); //        Write!
 273              		.loc 1 47 46
 274 00a2 97000000 		call	gpio_bit_reset
 274      E7800000 
 275              	.LVL21:
 276 00aa C9B7     		j	.L11
 277              	.L8:
 278              	.LBE170:
 279              	.LBE171:
  52:lcd.c         ****     }
 280              		.loc 1 52 9 is_stmt 1
 281              		.loc 1 54 1 is_stmt 0
 282 00ac 2244     		lw	s0,8(sp)
 283              		.cfi_restore 8
 284 00ae B240     		lw	ra,12(sp)
 285              		.cfi_restore 1
 286 00b0 9244     		lw	s1,4(sp)
 287              		.cfi_restore 9
  52:lcd.c         ****     }
 288              		.loc 1 52 9
 289 00b2 8965     		li	a1,8192
 290              		.loc 1 54 1
  52:lcd.c         ****     }
 291              		.loc 1 52 9
 292 00b4 37150140 		li	a0,1073811456
 293              		.loc 1 54 1
 294 00b8 4101     		addi	sp,sp,16
 295              	.LCFI5:
 296              		.cfi_def_cfa_offset 0
  52:lcd.c         ****     }
 297              		.loc 1 52 9
 298 00ba 17030000 		tail	gpio_bit_set
 298      67000300 
 299              	.LVL22:
 300              		.cfi_endproc
 301              	.LFE4:
 303              		.section	.text.LCD_Wait_On_Queue,"ax",@progbits
 304              		.align	1
 305              		.globl	LCD_Wait_On_Queue
 307              	LCD_Wait_On_Queue:
 308              	.LFB3:
  39:lcd.c         **** 	while(r != w) LCD_WR_Queue();					//Blocks while emptying the queue
 309              		.loc 1 39 25 is_stmt 1
 310              		.cfi_startproc
  40:lcd.c         **** }
 311              		.loc 1 40 2
  39:lcd.c         **** 	while(r != w) LCD_WR_Queue();					//Blocks while emptying the queue
 312              		.loc 1 39 25 is_stmt 0
 313 0000 4111     		addi	sp,sp,-16
 314              	.LCFI6:
 315              		.cfi_def_cfa_offset 16
 316 0002 22C4     		sw	s0,8(sp)
 317 0004 26C2     		sw	s1,4(sp)
 318 0006 06C6     		sw	ra,12(sp)
 319              		.cfi_offset 8, -8
GAS LISTING C:\Users\Duckb\AppData\Local\Temp\ccEgig1L.s 			page 8


 320              		.cfi_offset 9, -12
 321              		.cfi_offset 1, -4
  40:lcd.c         **** }
 322              		.loc 1 40 10
 323 0008 B7040000 		lui	s1,%hi(.LANCHOR0)
 324 000c 37040000 		lui	s0,%hi(.LANCHOR1)
 325              	.L17:
  40:lcd.c         **** }
 326              		.loc 1 40 7 discriminator 1
 327 0010 03A70400 		lw	a4,%lo(.LANCHOR0)(s1)
 328 0014 83270400 		lw	a5,%lo(.LANCHOR1)(s0)
 329 0018 6317F700 		bne	a4,a5,.L18
  41:lcd.c         **** 
 330              		.loc 1 41 1
 331 001c B240     		lw	ra,12(sp)
 332              		.cfi_remember_state
 333              		.cfi_restore 1
 334 001e 2244     		lw	s0,8(sp)
 335              		.cfi_restore 8
 336 0020 9244     		lw	s1,4(sp)
 337              		.cfi_restore 9
 338 0022 4101     		addi	sp,sp,16
 339              	.LCFI7:
 340              		.cfi_def_cfa_offset 0
 341 0024 8280     		jr	ra
 342              	.L18:
 343              	.LCFI8:
 344              		.cfi_restore_state
  40:lcd.c         **** }
 345              		.loc 1 40 16 is_stmt 1 discriminator 2
 346 0026 97000000 		call	LCD_WR_Queue
 346      E7800000 
 347              	.LVL23:
 348 002e CDB7     		j	.L17
 349              		.cfi_endproc
 350              	.LFE3:
 352              		.section	.text.LCD_Write_Bus,"ax",@progbits
 353              		.align	1
 354              		.globl	LCD_Write_Bus
 356              	LCD_Write_Bus:
 357              	.LFB5:
  55:lcd.c         **** 
  56:lcd.c         **** void LCD_Write_Bus(int dat) {
 358              		.loc 1 56 29
 359              		.cfi_startproc
 360              	.LVL24:
  57:lcd.c         ****    while (((w+1)%256)==r) LCD_WR_Queue(); //If buffer full then spin...
 361              		.loc 1 57 4
  56:lcd.c         ****    while (((w+1)%256)==r) LCD_WR_Queue(); //If buffer full then spin...
 362              		.loc 1 56 29 is_stmt 0
 363 0000 0111     		addi	sp,sp,-32
 364              	.LCFI9:
 365              		.cfi_def_cfa_offset 32
 366 0002 22CC     		sw	s0,24(sp)
 367 0004 26CA     		sw	s1,20(sp)
 368 0006 4AC8     		sw	s2,16(sp)
 369 0008 06CE     		sw	ra,28(sp)
GAS LISTING C:\Users\Duckb\AppData\Local\Temp\ccEgig1L.s 			page 9


 370              		.cfi_offset 8, -8
 371              		.cfi_offset 9, -12
 372              		.cfi_offset 18, -16
 373              		.cfi_offset 1, -4
 374              		.loc 1 57 14
 375 000a 37090000 		lui	s2,%hi(.LANCHOR1)
 376              		.loc 1 57 17
 377 000e 93040010 		li	s1,256
 378              		.loc 1 57 22
 379 0012 37040000 		lui	s0,%hi(.LANCHOR0)
 380              	.LVL25:
 381              	.L21:
 382              		.loc 1 57 14 discriminator 1
 383 0016 13060900 		addi	a2,s2,%lo(.LANCHOR1)
 384 001a 1C42     		lw	a5,0(a2)
 385              		.loc 1 57 10 discriminator 1
 386 001c 83260400 		lw	a3,%lo(.LANCHOR0)(s0)
 387              		.loc 1 57 14 discriminator 1
 388 0020 13871700 		addi	a4,a5,1
 389              		.loc 1 57 17 discriminator 1
 390 0024 33679702 		rem	a4,a4,s1
 391              		.loc 1 57 10 discriminator 1
 392 0028 6301D702 		beq	a4,a3,.L22
  58:lcd.c         ****    queue[w++]=dat;                        //...If/when not then store data...
 393              		.loc 1 58 4 is_stmt 1
 394              		.loc 1 58 14 is_stmt 0
 395 002c 93962700 		slli	a3,a5,2
 396 0030 B7070000 		lui	a5,%hi(.LANCHOR2)
  59:lcd.c         ****    w%=256;                                //...and advance write index!
  60:lcd.c         **** }
 397              		.loc 1 60 1
 398 0034 F240     		lw	ra,28(sp)
 399              		.cfi_remember_state
 400              		.cfi_restore 1
 401 0036 6244     		lw	s0,24(sp)
 402              		.cfi_restore 8
  58:lcd.c         ****    queue[w++]=dat;                        //...If/when not then store data...
 403              		.loc 1 58 14
 404 0038 93870700 		addi	a5,a5,%lo(.LANCHOR2)
 405 003c B697     		add	a5,a5,a3
 406 003e 88C3     		sw	a0,0(a5)
  59:lcd.c         ****    w%=256;                                //...and advance write index!
 407              		.loc 1 59 4 is_stmt 1
  59:lcd.c         ****    w%=256;                                //...and advance write index!
 408              		.loc 1 59 5 is_stmt 0
 409 0040 18C2     		sw	a4,0(a2)
 410              		.loc 1 60 1
 411 0042 D244     		lw	s1,20(sp)
 412              		.cfi_restore 9
 413 0044 4249     		lw	s2,16(sp)
 414              		.cfi_restore 18
 415 0046 0561     		addi	sp,sp,32
 416              	.LCFI10:
 417              		.cfi_def_cfa_offset 0
 418 0048 8280     		jr	ra
 419              	.L22:
 420              	.LCFI11:
GAS LISTING C:\Users\Duckb\AppData\Local\Temp\ccEgig1L.s 			page 10


 421              		.cfi_restore_state
 422 004a 2AC6     		sw	a0,12(sp)
  57:lcd.c         ****    queue[w++]=dat;                        //...If/when not then store data...
 423              		.loc 1 57 27 is_stmt 1 discriminator 2
 424 004c 97000000 		call	LCD_WR_Queue
 424      E7800000 
 425              	.LVL26:
 426 0054 3245     		lw	a0,12(sp)
 427 0056 C1B7     		j	.L21
 428              		.cfi_endproc
 429              	.LFE5:
 431              		.section	.text.LCD_Writ_Bus,"ax",@progbits
 432              		.align	1
 433              		.globl	LCD_Writ_Bus
 435              	LCD_Writ_Bus:
 436              	.LFB6:
  61:lcd.c         **** 
  62:lcd.c         **** /*
  63:lcd.c         ****   Function description: LCD serial data write function (write one byte)
  64:lcd.c         ****   Entry data: dat: byte to be written
  65:lcd.c         ****   Return value: None
  66:lcd.c         ****   Note: DC must already be set (for data) or reset (for command)
  67:lcd.c         **** */
  68:lcd.c         **** void LCD_Writ_Bus(u8 dat) 
  69:lcd.c         **** {
 437              		.loc 1 69 1
 438              		.cfi_startproc
 439              	.LVL27:
  70:lcd.c         **** 	OLED_CS_Clr();
 440              		.loc 1 70 2
  69:lcd.c         **** 	OLED_CS_Clr();
 441              		.loc 1 69 1 is_stmt 0
 442 0000 4111     		addi	sp,sp,-16
 443              	.LCFI12:
 444              		.cfi_def_cfa_offset 16
 445 0002 22C4     		sw	s0,8(sp)
 446 0004 26C2     		sw	s1,4(sp)
 447              		.loc 1 70 2
 448 0006 8965     		li	a1,8192
 449              		.cfi_offset 8, -8
 450              		.cfi_offset 9, -12
  69:lcd.c         **** 	OLED_CS_Clr();
 451              		.loc 1 69 1
 452 0008 AA84     		mv	s1,a0
  71:lcd.c         **** 
  72:lcd.c         **** 	while(RESET == spi_i2s_flag_get(SPI1, SPI_FLAG_TBE));
 453              		.loc 1 72 17
 454 000a 37440040 		li	s0,1073758208
  70:lcd.c         **** 
 455              		.loc 1 70 2
 456 000e 37150140 		li	a0,1073811456
 457              	.LVL28:
  69:lcd.c         **** 	OLED_CS_Clr();
 458              		.loc 1 69 1
 459 0012 4AC0     		sw	s2,0(sp)
 460 0014 06C6     		sw	ra,12(sp)
 461              		.cfi_offset 18, -16
GAS LISTING C:\Users\Duckb\AppData\Local\Temp\ccEgig1L.s 			page 11


 462              		.cfi_offset 1, -4
 463              		.loc 1 72 17
 464 0016 13090480 		addi	s2,s0,-2048
  70:lcd.c         **** 
 465              		.loc 1 70 2
 466 001a 97000000 		call	gpio_bit_reset
 466      E7800000 
 467              	.LVL29:
 468              		.loc 1 72 2 is_stmt 1
 469              	.L25:
 470              		.loc 1 72 54 discriminator 1
 471              		.loc 1 72 17 is_stmt 0 discriminator 1
 472 0022 8945     		li	a1,2
 473 0024 4A85     		mv	a0,s2
 474 0026 97000000 		call	spi_i2s_flag_get
 474      E7800000 
 475              	.LVL30:
 476              		.loc 1 72 7 discriminator 1
 477 002e 75D9     		beq	a0,zero,.L25
  73:lcd.c         ****         spi_i2s_data_transmit(SPI1, dat);
 478              		.loc 1 73 9 is_stmt 1
 479 0030 A685     		mv	a1,s1
 480 0032 13050480 		addi	a0,s0,-2048
  74:lcd.c         **** 
  75:lcd.c         **** 
  76:lcd.c         **** 	while(RESET == spi_i2s_flag_get(SPI1, SPI_FLAG_RBNE));
 481              		.loc 1 76 17 is_stmt 0
 482 0036 37440040 		li	s0,1073758208
  73:lcd.c         ****         spi_i2s_data_transmit(SPI1, dat);
 483              		.loc 1 73 9
 484 003a 97000000 		call	spi_i2s_data_transmit
 484      E7800000 
 485              	.LVL31:
 486              		.loc 1 76 2 is_stmt 1
 487              		.loc 1 76 17 is_stmt 0
 488 0042 93040480 		addi	s1,s0,-2048
 489              	.L26:
 490              		.loc 1 76 55 is_stmt 1 discriminator 1
 491              		.loc 1 76 17 is_stmt 0 discriminator 1
 492 0046 8545     		li	a1,1
 493 0048 2685     		mv	a0,s1
 494 004a 97000000 		call	spi_i2s_flag_get
 494      E7800000 
 495              	.LVL32:
 496              		.loc 1 76 7 discriminator 1
 497 0052 75D9     		beq	a0,zero,.L26
  77:lcd.c         ****         spi_i2s_data_receive(SPI1);
 498              		.loc 1 77 9 is_stmt 1
 499 0054 13050480 		addi	a0,s0,-2048
 500 0058 97000000 		call	spi_i2s_data_receive
 500      E7800000 
 501              	.LVL33:
  78:lcd.c         **** 
  79:lcd.c         **** 	OLED_CS_Set();  
 502              		.loc 1 79 2
  80:lcd.c         **** }
 503              		.loc 1 80 1 is_stmt 0
GAS LISTING C:\Users\Duckb\AppData\Local\Temp\ccEgig1L.s 			page 12


 504 0060 2244     		lw	s0,8(sp)
 505              		.cfi_restore 8
 506 0062 B240     		lw	ra,12(sp)
 507              		.cfi_restore 1
 508 0064 9244     		lw	s1,4(sp)
 509              		.cfi_restore 9
 510 0066 0249     		lw	s2,0(sp)
 511              		.cfi_restore 18
  79:lcd.c         **** }
 512              		.loc 1 79 2
 513 0068 8965     		li	a1,8192
 514              		.loc 1 80 1
  79:lcd.c         **** }
 515              		.loc 1 79 2
 516 006a 37150140 		li	a0,1073811456
 517              		.loc 1 80 1
 518 006e 4101     		addi	sp,sp,16
 519              	.LCFI13:
 520              		.cfi_def_cfa_offset 0
  79:lcd.c         **** }
 521              		.loc 1 79 2
 522 0070 17030000 		tail	gpio_bit_set
 522      67000300 
 523              	.LVL34:
 524              		.cfi_endproc
 525              	.LFE6:
 527              		.section	.text.LCD_WR_DATA8,"ax",@progbits
 528              		.align	1
 529              		.globl	LCD_WR_DATA8
 531              	LCD_WR_DATA8:
 532              	.LFB7:
  81:lcd.c         **** 
  82:lcd.c         **** 
  83:lcd.c         **** /*
  84:lcd.c         ****   Function description: LCD write 8-bit data
  85:lcd.c         ****   Entry data: dat: data to be written
  86:lcd.c         ****   Return value: None
  87:lcd.c         **** */
  88:lcd.c         **** void LCD_WR_DATA8(u8 dat)
  89:lcd.c         **** {
 533              		.loc 1 89 1 is_stmt 1
 534              		.cfi_startproc
 535              	.LVL35:
  90:lcd.c         **** 	//OLED_DC_Set();  // Write data
  91:lcd.c         **** 	//LCD_Writ_Bus(dat);
  92:lcd.c         ****     LCD_Write_Bus(((int)dat)+(1<<8));
 536              		.loc 1 92 5
 537 0000 13050510 		addi	a0,a0,256
 538              	.LVL36:
 539 0004 17030000 		tail	LCD_Write_Bus
 539      67000300 
 540              	.LVL37:
 541              		.cfi_endproc
 542              	.LFE7:
 544              		.section	.text.LCD_WR_DATA,"ax",@progbits
 545              		.align	1
 546              		.globl	LCD_WR_DATA
GAS LISTING C:\Users\Duckb\AppData\Local\Temp\ccEgig1L.s 			page 13


 548              	LCD_WR_DATA:
 549              	.LFB8:
  93:lcd.c         **** }
  94:lcd.c         **** 
  95:lcd.c         **** 
  96:lcd.c         **** /*
  97:lcd.c         ****   Function description: LCD write 16-bit data
  98:lcd.c         ****   Entry data: dat: 16-bit data to be written
  99:lcd.c         ****   Return value: None
 100:lcd.c         **** */
 101:lcd.c         **** void LCD_WR_DATA(u16 dat)
 102:lcd.c         **** {
 550              		.loc 1 102 1
 551              		.cfi_startproc
 552              	.LVL38:
 103:lcd.c         **** 	//OLED_DC_Set();  // Write data
 104:lcd.c         **** 	//LCD_Writ_Bus(dat>>8);
 105:lcd.c         **** 	//LCD_Writ_Bus(dat);
 106:lcd.c         ****     LCD_Write_Bus(((int)dat>>8)+(1<<8));
 553              		.loc 1 106 5
 102:lcd.c         **** 	//OLED_DC_Set();  // Write data
 554              		.loc 1 102 1 is_stmt 0
 555 0000 4111     		addi	sp,sp,-16
 556              	.LCFI14:
 557              		.cfi_def_cfa_offset 16
 558 0002 22C4     		sw	s0,8(sp)
 559              		.cfi_offset 8, -8
 560 0004 2A84     		mv	s0,a0
 561              		.loc 1 106 28
 562 0006 2185     		srai	a0,a0,8
 563              	.LVL39:
 564              		.loc 1 106 5
 565 0008 13050510 		addi	a0,a0,256
 102:lcd.c         **** 	//OLED_DC_Set();  // Write data
 566              		.loc 1 102 1
 567 000c 06C6     		sw	ra,12(sp)
 568              		.cfi_offset 1, -4
 569              		.loc 1 106 5
 570 000e 97000000 		call	LCD_Write_Bus
 570      E7800000 
 571              	.LVL40:
 107:lcd.c         ****     LCD_Write_Bus(((int)dat&0xFF)+(1<<8));
 572              		.loc 1 107 5 is_stmt 1
 573              		.loc 1 107 28 is_stmt 0
 574 0016 1375F40F 		andi	a0,s0,255
 108:lcd.c         **** }
 575              		.loc 1 108 1
 576 001a 2244     		lw	s0,8(sp)
 577              		.cfi_restore 8
 578              	.LVL41:
 579 001c B240     		lw	ra,12(sp)
 580              		.cfi_restore 1
 107:lcd.c         ****     LCD_Write_Bus(((int)dat&0xFF)+(1<<8));
 581              		.loc 1 107 5
 582 001e 13050510 		addi	a0,a0,256
 583              		.loc 1 108 1
 584 0022 4101     		addi	sp,sp,16
GAS LISTING C:\Users\Duckb\AppData\Local\Temp\ccEgig1L.s 			page 14


 585              	.LCFI15:
 586              		.cfi_def_cfa_offset 0
 107:lcd.c         ****     LCD_Write_Bus(((int)dat&0xFF)+(1<<8));
 587              		.loc 1 107 5
 588 0024 17030000 		tail	LCD_Write_Bus
 588      67000300 
 589              	.LVL42:
 590              		.cfi_endproc
 591              	.LFE8:
 593              		.section	.text.LCD_WR_REG,"ax",@progbits
 594              		.align	1
 595              		.globl	LCD_WR_REG
 597              	LCD_WR_REG:
 598              	.LFB9:
 109:lcd.c         **** 
 110:lcd.c         **** 
 111:lcd.c         **** /*
 112:lcd.c         ****   Function description: LCD write 8-bit command
 113:lcd.c         ****   Entry data: dat: command to be written
 114:lcd.c         ****   Return value: None
 115:lcd.c         **** */
 116:lcd.c         **** void LCD_WR_REG(u8 dat)
 117:lcd.c         **** {
 599              		.loc 1 117 1 is_stmt 1
 600              		.cfi_startproc
 601              	.LVL43:
 118:lcd.c         **** 	//OLED_DC_Clr();  // Write command
 119:lcd.c         **** 	//LCD_Writ_Bus(dat);
 120:lcd.c         ****     LCD_Write_Bus((int)dat);
 602              		.loc 1 120 5
 603 0000 17030000 		tail	LCD_Write_Bus
 603      67000300 
 604              	.LVL44:
 605              		.cfi_endproc
 606              	.LFE9:
 608              		.section	.text.LCD_Address_Set,"ax",@progbits
 609              		.align	1
 610              		.globl	LCD_Address_Set
 612              	LCD_Address_Set:
 613              	.LFB10:
 121:lcd.c         **** }
 122:lcd.c         **** 
 123:lcd.c         **** 
 124:lcd.c         **** 
 125:lcd.c         **** /*
 126:lcd.c         ****   Function description: Set start and end addresses
 127:lcd.c         ****   Entry data: x1, x2 set the start and end column address
 128:lcd.c         ****               y1, y2 set the start and end row address
 129:lcd.c         ****   Return value: None
 130:lcd.c         **** */
 131:lcd.c         **** void LCD_Address_Set(u16 x1,u16 y1,u16 x2,u16 y2)
 132:lcd.c         **** {
 614              		.loc 1 132 1
 615              		.cfi_startproc
 616              	.LVL45:
 133:lcd.c         **** 	LCD_WR_REG(0x2a);  // Column address setting
 617              		.loc 1 133 2
GAS LISTING C:\Users\Duckb\AppData\Local\Temp\ccEgig1L.s 			page 15


 618              	.LBB172:
 619              	.LBB173:
 120:lcd.c         **** }
 620              		.loc 1 120 5
 621              	.LBE173:
 622              	.LBE172:
 132:lcd.c         **** 	LCD_WR_REG(0x2a);  // Column address setting
 623              		.loc 1 132 1 is_stmt 0
 624 0000 0111     		addi	sp,sp,-32
 625              	.LCFI16:
 626              		.cfi_def_cfa_offset 32
 627 0002 22CC     		sw	s0,24(sp)
 628 0004 26CA     		sw	s1,20(sp)
 629              		.cfi_offset 8, -8
 630              		.cfi_offset 9, -12
 134:lcd.c         **** 	LCD_WR_DATA(x1+lcd_conf.offset_x);
 631              		.loc 1 134 25
 632 0006 37040000 		lui	s0,%hi(.LANCHOR3)
 132:lcd.c         **** 	LCD_WR_REG(0x2a);  // Column address setting
 633              		.loc 1 132 1
 634 000a AA84     		mv	s1,a0
 635              	.LBB176:
 636              	.LBB174:
 120:lcd.c         **** }
 637              		.loc 1 120 5
 638 000c 1305A002 		li	a0,42
 639              	.LVL46:
 640              	.LBE174:
 641              	.LBE176:
 132:lcd.c         **** 	LCD_WR_REG(0x2a);  // Column address setting
 642              		.loc 1 132 1
 643 0010 06CE     		sw	ra,28(sp)
 644              		.cfi_offset 1, -4
 132:lcd.c         **** 	LCD_WR_REG(0x2a);  // Column address setting
 645              		.loc 1 132 1
 646 0012 36C2     		sw	a3,4(sp)
 647 0014 2EC6     		sw	a1,12(sp)
 648              		.loc 1 134 25
 649 0016 13040400 		addi	s0,s0,%lo(.LANCHOR3)
 132:lcd.c         **** 	LCD_WR_REG(0x2a);  // Column address setting
 650              		.loc 1 132 1
 651 001a 32C4     		sw	a2,8(sp)
 652              	.LBB177:
 653              	.LBB175:
 120:lcd.c         **** }
 654              		.loc 1 120 5
 655 001c 97000000 		call	LCD_Write_Bus
 655      E7800000 
 656              	.LVL47:
 657              	.LBE175:
 658              	.LBE177:
 659              		.loc 1 134 2 is_stmt 1
 660              		.loc 1 134 25 is_stmt 0
 661 0024 03452400 		lbu	a0,2(s0)
 662              		.loc 1 134 2
 663 0028 2695     		add	a0,a0,s1
 664 002a 97000000 		call	LCD_WR_DATA
GAS LISTING C:\Users\Duckb\AppData\Local\Temp\ccEgig1L.s 			page 16


 664      E7800000 
 665              	.LVL48:
 135:lcd.c         **** 	LCD_WR_DATA(x2+lcd_conf.offset_x);
 666              		.loc 1 135 2 is_stmt 1
 667 0032 2246     		lw	a2,8(sp)
 668              		.loc 1 135 25 is_stmt 0
 669 0034 03452400 		lbu	a0,2(s0)
 670              		.loc 1 135 2
 671 0038 3295     		add	a0,a0,a2
 672 003a 97000000 		call	LCD_WR_DATA
 672      E7800000 
 673              	.LVL49:
 136:lcd.c         **** 	LCD_WR_REG(0x2b);  // row address setting
 674              		.loc 1 136 2 is_stmt 1
 675              	.LBB178:
 676              	.LBB179:
 120:lcd.c         **** }
 677              		.loc 1 120 5
 678 0042 1305B002 		li	a0,43
 679 0046 97000000 		call	LCD_Write_Bus
 679      E7800000 
 680              	.LVL50:
 681              	.LBE179:
 682              	.LBE178:
 137:lcd.c         **** 	LCD_WR_DATA(y1+lcd_conf.offset_y);
 683              		.loc 1 137 2
 684 004e B245     		lw	a1,12(sp)
 685              		.loc 1 137 25 is_stmt 0
 686 0050 03453400 		lbu	a0,3(s0)
 687              		.loc 1 137 2
 688 0054 2E95     		add	a0,a0,a1
 689 0056 97000000 		call	LCD_WR_DATA
 689      E7800000 
 690              	.LVL51:
 138:lcd.c         **** 	LCD_WR_DATA(y2+lcd_conf.offset_y);
 691              		.loc 1 138 2 is_stmt 1
 692              		.loc 1 138 25 is_stmt 0
 693 005e 03453400 		lbu	a0,3(s0)
 694              		.loc 1 138 2
 695 0062 9246     		lw	a3,4(sp)
 696 0064 3695     		add	a0,a0,a3
 697 0066 97000000 		call	LCD_WR_DATA
 697      E7800000 
 698              	.LVL52:
 139:lcd.c         **** 	LCD_WR_REG(0x2c);  // Memory write
 699              		.loc 1 139 2 is_stmt 1
 700              	.LBB180:
 701              	.LBB181:
 120:lcd.c         **** }
 702              		.loc 1 120 5
 703              	.LBE181:
 704              	.LBE180:
 140:lcd.c         **** }
 705              		.loc 1 140 1 is_stmt 0
 706 006e 6244     		lw	s0,24(sp)
 707              		.cfi_restore 8
 708 0070 F240     		lw	ra,28(sp)
GAS LISTING C:\Users\Duckb\AppData\Local\Temp\ccEgig1L.s 			page 17


 709              		.cfi_restore 1
 710 0072 D244     		lw	s1,20(sp)
 711              		.cfi_restore 9
 712              	.LVL53:
 713              	.LBB184:
 714              	.LBB182:
 120:lcd.c         **** }
 715              		.loc 1 120 5
 716 0074 1305C002 		li	a0,44
 717              	.LBE182:
 718              	.LBE184:
 719              		.loc 1 140 1
 720 0078 0561     		addi	sp,sp,32
 721              	.LCFI17:
 722              		.cfi_def_cfa_offset 0
 723              	.LVL54:
 724              	.LBB185:
 725              	.LBB183:
 120:lcd.c         **** }
 726              		.loc 1 120 5
 727 007a 17030000 		tail	LCD_Write_Bus
 727      67000300 
 728              	.LVL55:
 729              	.LBE183:
 730              	.LBE185:
 731              		.cfi_endproc
 732              	.LFE10:
 734              		.section	.text.spi_config,"ax",@progbits
 735              		.align	1
 736              		.globl	spi_config
 738              	spi_config:
 739              	.LFB11:
 141:lcd.c         **** 
 142:lcd.c         **** /*!
 143:lcd.c         ****     \brief      configure the SPI peripheral
 144:lcd.c         ****     \param[in]  none
 145:lcd.c         ****     \param[out] none
 146:lcd.c         ****     \retval     none
 147:lcd.c         **** */
 148:lcd.c         **** void spi_config(void)
 149:lcd.c         **** {
 740              		.loc 1 149 1 is_stmt 1
 741              		.cfi_startproc
 150:lcd.c         ****     spi_parameter_struct spi_init_struct;
 742              		.loc 1 150 5
 151:lcd.c         ****     /* deinitilize SPI and the parameters */
 152:lcd.c         ****     OLED_CS_Set();
 743              		.loc 1 152 5
 149:lcd.c         ****     spi_parameter_struct spi_init_struct;
 744              		.loc 1 149 1 is_stmt 0
 745 0000 7971     		addi	sp,sp,-48
 746              	.LCFI18:
 747              		.cfi_def_cfa_offset 48
 748              		.loc 1 152 5
 749 0002 8965     		li	a1,8192
 750 0004 37150140 		li	a0,1073811456
 149:lcd.c         ****     spi_parameter_struct spi_init_struct;
GAS LISTING C:\Users\Duckb\AppData\Local\Temp\ccEgig1L.s 			page 18


 751              		.loc 1 149 1
 752 0008 06D6     		sw	ra,44(sp)
 753 000a 22D4     		sw	s0,40(sp)
 754              		.cfi_offset 1, -4
 755              		.cfi_offset 8, -8
 756              		.loc 1 152 5
 757 000c 97000000 		call	gpio_bit_set
 757      E7800000 
 758              	.LVL56:
 153:lcd.c         ****     spi_struct_para_init(&spi_init_struct);
 759              		.loc 1 153 5 is_stmt 1
 760 0014 4800     		addi	a0,sp,4
 761 0016 97000000 		call	spi_struct_para_init
 761      E7800000 
 762              	.LVL57:
 154:lcd.c         **** 
 155:lcd.c         ****     /* SPI1 parameter config */
 156:lcd.c         ****     spi_init_struct.trans_mode           = SPI_TRANSMODE_FULLDUPLEX;
 763              		.loc 1 156 5
 157:lcd.c         ****     spi_init_struct.device_mode          = SPI_MASTER;
 764              		.loc 1 157 42 is_stmt 0
 765 001e 93074010 		li	a5,260
 766 0022 3EC2     		sw	a5,4(sp)
 158:lcd.c         ****     spi_init_struct.frame_size           = SPI_FRAMESIZE_8BIT;
 159:lcd.c         ****     spi_init_struct.clock_polarity_phase = SPI_CK_PL_HIGH_PH_2EDGE;
 767              		.loc 1 159 42
 768 0024 8D47     		li	a5,3
 160:lcd.c         ****     spi_init_struct.nss                  = SPI_NSS_SOFT;
 161:lcd.c         ****     spi_init_struct.prescale             = SPI_PSC_4;
 162:lcd.c         ****     spi_init_struct.endian               = SPI_ENDIAN_MSB;
 163:lcd.c         ****     spi_init(SPI1, &spi_init_struct);
 769              		.loc 1 163 5
 770 0026 37440040 		li	s0,1073758208
 159:lcd.c         ****     spi_init_struct.nss                  = SPI_NSS_SOFT;
 771              		.loc 1 159 42
 772 002a 3ECC     		sw	a5,24(sp)
 160:lcd.c         ****     spi_init_struct.nss                  = SPI_NSS_SOFT;
 773              		.loc 1 160 42
 774 002c 93070020 		li	a5,512
 775 0030 3EC8     		sw	a5,16(sp)
 776              		.loc 1 163 5
 777 0032 4C00     		addi	a1,sp,4
 161:lcd.c         ****     spi_init_struct.endian               = SPI_ENDIAN_MSB;
 778              		.loc 1 161 42
 779 0034 A147     		li	a5,8
 780              		.loc 1 163 5
 781 0036 13050480 		addi	a0,s0,-2048
 161:lcd.c         ****     spi_init_struct.endian               = SPI_ENDIAN_MSB;
 782              		.loc 1 161 42
 783 003a 3ECE     		sw	a5,28(sp)
 156:lcd.c         ****     spi_init_struct.device_mode          = SPI_MASTER;
 784              		.loc 1 156 42
 785 003c 02C4     		sw	zero,8(sp)
 157:lcd.c         ****     spi_init_struct.frame_size           = SPI_FRAMESIZE_8BIT;
 786              		.loc 1 157 5 is_stmt 1
 158:lcd.c         ****     spi_init_struct.clock_polarity_phase = SPI_CK_PL_HIGH_PH_2EDGE;
 787              		.loc 1 158 5
GAS LISTING C:\Users\Duckb\AppData\Local\Temp\ccEgig1L.s 			page 19


 158:lcd.c         ****     spi_init_struct.clock_polarity_phase = SPI_CK_PL_HIGH_PH_2EDGE;
 788              		.loc 1 158 42 is_stmt 0
 789 003e 02C6     		sw	zero,12(sp)
 159:lcd.c         ****     spi_init_struct.nss                  = SPI_NSS_SOFT;
 790              		.loc 1 159 5 is_stmt 1
 160:lcd.c         ****     spi_init_struct.prescale             = SPI_PSC_4;
 791              		.loc 1 160 5
 161:lcd.c         ****     spi_init_struct.endian               = SPI_ENDIAN_MSB;
 792              		.loc 1 161 5
 162:lcd.c         ****     spi_init(SPI1, &spi_init_struct);
 793              		.loc 1 162 5
 162:lcd.c         ****     spi_init(SPI1, &spi_init_struct);
 794              		.loc 1 162 42 is_stmt 0
 795 0040 02CA     		sw	zero,20(sp)
 796              		.loc 1 163 5 is_stmt 1
 797 0042 97000000 		call	spi_init
 797      E7800000 
 798              	.LVL58:
 164:lcd.c         **** 
 165:lcd.c         **** 	spi_crc_polynomial_set(SPI1,7);
 799              		.loc 1 165 2
 800 004a 13050480 		addi	a0,s0,-2048
 801 004e 9D45     		li	a1,7
 802 0050 97000000 		call	spi_crc_polynomial_set
 802      E7800000 
 803              	.LVL59:
 166:lcd.c         **** 	spi_enable(SPI1);
 804              		.loc 1 166 2
 805 0058 13050480 		addi	a0,s0,-2048
 806 005c 97000000 		call	spi_enable
 806      E7800000 
 807              	.LVL60:
 167:lcd.c         **** }
 808              		.loc 1 167 1 is_stmt 0
 809 0064 B250     		lw	ra,44(sp)
 810              		.cfi_restore 1
 811 0066 2254     		lw	s0,40(sp)
 812              		.cfi_restore 8
 813 0068 4561     		addi	sp,sp,48
 814              	.LCFI19:
 815              		.cfi_def_cfa_offset 0
 816 006a 8280     		jr	ra
 817              		.cfi_endproc
 818              	.LFE11:
 820              		.section	.text.Lcd_SetType,"ax",@progbits
 821              		.align	1
 822              		.globl	Lcd_SetType
 824              	Lcd_SetType:
 825              	.LFB12:
 168:lcd.c         **** 
 169:lcd.c         **** void Lcd_SetType(int type){
 826              		.loc 1 169 27 is_stmt 1
 827              		.cfi_startproc
 828              	.LVL61:
 170:lcd.c         **** 	if(type == LCD_NORMAL){
 829              		.loc 1 170 2
 830              		.loc 1 170 4 is_stmt 0
GAS LISTING C:\Users\Duckb\AppData\Local\Temp\ccEgig1L.s 			page 20


 831 0000 09E9     		bne	a0,zero,.L41
 171:lcd.c         **** 		lcd_conf.configured = 1;
 832              		.loc 1 171 3 is_stmt 1
 172:lcd.c         **** 		lcd_conf.offset_x = 1;
 833              		.loc 1 172 3
 173:lcd.c         **** 		lcd_conf.offset_y = 26;
 834              		.loc 1 173 3
 174:lcd.c         **** 		lcd_conf.inverted = 0;
 835              		.loc 1 174 3
 171:lcd.c         **** 		lcd_conf.offset_x = 1;
 836              		.loc 1 171 23 is_stmt 0
 837 0002 B707011A 		li	a5,436273152
 838 0006 37070000 		lui	a4,%hi(.LANCHOR3)
 839 000a 8507     		addi	a5,a5,1
 840              	.L43:
 841              	.LBB188:
 842              	.LBB189:
 175:lcd.c         **** 	}
 176:lcd.c         **** 	if(type == LCD_INVERTED){
 177:lcd.c         **** 		lcd_conf.configured = 1;
 843              		.loc 1 177 23
 844 000c 2320F700 		sw	a5,%lo(.LANCHOR3)(a4)
 845              	.L40:
 846              	.LBE189:
 847              	.LBE188:
 178:lcd.c         **** 		lcd_conf.offset_x = 0;
 179:lcd.c         **** 		lcd_conf.offset_y = 24;
 180:lcd.c         **** 		lcd_conf.inverted = 1;
 181:lcd.c         **** 	}
 182:lcd.c         **** }
 848              		.loc 1 182 1
 849 0010 8280     		ret
 850              	.L41:
 176:lcd.c         **** 		lcd_conf.configured = 1;
 851              		.loc 1 176 2 is_stmt 1
 176:lcd.c         **** 		lcd_conf.configured = 1;
 852              		.loc 1 176 4 is_stmt 0
 853 0012 8547     		li	a5,1
 854 0014 E31EF5FE 		bne	a0,a5,.L40
 855              	.LVL62:
 856              	.LBB191:
 857              	.LBB190:
 177:lcd.c         **** 		lcd_conf.offset_x = 0;
 858              		.loc 1 177 3 is_stmt 1
 178:lcd.c         **** 		lcd_conf.offset_x = 0;
 859              		.loc 1 178 3
 179:lcd.c         **** 		lcd_conf.inverted = 1;
 860              		.loc 1 179 3
 180:lcd.c         **** 	}
 861              		.loc 1 180 3
 177:lcd.c         **** 		lcd_conf.offset_x = 0;
 862              		.loc 1 177 23 is_stmt 0
 863 0018 B7070018 		li	a5,402653184
 864 001c 37070000 		lui	a4,%hi(.LANCHOR3)
 865 0020 93871710 		addi	a5,a5,257
 866 0024 E5B7     		j	.L43
 867              	.LBE190:
GAS LISTING C:\Users\Duckb\AppData\Local\Temp\ccEgig1L.s 			page 21


 868              	.LBE191:
 869              		.cfi_endproc
 870              	.LFE12:
 872              		.section	.text.Lcd_Init,"ax",@progbits
 873              		.align	1
 874              		.globl	Lcd_Init
 876              	Lcd_Init:
 877              	.LFB13:
 183:lcd.c         **** 
 184:lcd.c         **** 
 185:lcd.c         **** /*
 186:lcd.c         ****   Function description: LCD initialization function
 187:lcd.c         ****   Entry data: None
 188:lcd.c         ****   Return value: None
 189:lcd.c         **** */
 190:lcd.c         **** void Lcd_Init(void)
 191:lcd.c         **** {
 878              		.loc 1 191 1 is_stmt 1
 879              		.cfi_startproc
 192:lcd.c         **** 	if(!lcd_conf.configured) Lcd_SetType(LCD_NORMAL);
 880              		.loc 1 192 2
 881              		.loc 1 192 14 is_stmt 0
 882 0000 B7070000 		lui	a5,%hi(.LANCHOR3)
 883              		.loc 1 192 4
 884 0004 03C70700 		lbu	a4,%lo(.LANCHOR3)(a5)
 191:lcd.c         **** 	if(!lcd_conf.configured) Lcd_SetType(LCD_NORMAL);
 885              		.loc 1 191 1
 886 0008 4111     		addi	sp,sp,-16
 887              	.LCFI20:
 888              		.cfi_def_cfa_offset 16
 889 000a 22C4     		sw	s0,8(sp)
 890 000c 06C6     		sw	ra,12(sp)
 891              		.cfi_offset 8, -8
 892              		.cfi_offset 1, -4
 893 000e 13840700 		addi	s0,a5,%lo(.LANCHOR3)
 894              		.loc 1 192 4
 895 0012 11E7     		bne	a4,zero,.L45
 896              		.loc 1 192 27 is_stmt 1 discriminator 1
 897 0014 0145     		li	a0,0
 898 0016 97000000 		call	Lcd_SetType
 898      E7800000 
 899              	.LVL63:
 900              	.L45:
 193:lcd.c         **** 	rcu_periph_clock_enable(RCU_GPIOB);
 901              		.loc 1 193 2
 902 001e 13053060 		li	a0,1539
 903 0022 97000000 		call	rcu_periph_clock_enable
 903      E7800000 
 904              	.LVL64:
 194:lcd.c         **** 	rcu_periph_clock_enable(RCU_GPIOC);
 905              		.loc 1 194 2
 906 002a 13054060 		li	a0,1540
 907 002e 97000000 		call	rcu_periph_clock_enable
 907      E7800000 
 908              	.LVL65:
 195:lcd.c         **** 
 196:lcd.c         ****  	rcu_periph_clock_enable(RCU_AF);
GAS LISTING C:\Users\Duckb\AppData\Local\Temp\ccEgig1L.s 			page 22


 909              		.loc 1 196 3
 910 0036 13050060 		li	a0,1536
 911 003a 97000000 		call	rcu_periph_clock_enable
 911      E7800000 
 912              	.LVL66:
 197:lcd.c         **** 	rcu_periph_clock_enable(RCU_SPI1);
 913              		.loc 1 197 2
 914 0042 1305E070 		li	a0,1806
 915 0046 97000000 		call	rcu_periph_clock_enable
 915      E7800000 
 916              	.LVL67:
 198:lcd.c         **** 	
 199:lcd.c         ****     gpio_init(GPIOB, GPIO_MODE_AF_PP, GPIO_OSPEED_50MHZ, GPIO_PIN_13 |GPIO_PIN_14| GPIO_PIN_15);
 917              		.loc 1 199 5
 918 004e 37150140 		li	a0,1073811456
 919 0052 B966     		li	a3,57344
 920 0054 0D46     		li	a2,3
 921 0056 E145     		li	a1,24
 922 0058 130505C0 		addi	a0,a0,-1024
 923 005c 97000000 		call	gpio_init
 923      E7800000 
 924              	.LVL68:
 200:lcd.c         **** 	gpio_init(GPIOC, GPIO_MODE_OUT_PP, GPIO_OSPEED_50MHZ, GPIO_PIN_13 | GPIO_PIN_15); //CS
 925              		.loc 1 200 2
 926 0064 A966     		li	a3,40960
 927 0066 0D46     		li	a2,3
 928 0068 C145     		li	a1,16
 929 006a 37150140 		li	a0,1073811456
 930 006e 97000000 		call	gpio_init
 930      E7800000 
 931              	.LVL69:
 201:lcd.c         **** 
 202:lcd.c         **** 	spi_config();
 932              		.loc 1 202 2
 933 0076 97000000 		call	spi_config
 933      E7800000 
 934              	.LVL70:
 203:lcd.c         **** 
 204:lcd.c         **** 	gpio_bit_reset(GPIOC, GPIO_PIN_13 | GPIO_PIN_15);
 935              		.loc 1 204 2
 936 007e A965     		li	a1,40960
 937 0080 37150140 		li	a0,1073811456
 938 0084 97000000 		call	gpio_bit_reset
 938      E7800000 
 939              	.LVL71:
 205:lcd.c         **** 	LCD_Wait_On_Queue();
 940              		.loc 1 205 2
 941 008c 97000000 		call	LCD_Wait_On_Queue
 941      E7800000 
 942              	.LVL72:
 206:lcd.c         **** 	lcd_delay_1ms(100);
 943              		.loc 1 206 2
 944 0094 13054006 		li	a0,100
 945 0098 97000000 		call	lcd_delay_1ms
 945      E7800000 
 946              	.LVL73:
 207:lcd.c         **** 	
GAS LISTING C:\Users\Duckb\AppData\Local\Temp\ccEgig1L.s 			page 23


 208:lcd.c         **** 
 209:lcd.c         **** 	LCD_WR_REG(0x01); 	//SW reset
 947              		.loc 1 209 2
 948              	.LBB192:
 949              	.LBB193:
 120:lcd.c         **** }
 950              		.loc 1 120 5
 951 00a0 0545     		li	a0,1
 952 00a2 97000000 		call	LCD_Write_Bus
 952      E7800000 
 953              	.LVL74:
 954              	.LBE193:
 955              	.LBE192:
 210:lcd.c         **** 	LCD_Wait_On_Queue();
 956              		.loc 1 210 2
 957 00aa 97000000 		call	LCD_Wait_On_Queue
 957      E7800000 
 958              	.LVL75:
 211:lcd.c         **** 	lcd_delay_1ms(120);
 959              		.loc 1 211 2
 960 00b2 13058007 		li	a0,120
 961 00b6 97000000 		call	lcd_delay_1ms
 961      E7800000 
 962              	.LVL76:
 212:lcd.c         **** 	
 213:lcd.c         **** 
 214:lcd.c         **** 	LCD_WR_REG(0x11); 	//SLPOUT
 963              		.loc 1 214 2
 964              	.LBB194:
 965              	.LBB195:
 120:lcd.c         **** }
 966              		.loc 1 120 5
 967 00be 4545     		li	a0,17
 968 00c0 97000000 		call	LCD_Write_Bus
 968      E7800000 
 969              	.LVL77:
 970              	.LBE195:
 971              	.LBE194:
 215:lcd.c         **** 	LCD_Wait_On_Queue();
 972              		.loc 1 215 2
 973 00c8 97000000 		call	LCD_Wait_On_Queue
 973      E7800000 
 974              	.LVL78:
 216:lcd.c         **** 	lcd_delay_1ms(100);
 975              		.loc 1 216 2
 976 00d0 13054006 		li	a0,100
 977 00d4 97000000 		call	lcd_delay_1ms
 977      E7800000 
 978              	.LVL79:
 217:lcd.c         **** 
 218:lcd.c         **** 	if(lcd_conf.inverted) LCD_WR_REG(0x22); 
 979              		.loc 1 218 2
 980              		.loc 1 218 4 is_stmt 0
 981 00dc 83471400 		lbu	a5,1(s0)
 982              	.LBB196:
 983              	.LBB197:
 120:lcd.c         **** }
GAS LISTING C:\Users\Duckb\AppData\Local\Temp\ccEgig1L.s 			page 24


 984              		.loc 1 120 5
 985 00e0 13052002 		li	a0,34
 986              	.LBE197:
 987              	.LBE196:
 988              		.loc 1 218 4
 989 00e4 99E3     		bne	a5,zero,.L49
 219:lcd.c         **** 	else				  LCD_WR_REG(0x21); 	//INVON
 990              		.loc 1 219 12 is_stmt 1
 991              	.LVL80:
 992              	.LBB198:
 993              	.LBB199:
 120:lcd.c         **** }
 994              		.loc 1 120 5
 995 00e6 13051002 		li	a0,33
 996              	.LVL81:
 997              	.L49:
 998 00ea 97000000 		call	LCD_Write_Bus
 998      E7800000 
 999              	.LVL82:
 1000              	.LBE199:
 1001              	.LBE198:
 220:lcd.c         **** 
 221:lcd.c         **** 	LCD_WR_REG(0xB1); 	//FRMCTRL1 - Full color
 1002              		.loc 1 221 2
 1003              	.LBB200:
 1004              	.LBB201:
 120:lcd.c         **** }
 1005              		.loc 1 120 5
 1006 00f2 1305100B 		li	a0,177
 1007 00f6 97000000 		call	LCD_Write_Bus
 1007      E7800000 
 1008              	.LVL83:
 1009              	.LBE201:
 1010              	.LBE200:
 222:lcd.c         **** 	LCD_WR_DATA8(0x05); // Framerate = 333khz / (25) * (196) = 67.9fps
 1011              		.loc 1 222 2
 1012              	.LBB202:
 1013              	.LBB203:
  92:lcd.c         **** }
 1014              		.loc 1 92 5
 1015 00fe 13055010 		li	a0,261
 1016 0102 97000000 		call	LCD_Write_Bus
 1016      E7800000 
 1017              	.LVL84:
 1018              	.LBE203:
 1019              	.LBE202:
 223:lcd.c         **** 	LCD_WR_DATA8(0x3A);
 1020              		.loc 1 223 2
 1021              	.LBB204:
 1022              	.LBB205:
  92:lcd.c         **** }
 1023              		.loc 1 92 5
 1024 010a 1305A013 		li	a0,314
 1025 010e 97000000 		call	LCD_Write_Bus
 1025      E7800000 
 1026              	.LVL85:
 1027              	.LBE205:
GAS LISTING C:\Users\Duckb\AppData\Local\Temp\ccEgig1L.s 			page 25


 1028              	.LBE204:
 224:lcd.c         **** 	LCD_WR_DATA8(0x3A);
 1029              		.loc 1 224 2
 1030              	.LBB206:
 1031              	.LBB207:
  92:lcd.c         **** }
 1032              		.loc 1 92 5
 1033 0116 1305A013 		li	a0,314
 1034 011a 97000000 		call	LCD_Write_Bus
 1034      E7800000 
 1035              	.LVL86:
 1036              	.LBE207:
 1037              	.LBE206:
 225:lcd.c         **** 
 226:lcd.c         **** 	LCD_WR_REG(0xB2);	//FRMCTRL - 8-bit color
 1038              		.loc 1 226 2
 1039              	.LBB208:
 1040              	.LBB209:
 120:lcd.c         **** }
 1041              		.loc 1 120 5
 1042 0122 1305200B 		li	a0,178
 1043 0126 97000000 		call	LCD_Write_Bus
 1043      E7800000 
 1044              	.LVL87:
 1045              	.LBE209:
 1046              	.LBE208:
 227:lcd.c         **** 	LCD_WR_DATA8(0x05); //fps = 67.9
 1047              		.loc 1 227 2
 1048              	.LBB210:
 1049              	.LBB211:
  92:lcd.c         **** }
 1050              		.loc 1 92 5
 1051 012e 13055010 		li	a0,261
 1052 0132 97000000 		call	LCD_Write_Bus
 1052      E7800000 
 1053              	.LVL88:
 1054              	.LBE211:
 1055              	.LBE210:
 228:lcd.c         **** 	LCD_WR_DATA8(0x3A);
 1056              		.loc 1 228 2
 1057              	.LBB212:
 1058              	.LBB213:
  92:lcd.c         **** }
 1059              		.loc 1 92 5
 1060 013a 1305A013 		li	a0,314
 1061 013e 97000000 		call	LCD_Write_Bus
 1061      E7800000 
 1062              	.LVL89:
 1063              	.LBE213:
 1064              	.LBE212:
 229:lcd.c         **** 	LCD_WR_DATA8(0x3A);
 1065              		.loc 1 229 2
 1066              	.LBB214:
 1067              	.LBB215:
  92:lcd.c         **** }
 1068              		.loc 1 92 5
 1069 0146 1305A013 		li	a0,314
GAS LISTING C:\Users\Duckb\AppData\Local\Temp\ccEgig1L.s 			page 26


 1070 014a 97000000 		call	LCD_Write_Bus
 1070      E7800000 
 1071              	.LVL90:
 1072              	.LBE215:
 1073              	.LBE214:
 230:lcd.c         **** 
 231:lcd.c         **** 	LCD_WR_REG(0xB3);   //Partial mode
 1074              		.loc 1 231 2
 1075              	.LBB216:
 1076              	.LBB217:
 120:lcd.c         **** }
 1077              		.loc 1 120 5
 1078 0152 1305300B 		li	a0,179
 1079 0156 97000000 		call	LCD_Write_Bus
 1079      E7800000 
 1080              	.LVL91:
 1081              	.LBE217:
 1082              	.LBE216:
 232:lcd.c         **** 	LCD_WR_DATA8(0x05);  
 1083              		.loc 1 232 2
 1084              	.LBB218:
 1085              	.LBB219:
  92:lcd.c         **** }
 1086              		.loc 1 92 5
 1087 015e 13055010 		li	a0,261
 1088 0162 97000000 		call	LCD_Write_Bus
 1088      E7800000 
 1089              	.LVL92:
 1090              	.LBE219:
 1091              	.LBE218:
 233:lcd.c         **** 	LCD_WR_DATA8(0x3A);
 1092              		.loc 1 233 2
 1093              	.LBB220:
 1094              	.LBB221:
  92:lcd.c         **** }
 1095              		.loc 1 92 5
 1096 016a 1305A013 		li	a0,314
 1097 016e 97000000 		call	LCD_Write_Bus
 1097      E7800000 
 1098              	.LVL93:
 1099              	.LBE221:
 1100              	.LBE220:
 234:lcd.c         **** 	LCD_WR_DATA8(0x3A);
 1101              		.loc 1 234 2
 1102              	.LBB222:
 1103              	.LBB223:
  92:lcd.c         **** }
 1104              		.loc 1 92 5
 1105 0176 1305A013 		li	a0,314
 1106 017a 97000000 		call	LCD_Write_Bus
 1106      E7800000 
 1107              	.LVL94:
 1108              	.LBE223:
 1109              	.LBE222:
 235:lcd.c         **** 	LCD_WR_DATA8(0x05);
 1110              		.loc 1 235 2
 1111              	.LBB224:
GAS LISTING C:\Users\Duckb\AppData\Local\Temp\ccEgig1L.s 			page 27


 1112              	.LBB225:
  92:lcd.c         **** }
 1113              		.loc 1 92 5
 1114 0182 13055010 		li	a0,261
 1115 0186 97000000 		call	LCD_Write_Bus
 1115      E7800000 
 1116              	.LVL95:
 1117              	.LBE225:
 1118              	.LBE224:
 236:lcd.c         **** 	LCD_WR_DATA8(0x3A);
 1119              		.loc 1 236 2
 1120              	.LBB226:
 1121              	.LBB227:
  92:lcd.c         **** }
 1122              		.loc 1 92 5
 1123 018e 1305A013 		li	a0,314
 1124 0192 97000000 		call	LCD_Write_Bus
 1124      E7800000 
 1125              	.LVL96:
 1126              	.LBE227:
 1127              	.LBE226:
 237:lcd.c         **** 	LCD_WR_DATA8(0x3A);
 1128              		.loc 1 237 2
 1129              	.LBB228:
 1130              	.LBB229:
  92:lcd.c         **** }
 1131              		.loc 1 92 5
 1132 019a 1305A013 		li	a0,314
 1133 019e 97000000 		call	LCD_Write_Bus
 1133      E7800000 
 1134              	.LVL97:
 1135              	.LBE229:
 1136              	.LBE228:
 238:lcd.c         **** 
 239:lcd.c         **** 	LCD_WR_REG(0xB4);  //INVCTR - Inversion control
 1137              		.loc 1 239 2
 1138              	.LBB230:
 1139              	.LBB231:
 120:lcd.c         **** }
 1140              		.loc 1 120 5
 1141 01a6 1305400B 		li	a0,180
 1142 01aa 97000000 		call	LCD_Write_Bus
 1142      E7800000 
 1143              	.LVL98:
 1144              	.LBE231:
 1145              	.LBE230:
 240:lcd.c         **** 	LCD_WR_DATA8(0x03);//Line inversion(full color) | Frame inversion
 1146              		.loc 1 240 2
 1147              	.LBB232:
 1148              	.LBB233:
  92:lcd.c         **** }
 1149              		.loc 1 92 5
 1150 01b2 13053010 		li	a0,259
 1151 01b6 97000000 		call	LCD_Write_Bus
 1151      E7800000 
 1152              	.LVL99:
 1153              	.LBE233:
GAS LISTING C:\Users\Duckb\AppData\Local\Temp\ccEgig1L.s 			page 28


 1154              	.LBE232:
 241:lcd.c         **** 
 242:lcd.c         **** 	LCD_WR_REG(0xC0);  //PWRCTR1 - Set GVDD voltage
 1155              		.loc 1 242 2
 1156              	.LBB234:
 1157              	.LBB235:
 120:lcd.c         **** }
 1158              		.loc 1 120 5
 1159 01be 1305000C 		li	a0,192
 1160 01c2 97000000 		call	LCD_Write_Bus
 1160      E7800000 
 1161              	.LVL100:
 1162              	.LBE235:
 1163              	.LBE234:
 243:lcd.c         **** 	LCD_WR_DATA8(0x62);//
 1164              		.loc 1 243 2
 1165              	.LBB236:
 1166              	.LBB237:
  92:lcd.c         **** }
 1167              		.loc 1 92 5
 1168 01ca 13052016 		li	a0,354
 1169 01ce 97000000 		call	LCD_Write_Bus
 1169      E7800000 
 1170              	.LVL101:
 1171              	.LBE237:
 1172              	.LBE236:
 244:lcd.c         **** 	LCD_WR_DATA8(0x02);//
 1173              		.loc 1 244 2
 1174              	.LBB238:
 1175              	.LBB239:
  92:lcd.c         **** }
 1176              		.loc 1 92 5
 1177 01d6 13052010 		li	a0,258
 1178 01da 97000000 		call	LCD_Write_Bus
 1178      E7800000 
 1179              	.LVL102:
 1180              	.LBE239:
 1181              	.LBE238:
 245:lcd.c         **** 	LCD_WR_DATA8(0x04);//
 1182              		.loc 1 245 2
 1183              	.LBB240:
 1184              	.LBB241:
  92:lcd.c         **** }
 1185              		.loc 1 92 5
 1186 01e2 13054010 		li	a0,260
 1187 01e6 97000000 		call	LCD_Write_Bus
 1187      E7800000 
 1188              	.LVL103:
 1189              	.LBE241:
 1190              	.LBE240:
 246:lcd.c         **** 
 247:lcd.c         **** 	LCD_WR_REG(0xC1); //More power regulation
 1191              		.loc 1 247 2
 1192              	.LBB242:
 1193              	.LBB243:
 120:lcd.c         **** }
 1194              		.loc 1 120 5
GAS LISTING C:\Users\Duckb\AppData\Local\Temp\ccEgig1L.s 			page 29


 1195 01ee 1305100C 		li	a0,193
 1196 01f2 97000000 		call	LCD_Write_Bus
 1196      E7800000 
 1197              	.LVL104:
 1198              	.LBE243:
 1199              	.LBE242:
 248:lcd.c         **** 	LCD_WR_DATA8(0xC0);
 1200              		.loc 1 248 2
 1201              	.LBB244:
 1202              	.LBB245:
  92:lcd.c         **** }
 1203              		.loc 1 92 5
 1204 01fa 1305001C 		li	a0,448
 1205 01fe 97000000 		call	LCD_Write_Bus
 1205      E7800000 
 1206              	.LVL105:
 1207              	.LBE245:
 1208              	.LBE244:
 249:lcd.c         **** 
 250:lcd.c         **** 	LCD_WR_REG(0xC2); //Same
 1209              		.loc 1 250 2
 1210              	.LBB246:
 1211              	.LBB247:
 120:lcd.c         **** }
 1212              		.loc 1 120 5
 1213 0206 1305200C 		li	a0,194
 1214 020a 97000000 		call	LCD_Write_Bus
 1214      E7800000 
 1215              	.LVL106:
 1216              	.LBE247:
 1217              	.LBE246:
 251:lcd.c         **** 	LCD_WR_DATA8(0x0D);
 1218              		.loc 1 251 2
 1219              	.LBB248:
 1220              	.LBB249:
  92:lcd.c         **** }
 1221              		.loc 1 92 5
 1222 0212 1305D010 		li	a0,269
 1223 0216 97000000 		call	LCD_Write_Bus
 1223      E7800000 
 1224              	.LVL107:
 1225              	.LBE249:
 1226              	.LBE248:
 252:lcd.c         **** 	LCD_WR_DATA8(0x00);
 1227              		.loc 1 252 2
 1228              	.LBB250:
 1229              	.LBB251:
  92:lcd.c         **** }
 1230              		.loc 1 92 5
 1231 021e 13050010 		li	a0,256
 1232 0222 97000000 		call	LCD_Write_Bus
 1232      E7800000 
 1233              	.LVL108:
 1234              	.LBE251:
 1235              	.LBE250:
 253:lcd.c         **** 
 254:lcd.c         **** 	LCD_WR_REG(0xC3); //same
GAS LISTING C:\Users\Duckb\AppData\Local\Temp\ccEgig1L.s 			page 30


 1236              		.loc 1 254 2
 1237              	.LBB252:
 1238              	.LBB253:
 120:lcd.c         **** }
 1239              		.loc 1 120 5
 1240 022a 1305300C 		li	a0,195
 1241 022e 97000000 		call	LCD_Write_Bus
 1241      E7800000 
 1242              	.LVL109:
 1243              	.LBE253:
 1244              	.LBE252:
 255:lcd.c         **** 	LCD_WR_DATA8(0x8D);
 1245              		.loc 1 255 2
 1246              	.LBB254:
 1247              	.LBB255:
  92:lcd.c         **** }
 1248              		.loc 1 92 5
 1249 0236 1305D018 		li	a0,397
 1250 023a 97000000 		call	LCD_Write_Bus
 1250      E7800000 
 1251              	.LVL110:
 1252              	.LBE255:
 1253              	.LBE254:
 256:lcd.c         **** 	LCD_WR_DATA8(0x6A);   
 1254              		.loc 1 256 2
 1255              	.LBB256:
 1256              	.LBB257:
  92:lcd.c         **** }
 1257              		.loc 1 92 5
 1258 0242 1305A016 		li	a0,362
 1259 0246 97000000 		call	LCD_Write_Bus
 1259      E7800000 
 1260              	.LVL111:
 1261              	.LBE257:
 1262              	.LBE256:
 257:lcd.c         **** 
 258:lcd.c         **** 	LCD_WR_REG(0xC4);
 1263              		.loc 1 258 2
 1264              	.LBB258:
 1265              	.LBB259:
 120:lcd.c         **** }
 1266              		.loc 1 120 5
 1267 024e 1305400C 		li	a0,196
 1268 0252 97000000 		call	LCD_Write_Bus
 1268      E7800000 
 1269              	.LVL112:
 1270              	.LBE259:
 1271              	.LBE258:
 259:lcd.c         **** 	LCD_WR_DATA8(0x8D); 
 1272              		.loc 1 259 2
 1273              	.LBB260:
 1274              	.LBB261:
  92:lcd.c         **** }
 1275              		.loc 1 92 5
 1276 025a 1305D018 		li	a0,397
 1277 025e 97000000 		call	LCD_Write_Bus
 1277      E7800000 
GAS LISTING C:\Users\Duckb\AppData\Local\Temp\ccEgig1L.s 			page 31


 1278              	.LVL113:
 1279              	.LBE261:
 1280              	.LBE260:
 260:lcd.c         **** 	LCD_WR_DATA8(0xEE); 
 1281              		.loc 1 260 2
 1282              	.LBB262:
 1283              	.LBB263:
  92:lcd.c         **** }
 1284              		.loc 1 92 5
 1285 0266 1305E01E 		li	a0,494
 1286 026a 97000000 		call	LCD_Write_Bus
 1286      E7800000 
 1287              	.LVL114:
 1288              	.LBE263:
 1289              	.LBE262:
 261:lcd.c         **** 
 262:lcd.c         **** 	LCD_WR_REG(0xC5);  /*VCOM*/
 1290              		.loc 1 262 2
 1291              	.LBB264:
 1292              	.LBB265:
 120:lcd.c         **** }
 1293              		.loc 1 120 5
 1294 0272 1305500C 		li	a0,197
 1295 0276 97000000 		call	LCD_Write_Bus
 1295      E7800000 
 1296              	.LVL115:
 1297              	.LBE265:
 1298              	.LBE264:
 263:lcd.c         **** 	LCD_WR_DATA8(0x0E);    
 1299              		.loc 1 263 2
 1300              	.LBB266:
 1301              	.LBB267:
  92:lcd.c         **** }
 1302              		.loc 1 92 5
 1303 027e 1305E010 		li	a0,270
 1304 0282 97000000 		call	LCD_Write_Bus
 1304      E7800000 
 1305              	.LVL116:
 1306              	.LBE267:
 1307              	.LBE266:
 264:lcd.c         **** 
 265:lcd.c         **** 	LCD_WR_REG(0xE0);  //Gamma correction
 1308              		.loc 1 265 2
 1309              	.LBB268:
 1310              	.LBB269:
 120:lcd.c         **** }
 1311              		.loc 1 120 5
 1312 028a 1305000E 		li	a0,224
 1313 028e 97000000 		call	LCD_Write_Bus
 1313      E7800000 
 1314              	.LVL117:
 1315              	.LBE269:
 1316              	.LBE268:
 266:lcd.c         **** 	LCD_WR_DATA8(0x10);
 1317              		.loc 1 266 2
 1318              	.LBB270:
 1319              	.LBB271:
GAS LISTING C:\Users\Duckb\AppData\Local\Temp\ccEgig1L.s 			page 32


  92:lcd.c         **** }
 1320              		.loc 1 92 5
 1321 0296 13050011 		li	a0,272
 1322 029a 97000000 		call	LCD_Write_Bus
 1322      E7800000 
 1323              	.LVL118:
 1324              	.LBE271:
 1325              	.LBE270:
 267:lcd.c         **** 	LCD_WR_DATA8(0x0E);
 1326              		.loc 1 267 2
 1327              	.LBB272:
 1328              	.LBB273:
  92:lcd.c         **** }
 1329              		.loc 1 92 5
 1330 02a2 1305E010 		li	a0,270
 1331 02a6 97000000 		call	LCD_Write_Bus
 1331      E7800000 
 1332              	.LVL119:
 1333              	.LBE273:
 1334              	.LBE272:
 268:lcd.c         **** 	LCD_WR_DATA8(0x02);
 1335              		.loc 1 268 2
 1336              	.LBB274:
 1337              	.LBB275:
  92:lcd.c         **** }
 1338              		.loc 1 92 5
 1339 02ae 13052010 		li	a0,258
 1340 02b2 97000000 		call	LCD_Write_Bus
 1340      E7800000 
 1341              	.LVL120:
 1342              	.LBE275:
 1343              	.LBE274:
 269:lcd.c         **** 	LCD_WR_DATA8(0x03);
 1344              		.loc 1 269 2
 1345              	.LBB276:
 1346              	.LBB277:
  92:lcd.c         **** }
 1347              		.loc 1 92 5
 1348 02ba 13053010 		li	a0,259
 1349 02be 97000000 		call	LCD_Write_Bus
 1349      E7800000 
 1350              	.LVL121:
 1351              	.LBE277:
 1352              	.LBE276:
 270:lcd.c         **** 	LCD_WR_DATA8(0x0E);
 1353              		.loc 1 270 2
 1354              	.LBB278:
 1355              	.LBB279:
  92:lcd.c         **** }
 1356              		.loc 1 92 5
 1357 02c6 1305E010 		li	a0,270
 1358 02ca 97000000 		call	LCD_Write_Bus
 1358      E7800000 
 1359              	.LVL122:
 1360              	.LBE279:
 1361              	.LBE278:
 271:lcd.c         **** 	LCD_WR_DATA8(0x07);
GAS LISTING C:\Users\Duckb\AppData\Local\Temp\ccEgig1L.s 			page 33


 1362              		.loc 1 271 2
 1363              	.LBB280:
 1364              	.LBB281:
  92:lcd.c         **** }
 1365              		.loc 1 92 5
 1366 02d2 13057010 		li	a0,263
 1367 02d6 97000000 		call	LCD_Write_Bus
 1367      E7800000 
 1368              	.LVL123:
 1369              	.LBE281:
 1370              	.LBE280:
 272:lcd.c         **** 	LCD_WR_DATA8(0x02);
 1371              		.loc 1 272 2
 1372              	.LBB282:
 1373              	.LBB283:
  92:lcd.c         **** }
 1374              		.loc 1 92 5
 1375 02de 13052010 		li	a0,258
 1376 02e2 97000000 		call	LCD_Write_Bus
 1376      E7800000 
 1377              	.LVL124:
 1378              	.LBE283:
 1379              	.LBE282:
 273:lcd.c         **** 	LCD_WR_DATA8(0x07);
 1380              		.loc 1 273 2
 1381              	.LBB284:
 1382              	.LBB285:
  92:lcd.c         **** }
 1383              		.loc 1 92 5
 1384 02ea 13057010 		li	a0,263
 1385 02ee 97000000 		call	LCD_Write_Bus
 1385      E7800000 
 1386              	.LVL125:
 1387              	.LBE285:
 1388              	.LBE284:
 274:lcd.c         **** 	LCD_WR_DATA8(0x0A);
 1389              		.loc 1 274 2
 1390              	.LBB286:
 1391              	.LBB287:
  92:lcd.c         **** }
 1392              		.loc 1 92 5
 1393 02f6 1305A010 		li	a0,266
 1394 02fa 97000000 		call	LCD_Write_Bus
 1394      E7800000 
 1395              	.LVL126:
 1396              	.LBE287:
 1397              	.LBE286:
 275:lcd.c         **** 	LCD_WR_DATA8(0x12);
 1398              		.loc 1 275 2
 1399              	.LBB288:
 1400              	.LBB289:
  92:lcd.c         **** }
 1401              		.loc 1 92 5
 1402 0302 13052011 		li	a0,274
 1403 0306 97000000 		call	LCD_Write_Bus
 1403      E7800000 
 1404              	.LVL127:
GAS LISTING C:\Users\Duckb\AppData\Local\Temp\ccEgig1L.s 			page 34


 1405              	.LBE289:
 1406              	.LBE288:
 276:lcd.c         **** 	LCD_WR_DATA8(0x27);
 1407              		.loc 1 276 2
 1408              	.LBB290:
 1409              	.LBB291:
  92:lcd.c         **** }
 1410              		.loc 1 92 5
 1411 030e 13057012 		li	a0,295
 1412 0312 97000000 		call	LCD_Write_Bus
 1412      E7800000 
 1413              	.LVL128:
 1414              	.LBE291:
 1415              	.LBE290:
 277:lcd.c         **** 	LCD_WR_DATA8(0x37);
 1416              		.loc 1 277 2
 1417              	.LBB292:
 1418              	.LBB293:
  92:lcd.c         **** }
 1419              		.loc 1 92 5
 1420 031a 13057013 		li	a0,311
 1421 031e 97000000 		call	LCD_Write_Bus
 1421      E7800000 
 1422              	.LVL129:
 1423              	.LBE293:
 1424              	.LBE292:
 278:lcd.c         **** 	LCD_WR_DATA8(0x00);
 1425              		.loc 1 278 2
 1426              	.LBB294:
 1427              	.LBB295:
  92:lcd.c         **** }
 1428              		.loc 1 92 5
 1429 0326 13050010 		li	a0,256
 1430 032a 97000000 		call	LCD_Write_Bus
 1430      E7800000 
 1431              	.LVL130:
 1432              	.LBE295:
 1433              	.LBE294:
 279:lcd.c         **** 	LCD_WR_DATA8(0x0D);
 1434              		.loc 1 279 2
 1435              	.LBB296:
 1436              	.LBB297:
  92:lcd.c         **** }
 1437              		.loc 1 92 5
 1438 0332 1305D010 		li	a0,269
 1439 0336 97000000 		call	LCD_Write_Bus
 1439      E7800000 
 1440              	.LVL131:
 1441              	.LBE297:
 1442              	.LBE296:
 280:lcd.c         **** 	LCD_WR_DATA8(0x0E);
 1443              		.loc 1 280 2
 1444              	.LBB298:
 1445              	.LBB299:
  92:lcd.c         **** }
 1446              		.loc 1 92 5
 1447 033e 1305E010 		li	a0,270
GAS LISTING C:\Users\Duckb\AppData\Local\Temp\ccEgig1L.s 			page 35


 1448 0342 97000000 		call	LCD_Write_Bus
 1448      E7800000 
 1449              	.LVL132:
 1450              	.LBE299:
 1451              	.LBE298:
 281:lcd.c         **** 	LCD_WR_DATA8(0x10);
 1452              		.loc 1 281 2
 1453              	.LBB300:
 1454              	.LBB301:
  92:lcd.c         **** }
 1455              		.loc 1 92 5
 1456 034a 13050011 		li	a0,272
 1457 034e 97000000 		call	LCD_Write_Bus
 1457      E7800000 
 1458              	.LVL133:
 1459              	.LBE301:
 1460              	.LBE300:
 282:lcd.c         **** 
 283:lcd.c         **** 	LCD_WR_REG(0xE1);
 1461              		.loc 1 283 2
 1462              	.LBB302:
 1463              	.LBB303:
 120:lcd.c         **** }
 1464              		.loc 1 120 5
 1465 0356 1305100E 		li	a0,225
 1466 035a 97000000 		call	LCD_Write_Bus
 1466      E7800000 
 1467              	.LVL134:
 1468              	.LBE303:
 1469              	.LBE302:
 284:lcd.c         **** 	LCD_WR_DATA8(0x10);
 1470              		.loc 1 284 2
 1471              	.LBB304:
 1472              	.LBB305:
  92:lcd.c         **** }
 1473              		.loc 1 92 5
 1474 0362 13050011 		li	a0,272
 1475 0366 97000000 		call	LCD_Write_Bus
 1475      E7800000 
 1476              	.LVL135:
 1477              	.LBE305:
 1478              	.LBE304:
 285:lcd.c         **** 	LCD_WR_DATA8(0x0E);
 1479              		.loc 1 285 2
 1480              	.LBB306:
 1481              	.LBB307:
  92:lcd.c         **** }
 1482              		.loc 1 92 5
 1483 036e 1305E010 		li	a0,270
 1484 0372 97000000 		call	LCD_Write_Bus
 1484      E7800000 
 1485              	.LVL136:
 1486              	.LBE307:
 1487              	.LBE306:
 286:lcd.c         **** 	LCD_WR_DATA8(0x03);
 1488              		.loc 1 286 2
 1489              	.LBB308:
GAS LISTING C:\Users\Duckb\AppData\Local\Temp\ccEgig1L.s 			page 36


 1490              	.LBB309:
  92:lcd.c         **** }
 1491              		.loc 1 92 5
 1492 037a 13053010 		li	a0,259
 1493 037e 97000000 		call	LCD_Write_Bus
 1493      E7800000 
 1494              	.LVL137:
 1495              	.LBE309:
 1496              	.LBE308:
 287:lcd.c         **** 	LCD_WR_DATA8(0x03);
 1497              		.loc 1 287 2
 1498              	.LBB310:
 1499              	.LBB311:
  92:lcd.c         **** }
 1500              		.loc 1 92 5
 1501 0386 13053010 		li	a0,259
 1502 038a 97000000 		call	LCD_Write_Bus
 1502      E7800000 
 1503              	.LVL138:
 1504              	.LBE311:
 1505              	.LBE310:
 288:lcd.c         **** 	LCD_WR_DATA8(0x0F);
 1506              		.loc 1 288 2
 1507              	.LBB312:
 1508              	.LBB313:
  92:lcd.c         **** }
 1509              		.loc 1 92 5
 1510 0392 1305F010 		li	a0,271
 1511 0396 97000000 		call	LCD_Write_Bus
 1511      E7800000 
 1512              	.LVL139:
 1513              	.LBE313:
 1514              	.LBE312:
 289:lcd.c         **** 	LCD_WR_DATA8(0x06);
 1515              		.loc 1 289 2
 1516              	.LBB314:
 1517              	.LBB315:
  92:lcd.c         **** }
 1518              		.loc 1 92 5
 1519 039e 13056010 		li	a0,262
 1520 03a2 97000000 		call	LCD_Write_Bus
 1520      E7800000 
 1521              	.LVL140:
 1522              	.LBE315:
 1523              	.LBE314:
 290:lcd.c         **** 	LCD_WR_DATA8(0x02);
 1524              		.loc 1 290 2
 1525              	.LBB316:
 1526              	.LBB317:
  92:lcd.c         **** }
 1527              		.loc 1 92 5
 1528 03aa 13052010 		li	a0,258
 1529 03ae 97000000 		call	LCD_Write_Bus
 1529      E7800000 
 1530              	.LVL141:
 1531              	.LBE317:
 1532              	.LBE316:
GAS LISTING C:\Users\Duckb\AppData\Local\Temp\ccEgig1L.s 			page 37


 291:lcd.c         **** 	LCD_WR_DATA8(0x08);
 1533              		.loc 1 291 2
 1534              	.LBB318:
 1535              	.LBB319:
  92:lcd.c         **** }
 1536              		.loc 1 92 5
 1537 03b6 13058010 		li	a0,264
 1538 03ba 97000000 		call	LCD_Write_Bus
 1538      E7800000 
 1539              	.LVL142:
 1540              	.LBE319:
 1541              	.LBE318:
 292:lcd.c         **** 	LCD_WR_DATA8(0x0A);
 1542              		.loc 1 292 2
 1543              	.LBB320:
 1544              	.LBB321:
  92:lcd.c         **** }
 1545              		.loc 1 92 5
 1546 03c2 1305A010 		li	a0,266
 1547 03c6 97000000 		call	LCD_Write_Bus
 1547      E7800000 
 1548              	.LVL143:
 1549              	.LBE321:
 1550              	.LBE320:
 293:lcd.c         **** 	LCD_WR_DATA8(0x13);
 1551              		.loc 1 293 2
 1552              	.LBB322:
 1553              	.LBB323:
  92:lcd.c         **** }
 1554              		.loc 1 92 5
 1555 03ce 13053011 		li	a0,275
 1556 03d2 97000000 		call	LCD_Write_Bus
 1556      E7800000 
 1557              	.LVL144:
 1558              	.LBE323:
 1559              	.LBE322:
 294:lcd.c         **** 	LCD_WR_DATA8(0x26);
 1560              		.loc 1 294 2
 1561              	.LBB324:
 1562              	.LBB325:
  92:lcd.c         **** }
 1563              		.loc 1 92 5
 1564 03da 13056012 		li	a0,294
 1565 03de 97000000 		call	LCD_Write_Bus
 1565      E7800000 
 1566              	.LVL145:
 1567              	.LBE325:
 1568              	.LBE324:
 295:lcd.c         **** 	LCD_WR_DATA8(0x36);
 1569              		.loc 1 295 2
 1570              	.LBB326:
 1571              	.LBB327:
  92:lcd.c         **** }
 1572              		.loc 1 92 5
 1573 03e6 13056013 		li	a0,310
 1574 03ea 97000000 		call	LCD_Write_Bus
 1574      E7800000 
GAS LISTING C:\Users\Duckb\AppData\Local\Temp\ccEgig1L.s 			page 38


 1575              	.LVL146:
 1576              	.LBE327:
 1577              	.LBE326:
 296:lcd.c         **** 	LCD_WR_DATA8(0x00);
 1578              		.loc 1 296 2
 1579              	.LBB328:
 1580              	.LBB329:
  92:lcd.c         **** }
 1581              		.loc 1 92 5
 1582 03f2 13050010 		li	a0,256
 1583 03f6 97000000 		call	LCD_Write_Bus
 1583      E7800000 
 1584              	.LVL147:
 1585              	.LBE329:
 1586              	.LBE328:
 297:lcd.c         **** 	LCD_WR_DATA8(0x0D);
 1587              		.loc 1 297 2
 1588              	.LBB330:
 1589              	.LBB331:
  92:lcd.c         **** }
 1590              		.loc 1 92 5
 1591 03fe 1305D010 		li	a0,269
 1592 0402 97000000 		call	LCD_Write_Bus
 1592      E7800000 
 1593              	.LVL148:
 1594              	.LBE331:
 1595              	.LBE330:
 298:lcd.c         **** 	LCD_WR_DATA8(0x0E);
 1596              		.loc 1 298 2
 1597              	.LBB332:
 1598              	.LBB333:
  92:lcd.c         **** }
 1599              		.loc 1 92 5
 1600 040a 1305E010 		li	a0,270
 1601 040e 97000000 		call	LCD_Write_Bus
 1601      E7800000 
 1602              	.LVL149:
 1603              	.LBE333:
 1604              	.LBE332:
 299:lcd.c         **** 	LCD_WR_DATA8(0x10);
 1605              		.loc 1 299 2
 1606              	.LBB334:
 1607              	.LBB335:
  92:lcd.c         **** }
 1608              		.loc 1 92 5
 1609 0416 13050011 		li	a0,272
 1610 041a 97000000 		call	LCD_Write_Bus
 1610      E7800000 
 1611              	.LVL150:
 1612              	.LBE335:
 1613              	.LBE334:
 300:lcd.c         **** 
 301:lcd.c         **** 	LCD_WR_REG(0x3A);  //Set color resolution
 1614              		.loc 1 301 2
 1615              	.LBB336:
 1616              	.LBB337:
 120:lcd.c         **** }
GAS LISTING C:\Users\Duckb\AppData\Local\Temp\ccEgig1L.s 			page 39


 1617              		.loc 1 120 5
 1618 0422 1305A003 		li	a0,58
 1619 0426 97000000 		call	LCD_Write_Bus
 1619      E7800000 
 1620              	.LVL151:
 1621              	.LBE337:
 1622              	.LBE336:
 302:lcd.c         **** 	LCD_WR_DATA8(0x05);//16 bit color
 1623              		.loc 1 302 2
 1624              	.LBB338:
 1625              	.LBB339:
  92:lcd.c         **** }
 1626              		.loc 1 92 5
 1627 042e 13055010 		li	a0,261
 1628 0432 97000000 		call	LCD_Write_Bus
 1628      E7800000 
 1629              	.LVL152:
 1630              	.LBE339:
 1631              	.LBE338:
 303:lcd.c         **** 
 304:lcd.c         **** 	LCD_WR_REG(0x36); //Data access mode
 1632              		.loc 1 304 2
 1633              	.LBB340:
 1634              	.LBB341:
 120:lcd.c         **** }
 1635              		.loc 1 120 5
 1636 043a 13056003 		li	a0,54
 1637 043e 97000000 		call	LCD_Write_Bus
 1637      E7800000 
 1638              	.LVL153:
 1639              	.LBE341:
 1640              	.LBE340:
 305:lcd.c         **** 	LCD_WR_DATA8(0x78);
 1641              		.loc 1 305 2
 1642              	.LBB342:
 1643              	.LBB343:
  92:lcd.c         **** }
 1644              		.loc 1 92 5
 1645 0446 13058017 		li	a0,376
 1646 044a 97000000 		call	LCD_Write_Bus
 1646      E7800000 
 1647              	.LVL154:
 1648              	.LBE343:
 1649              	.LBE342:
 306:lcd.c         **** 	LCD_WR_REG(0x29); 
 1650              		.loc 1 306 2
 1651              	.LBB344:
 1652              	.LBB345:
 120:lcd.c         **** }
 1653              		.loc 1 120 5
 1654              	.LBE345:
 1655              	.LBE344:
 307:lcd.c         **** } 
 1656              		.loc 1 307 1 is_stmt 0
 1657 0452 2244     		lw	s0,8(sp)
 1658              		.cfi_restore 8
 1659 0454 B240     		lw	ra,12(sp)
GAS LISTING C:\Users\Duckb\AppData\Local\Temp\ccEgig1L.s 			page 40


 1660              		.cfi_restore 1
 1661              	.LBB348:
 1662              	.LBB346:
 120:lcd.c         **** }
 1663              		.loc 1 120 5
 1664 0456 13059002 		li	a0,41
 1665              	.LBE346:
 1666              	.LBE348:
 1667              		.loc 1 307 1
 1668 045a 4101     		addi	sp,sp,16
 1669              	.LCFI21:
 1670              		.cfi_def_cfa_offset 0
 1671              	.LBB349:
 1672              	.LBB347:
 120:lcd.c         **** }
 1673              		.loc 1 120 5
 1674 045c 17030000 		tail	LCD_Write_Bus
 1674      67000300 
 1675              	.LVL155:
 1676              	.LBE347:
 1677              	.LBE349:
 1678              		.cfi_endproc
 1679              	.LFE13:
 1681              		.section	.text.LCD_Clear,"ax",@progbits
 1682              		.align	1
 1683              		.globl	LCD_Clear
 1685              	LCD_Clear:
 1686              	.LFB14:
 308:lcd.c         **** 
 309:lcd.c         **** 
 310:lcd.c         **** /*
 311:lcd.c         ****   Function description: LCD clear screen function
 312:lcd.c         ****   Entry data: Color: color to set as background
 313:lcd.c         ****   Return value: None
 314:lcd.c         **** */
 315:lcd.c         **** void LCD_Clear(u16 Color)
 316:lcd.c         **** {
 1687              		.loc 1 316 1 is_stmt 1
 1688              		.cfi_startproc
 1689              	.LVL156:
 317:lcd.c         **** 	u16 i,j;  	
 1690              		.loc 1 317 2
 318:lcd.c         **** 	LCD_Address_Set(0,0,LCD_W-1,LCD_H-1);
 1691              		.loc 1 318 2
 316:lcd.c         **** 	u16 i,j;  	
 1692              		.loc 1 316 1 is_stmt 0
 1693 0000 4111     		addi	sp,sp,-16
 1694              	.LCFI22:
 1695              		.cfi_def_cfa_offset 16
 1696 0002 4AC0     		sw	s2,0(sp)
 1697              		.loc 1 318 2
 1698 0004 9306F004 		li	a3,79
 1699              		.cfi_offset 18, -16
 316:lcd.c         **** 	u16 i,j;  	
 1700              		.loc 1 316 1
 1701 0008 2A89     		mv	s2,a0
 1702              		.loc 1 318 2
GAS LISTING C:\Users\Duckb\AppData\Local\Temp\ccEgig1L.s 			page 41


 1703 000a 1306F009 		li	a2,159
 1704 000e 8145     		li	a1,0
 1705 0010 0145     		li	a0,0
 1706              	.LVL157:
 316:lcd.c         **** 	u16 i,j;  	
 1707              		.loc 1 316 1
 1708 0012 26C2     		sw	s1,4(sp)
 1709 0014 06C6     		sw	ra,12(sp)
 1710 0016 22C4     		sw	s0,8(sp)
 1711              		.cfi_offset 9, -12
 1712              		.cfi_offset 1, -4
 1713              		.cfi_offset 8, -8
 1714              		.loc 1 318 2
 1715 0018 9304000A 		li	s1,160
 1716 001c 97000000 		call	LCD_Address_Set
 1716      E7800000 
 1717              	.LVL158:
 319:lcd.c         ****     for(i=0;i<LCD_W;i++)
 1718              		.loc 1 319 5 is_stmt 1
 1719              	.L51:
 316:lcd.c         **** 	u16 i,j;  	
 1720              		.loc 1 316 1 is_stmt 0
 1721 0024 13040005 		li	s0,80
 1722              	.LVL159:
 1723              	.L52:
 320:lcd.c         **** 	  {
 321:lcd.c         **** 			for (j=0;j<LCD_H;j++)
 322:lcd.c         **** 				{
 323:lcd.c         **** 					LCD_WR_DATA(Color);
 1724              		.loc 1 323 6 is_stmt 1 discriminator 3
 1725 0028 4A85     		mv	a0,s2
 1726 002a 7D14     		addi	s0,s0,-1
 1727              	.LVL160:
 1728 002c 97000000 		call	LCD_WR_DATA
 1728      E7800000 
 1729              	.LVL161:
 321:lcd.c         **** 				{
 1730              		.loc 1 321 4 is_stmt 0 discriminator 3
 1731 0034 75F8     		bne	s0,zero,.L52
 1732              	.LVL162:
 1733 0036 FD14     		addi	s1,s1,-1
 1734              	.LVL163:
 319:lcd.c         ****     for(i=0;i<LCD_W;i++)
 1735              		.loc 1 319 5 discriminator 2
 1736 0038 F5F4     		bne	s1,zero,.L51
 324:lcd.c         **** 				}
 325:lcd.c         **** 	  }
 326:lcd.c         **** }
 1737              		.loc 1 326 1
 1738 003a B240     		lw	ra,12(sp)
 1739              		.cfi_restore 1
 1740 003c 2244     		lw	s0,8(sp)
 1741              		.cfi_restore 8
 1742 003e 9244     		lw	s1,4(sp)
 1743              		.cfi_restore 9
 1744              	.LVL164:
 1745 0040 0249     		lw	s2,0(sp)
GAS LISTING C:\Users\Duckb\AppData\Local\Temp\ccEgig1L.s 			page 42


 1746              		.cfi_restore 18
 1747              	.LVL165:
 1748 0042 4101     		addi	sp,sp,16
 1749              	.LCFI23:
 1750              		.cfi_def_cfa_offset 0
 1751 0044 8280     		jr	ra
 1752              		.cfi_endproc
 1753              	.LFE14:
 1755              		.section	.text.LCD_ShowChinese,"ax",@progbits
 1756              		.align	1
 1757              		.globl	LCD_ShowChinese
 1759              	LCD_ShowChinese:
 1760              	.LFB15:
 327:lcd.c         **** 
 328:lcd.c         **** 
 329:lcd.c         **** /*
 330:lcd.c         ****   Function description: LCD display Chinese characters
 331:lcd.c         ****   Entry data:  x, y: start coordinates
 332:lcd.c         ****               index: Chinese character number
 333:lcd.c         ****                size: font size
 334:lcd.c         ****   Return value: None
 335:lcd.c         **** */
 336:lcd.c         **** void LCD_ShowChinese(u16 x,u16 y,u8 index,u8 size,u16 color)	
 337:lcd.c         **** {  
 1761              		.loc 1 337 1 is_stmt 1
 1762              		.cfi_startproc
 1763              	.LVL166:
 338:lcd.c         **** 	u8 i,j;
 1764              		.loc 1 338 2
 339:lcd.c         **** 	u8 *temp,size1;
 1765              		.loc 1 339 2
 340:lcd.c         **** 	if(size==16){temp=Hzk16;}               // Choose a font size
 1766              		.loc 1 340 2
 341:lcd.c         **** 	if(size==32){temp=Hzk32;}
 1767              		.loc 1 341 2
 337:lcd.c         **** 	u8 i,j;
 1768              		.loc 1 337 1 is_stmt 0
 1769 0000 0111     		addi	sp,sp,-32
 1770              	.LCFI24:
 1771              		.cfi_def_cfa_offset 32
 1772 0002 22CC     		sw	s0,24(sp)
 1773 0004 4AC8     		sw	s2,16(sp)
 1774 0006 4EC6     		sw	s3,12(sp)
 1775 0008 06CE     		sw	ra,28(sp)
 1776 000a 26CA     		sw	s1,20(sp)
 1777 000c 52C4     		sw	s4,8(sp)
 1778 000e 56C2     		sw	s5,4(sp)
 1779              		.cfi_offset 8, -8
 1780              		.cfi_offset 18, -16
 1781              		.cfi_offset 19, -20
 1782              		.cfi_offset 1, -4
 1783              		.cfi_offset 9, -12
 1784              		.cfi_offset 20, -24
 1785              		.cfi_offset 21, -28
 1786              		.loc 1 341 4
 1787 0010 93070002 		li	a5,32
 337:lcd.c         **** 	u8 i,j;
GAS LISTING C:\Users\Duckb\AppData\Local\Temp\ccEgig1L.s 			page 43


 1788              		.loc 1 337 1
 1789 0014 B289     		mv	s3,a2
 1790 0016 3684     		mv	s0,a3
 1791 0018 3A89     		mv	s2,a4
 1792              		.loc 1 341 4
 1793 001a 6397F604 		bne	a3,a5,.L62
 1794              		.loc 1 341 19
 1795 001e B7040000 		lui	s1,%hi(.LANCHOR5)
 1796 0022 93840400 		addi	s1,s1,%lo(.LANCHOR5)
 1797              	.L57:
 1798              	.LVL167:
 342:lcd.c         ****     LCD_Address_Set(x,y,x+size-1,y+size-1); // Set a region of Chinese characters
 1799              		.loc 1 342 5 is_stmt 1
 1800 0026 9386F5FF 		addi	a3,a1,-1
 1801              	.LVL168:
 1802 002a 1306F5FF 		addi	a2,a0,-1
 1803              	.LVL169:
 1804 002e A296     		add	a3,a3,s0
 1805 0030 2296     		add	a2,a2,s0
 343:lcd.c         ****     size1=size*size/8;                      // The bytes occupied by a Chinese character
 1806              		.loc 1 343 15 is_stmt 0
 1807 0032 33048402 		mul	s0,s0,s0
 342:lcd.c         ****     LCD_Address_Set(x,y,x+size-1,y+size-1); // Set a region of Chinese characters
 1808              		.loc 1 342 5
 1809 0036 97000000 		call	LCD_Address_Set
 1809      E7800000 
 1810              	.LVL170:
 1811              		.loc 1 343 5 is_stmt 1
 344:lcd.c         **** 	temp+=index*size1;                      // Start of writing
 345:lcd.c         **** 	for(j=0;j<size1;j++)
 346:lcd.c         **** 	{
 347:lcd.c         **** 		for(i=0;i<8;i++)
 348:lcd.c         **** 		{
 349:lcd.c         **** 		 	if((*temp&(1<<i))!=0) {         // Read from the lower bit of the data
 350:lcd.c         **** 				LCD_WR_DATA(color);         // set dot color
 351:lcd.c         **** 			}
 352:lcd.c         **** 			else
 353:lcd.c         **** 			{
 354:lcd.c         **** 				LCD_WR_DATA(BACK_COLOR);    // set dot color to background
 1812              		.loc 1 354 5 is_stmt 0
 1813 003e 370A0000 		lui	s4,%hi(BACK_COLOR)
 347:lcd.c         **** 		{
 1814              		.loc 1 347 3
 1815 0042 A14A     		li	s5,8
 343:lcd.c         ****     size1=size*size/8;                      // The bytes occupied by a Chinese character
 1816              		.loc 1 343 20
 1817 0044 0D84     		srai	s0,s0,3
 1818              	.LVL171:
 344:lcd.c         **** 	temp+=index*size1;                      // Start of writing
 1819              		.loc 1 344 2 is_stmt 1
 344:lcd.c         **** 	temp+=index*size1;                      // Start of writing
 1820              		.loc 1 344 13 is_stmt 0
 1821 0046 1374F40F 		andi	s0,s0,255
 1822              	.LVL172:
 1823 004a B3093403 		mul	s3,s0,s3
 344:lcd.c         **** 	temp+=index*size1;                      // Start of writing
 1824              		.loc 1 344 6
GAS LISTING C:\Users\Duckb\AppData\Local\Temp\ccEgig1L.s 			page 44


 1825 004e CE94     		add	s1,s1,s3
 1826              	.LVL173:
 345:lcd.c         **** 	{
 1827              		.loc 1 345 2 is_stmt 1
 1828 0050 2694     		add	s0,s1,s0
 1829              	.L58:
 345:lcd.c         **** 	{
 1830              		.loc 1 345 2 is_stmt 0 discriminator 1
 1831 0052 63908402 		bne	s1,s0,.L63
 355:lcd.c         **** 			}
 356:lcd.c         **** 		}
 357:lcd.c         **** 		temp++;
 358:lcd.c         **** 	 }
 359:lcd.c         **** }
 1832              		.loc 1 359 1
 1833 0056 F240     		lw	ra,28(sp)
 1834              		.cfi_remember_state
 1835              		.cfi_restore 1
 1836 0058 6244     		lw	s0,24(sp)
 1837              		.cfi_restore 8
 1838 005a D244     		lw	s1,20(sp)
 1839              		.cfi_restore 9
 1840              	.LVL174:
 1841 005c 4249     		lw	s2,16(sp)
 1842              		.cfi_restore 18
 1843              	.LVL175:
 1844 005e B249     		lw	s3,12(sp)
 1845              		.cfi_restore 19
 1846 0060 224A     		lw	s4,8(sp)
 1847              		.cfi_restore 20
 1848 0062 924A     		lw	s5,4(sp)
 1849              		.cfi_restore 21
 1850 0064 0561     		addi	sp,sp,32
 1851              	.LCFI25:
 1852              		.cfi_def_cfa_offset 0
 1853 0066 8280     		jr	ra
 1854              	.LVL176:
 1855              	.L62:
 1856              	.LCFI26:
 1857              		.cfi_restore_state
 1858 0068 B7040000 		lui	s1,%hi(.LANCHOR4)
 1859 006c 93840400 		addi	s1,s1,%lo(.LANCHOR4)
 1860 0070 5DBF     		j	.L57
 1861              	.LVL177:
 1862              	.L63:
 1863 0072 8149     		li	s3,0
 1864              	.L61:
 1865              	.LVL178:
 349:lcd.c         **** 				LCD_WR_DATA(color);         // set dot color
 1866              		.loc 1 349 5 is_stmt 1
 349:lcd.c         **** 				LCD_WR_DATA(color);         // set dot color
 1867              		.loc 1 349 9 is_stmt 0
 1868 0074 83C70400 		lbu	a5,0(s1)
 350:lcd.c         **** 			}
 1869              		.loc 1 350 5
 1870 0078 4A85     		mv	a0,s2
 349:lcd.c         **** 				LCD_WR_DATA(color);         // set dot color
GAS LISTING C:\Users\Duckb\AppData\Local\Temp\ccEgig1L.s 			page 45


 1871              		.loc 1 349 22
 1872 007a B3D73741 		sra	a5,a5,s3
 1873 007e 858B     		andi	a5,a5,1
 349:lcd.c         **** 				LCD_WR_DATA(color);         // set dot color
 1874              		.loc 1 349 7
 1875 0080 99E3     		bne	a5,zero,.L66
 1876              	.LVL179:
 354:lcd.c         **** 			}
 1877              		.loc 1 354 5 is_stmt 1
 1878 0082 03250A00 		lw	a0,%lo(BACK_COLOR)(s4)
 1879              	.LVL180:
 1880              	.L66:
 1881 0086 8509     		addi	s3,s3,1
 1882              	.LVL181:
 1883 0088 97000000 		call	LCD_WR_DATA
 1883      E7800000 
 1884              	.LVL182:
 347:lcd.c         **** 		{
 1885              		.loc 1 347 3 is_stmt 0
 1886 0090 E39259FF 		bne	s3,s5,.L61
 357:lcd.c         **** 	 }
 1887              		.loc 1 357 3 is_stmt 1 discriminator 2
 357:lcd.c         **** 	 }
 1888              		.loc 1 357 7 is_stmt 0 discriminator 2
 1889 0094 8504     		addi	s1,s1,1
 1890              	.LVL183:
 1891 0096 75BF     		j	.L58
 1892              		.cfi_endproc
 1893              	.LFE15:
 1895              		.section	.text.LCD_DrawPoint,"ax",@progbits
 1896              		.align	1
 1897              		.globl	LCD_DrawPoint
 1899              	LCD_DrawPoint:
 1900              	.LFB16:
 360:lcd.c         **** 
 361:lcd.c         **** 
 362:lcd.c         **** /*
 363:lcd.c         ****   Function description: LCD display Chinese characters
 364:lcd.c         ****   Entry data: x, y: start coordinates
 365:lcd.c         ****   Return value: None
 366:lcd.c         **** */
 367:lcd.c         **** void LCD_DrawPoint(u16 x,u16 y,u16 color)
 368:lcd.c         **** {
 1901              		.loc 1 368 1 is_stmt 1
 1902              		.cfi_startproc
 1903              	.LVL184:
 369:lcd.c         **** 	LCD_Address_Set(x,y,x,y); // Set cursor position
 1904              		.loc 1 369 2
 368:lcd.c         **** 	LCD_Address_Set(x,y,x,y); // Set cursor position
 1905              		.loc 1 368 1 is_stmt 0
 1906 0000 4111     		addi	sp,sp,-16
 1907              	.LCFI27:
 1908              		.cfi_def_cfa_offset 16
 1909 0002 22C4     		sw	s0,8(sp)
 1910              		.loc 1 369 2
 1911 0004 AE86     		mv	a3,a1
 1912              		.cfi_offset 8, -8
GAS LISTING C:\Users\Duckb\AppData\Local\Temp\ccEgig1L.s 			page 46


 368:lcd.c         **** 	LCD_Address_Set(x,y,x,y); // Set cursor position
 1913              		.loc 1 368 1
 1914 0006 3284     		mv	s0,a2
 1915              		.loc 1 369 2
 1916 0008 2A86     		mv	a2,a0
 1917              	.LVL185:
 368:lcd.c         **** 	LCD_Address_Set(x,y,x,y); // Set cursor position
 1918              		.loc 1 368 1
 1919 000a 06C6     		sw	ra,12(sp)
 1920              		.cfi_offset 1, -4
 1921              		.loc 1 369 2
 1922 000c 97000000 		call	LCD_Address_Set
 1922      E7800000 
 1923              	.LVL186:
 370:lcd.c         **** 	LCD_WR_DATA(color);
 1924              		.loc 1 370 2 is_stmt 1
 1925 0014 2285     		mv	a0,s0
 371:lcd.c         **** } 
 1926              		.loc 1 371 1 is_stmt 0
 1927 0016 2244     		lw	s0,8(sp)
 1928              		.cfi_restore 8
 1929              	.LVL187:
 1930 0018 B240     		lw	ra,12(sp)
 1931              		.cfi_restore 1
 1932 001a 4101     		addi	sp,sp,16
 1933              	.LCFI28:
 1934              		.cfi_def_cfa_offset 0
 370:lcd.c         **** 	LCD_WR_DATA(color);
 1935              		.loc 1 370 2
 1936 001c 17030000 		tail	LCD_WR_DATA
 1936      67000300 
 1937              	.LVL188:
 1938              		.cfi_endproc
 1939              	.LFE16:
 1941              		.section	.text.LCD_Fill,"ax",@progbits
 1942              		.align	1
 1943              		.globl	LCD_Fill
 1945              	LCD_Fill:
 1946              	.LFB18:
 372:lcd.c         **** 
 373:lcd.c         **** 
 374:lcd.c         **** /*
 375:lcd.c         ****   Function description: LCD draws a large dot
 376:lcd.c         ****   Entry data: x, y: start coordinates
 377:lcd.c         ****   Return value: None
 378:lcd.c         **** */
 379:lcd.c         **** void LCD_DrawPoint_big(u16 x,u16 y,u16 color)
 380:lcd.c         **** {
 381:lcd.c         **** 	LCD_Fill(x-1,y-1,x+1,y+1,color);
 382:lcd.c         **** } 
 383:lcd.c         **** 
 384:lcd.c         **** 
 385:lcd.c         **** /*
 386:lcd.c         ****   Function description: fill color in the specified area
 387:lcd.c         ****   Entry data: xsta, ysta:  start coordinates
 388:lcd.c         ****               xend, yend:  end coordinates
 389:lcd.c         ****   Return value: None
GAS LISTING C:\Users\Duckb\AppData\Local\Temp\ccEgig1L.s 			page 47


 390:lcd.c         **** */
 391:lcd.c         **** void LCD_Fill(u16 xsta,u16 ysta,u16 xend,u16 yend,u16 color)
 392:lcd.c         **** {          
 1947              		.loc 1 392 1 is_stmt 1
 1948              		.cfi_startproc
 1949              	.LVL189:
 393:lcd.c         **** 	u16 i,j; 
 1950              		.loc 1 393 2
 394:lcd.c         **** 	LCD_Address_Set(xsta,ysta,xend,yend);          //Set cursor position
 1951              		.loc 1 394 2
 392:lcd.c         **** 	u16 i,j; 
 1952              		.loc 1 392 1 is_stmt 0
 1953 0000 0111     		addi	sp,sp,-32
 1954              	.LCFI29:
 1955              		.cfi_def_cfa_offset 32
 1956 0002 22CC     		sw	s0,24(sp)
 1957 0004 4AC8     		sw	s2,16(sp)
 1958 0006 4EC6     		sw	s3,12(sp)
 1959 0008 52C4     		sw	s4,8(sp)
 1960 000a 56C2     		sw	s5,4(sp)
 1961 000c 06CE     		sw	ra,28(sp)
 1962 000e 26CA     		sw	s1,20(sp)
 1963              		.cfi_offset 8, -8
 1964              		.cfi_offset 18, -16
 1965              		.cfi_offset 19, -20
 1966              		.cfi_offset 20, -24
 1967              		.cfi_offset 21, -28
 1968              		.cfi_offset 1, -4
 1969              		.cfi_offset 9, -12
 392:lcd.c         **** 	u16 i,j; 
 1970              		.loc 1 392 1
 1971 0010 AA89     		mv	s3,a0
 1972 0012 2E84     		mv	s0,a1
 1973 0014 328A     		mv	s4,a2
 1974 0016 3689     		mv	s2,a3
 1975 0018 BA8A     		mv	s5,a4
 1976              		.loc 1 394 2
 1977 001a 97000000 		call	LCD_Address_Set
 1977      E7800000 
 1978              	.LVL190:
 395:lcd.c         **** 	for(i=ysta;i<=yend;i++)
 1979              		.loc 1 395 2 is_stmt 1
 1980              	.L70:
 1981              		.loc 1 395 2 is_stmt 0 discriminator 1
 1982 0022 63758902 		bleu	s0,s2,.L73
 396:lcd.c         **** 	{													   	 	
 397:lcd.c         **** 		for(j=xsta;j<=xend;j++)LCD_WR_DATA(color); //Set cursor position
 398:lcd.c         **** 	} 					  	    
 399:lcd.c         **** }
 1983              		.loc 1 399 1
 1984 0026 F240     		lw	ra,28(sp)
 1985              		.cfi_remember_state
 1986              		.cfi_restore 1
 1987 0028 6244     		lw	s0,24(sp)
 1988              		.cfi_restore 8
 1989              	.LVL191:
 1990 002a D244     		lw	s1,20(sp)
GAS LISTING C:\Users\Duckb\AppData\Local\Temp\ccEgig1L.s 			page 48


 1991              		.cfi_restore 9
 1992 002c 4249     		lw	s2,16(sp)
 1993              		.cfi_restore 18
 1994              	.LVL192:
 1995 002e B249     		lw	s3,12(sp)
 1996              		.cfi_restore 19
 1997              	.LVL193:
 1998 0030 224A     		lw	s4,8(sp)
 1999              		.cfi_restore 20
 2000              	.LVL194:
 2001 0032 924A     		lw	s5,4(sp)
 2002              		.cfi_restore 21
 2003              	.LVL195:
 2004 0034 0561     		addi	sp,sp,32
 2005              	.LCFI30:
 2006              		.cfi_def_cfa_offset 0
 2007 0036 8280     		jr	ra
 2008              	.LVL196:
 2009              	.L71:
 2010              	.LCFI31:
 2011              		.cfi_restore_state
 397:lcd.c         **** 	} 					  	    
 2012              		.loc 1 397 26 is_stmt 1 discriminator 3
 2013 0038 5685     		mv	a0,s5
 2014 003a 97000000 		call	LCD_WR_DATA
 2014      E7800000 
 2015              	.LVL197:
 397:lcd.c         **** 	} 					  	    
 2016              		.loc 1 397 23 is_stmt 0 discriminator 3
 2017 0042 8504     		addi	s1,s1,1
 2018              	.LVL198:
 2019              	.L72:
 397:lcd.c         **** 	} 					  	    
 2020              		.loc 1 397 3 discriminator 1
 2021 0044 E37A9AFE 		bleu	s1,s4,.L71
 395:lcd.c         **** 	for(i=ysta;i<=yend;i++)
 2022              		.loc 1 395 22 discriminator 2
 2023 0048 0504     		addi	s0,s0,1
 2024              	.LVL199:
 2025 004a E1BF     		j	.L70
 2026              	.LVL200:
 2027              	.L73:
 397:lcd.c         **** 	} 					  	    
 2028              		.loc 1 397 8
 2029 004c CE84     		mv	s1,s3
 2030 004e DDBF     		j	.L72
 2031              		.cfi_endproc
 2032              	.LFE18:
 2034              		.section	.text.LCD_DrawPoint_big,"ax",@progbits
 2035              		.align	1
 2036              		.globl	LCD_DrawPoint_big
 2038              	LCD_DrawPoint_big:
 2039              	.LFB17:
 380:lcd.c         **** 	LCD_Fill(x-1,y-1,x+1,y+1,color);
 2040              		.loc 1 380 1 is_stmt 1
 2041              		.cfi_startproc
 2042              	.LVL201:
GAS LISTING C:\Users\Duckb\AppData\Local\Temp\ccEgig1L.s 			page 49


 381:lcd.c         **** } 
 2043              		.loc 1 381 2
 2044 0000 3287     		mv	a4,a2
 2045 0002 93861500 		addi	a3,a1,1
 2046 0006 13061500 		addi	a2,a0,1
 2047              	.LVL202:
 2048 000a FD15     		addi	a1,a1,-1
 2049              	.LVL203:
 2050 000c 7D15     		addi	a0,a0,-1
 2051              	.LVL204:
 2052 000e 17030000 		tail	LCD_Fill
 2052      67000300 
 2053              	.LVL205:
 2054              		.cfi_endproc
 2055              	.LFE17:
 2057              		.section	.text.LCD_DrawLine,"ax",@progbits
 2058              		.align	1
 2059              		.globl	LCD_DrawLine
 2061              	LCD_DrawLine:
 2062              	.LFB19:
 400:lcd.c         **** 
 401:lcd.c         **** 
 402:lcd.c         **** /*
 403:lcd.c         ****   Function description: draw a line
 404:lcd.c         ****   Entry data: x1, y1:  start coordinates
 405:lcd.c         ****               x2, y2:  end coordinates
 406:lcd.c         ****   Return value: None
 407:lcd.c         **** ******************************************************************************/
 408:lcd.c         **** void LCD_DrawLine(u16 x1,u16 y1,u16 x2,u16 y2,u16 color)
 409:lcd.c         **** {
 2063              		.loc 1 409 1
 2064              		.cfi_startproc
 2065              	.LVL206:
 410:lcd.c         **** 	u16 t; 
 2066              		.loc 1 410 2
 411:lcd.c         **** 	int xerr=0,yerr=0,delta_x,delta_y,distance;
 2067              		.loc 1 411 2
 412:lcd.c         **** 	int incx,incy,uRow,uCol;
 2068              		.loc 1 412 2
 413:lcd.c         **** 	delta_x=x2-x1;                       // Calculate coordinate increments
 2069              		.loc 1 413 2
 409:lcd.c         **** 	u16 t; 
 2070              		.loc 1 409 1 is_stmt 0
 2071 0000 3971     		addi	sp,sp,-64
 2072              	.LCFI32:
 2073              		.cfi_def_cfa_offset 64
 2074 0002 22DC     		sw	s0,56(sp)
 2075 0004 26DA     		sw	s1,52(sp)
 2076 0006 4AD8     		sw	s2,48(sp)
 2077 0008 4ED6     		sw	s3,44(sp)
 2078 000a 62CC     		sw	s8,24(sp)
 2079 000c 06DE     		sw	ra,60(sp)
 2080 000e 52D4     		sw	s4,40(sp)
 2081 0010 56D2     		sw	s5,36(sp)
 2082 0012 5AD0     		sw	s6,32(sp)
 2083 0014 5ECE     		sw	s7,28(sp)
 2084 0016 66CA     		sw	s9,20(sp)
GAS LISTING C:\Users\Duckb\AppData\Local\Temp\ccEgig1L.s 			page 50


 2085 0018 6AC8     		sw	s10,16(sp)
 2086              		.cfi_offset 8, -8
 2087              		.cfi_offset 9, -12
 2088              		.cfi_offset 18, -16
 2089              		.cfi_offset 19, -20
 2090              		.cfi_offset 24, -40
 2091              		.cfi_offset 1, -4
 2092              		.cfi_offset 20, -24
 2093              		.cfi_offset 21, -28
 2094              		.cfi_offset 22, -32
 2095              		.cfi_offset 23, -36
 2096              		.cfi_offset 25, -44
 2097              		.cfi_offset 26, -48
 2098              		.loc 1 413 12
 2099 001a 3304A640 		sub	s0,a2,a0
 2100              	.LVL207:
 414:lcd.c         **** 	delta_y=y2-y1;
 2101              		.loc 1 414 2 is_stmt 1
 2102              		.loc 1 414 12 is_stmt 0
 2103 001e B384B640 		sub	s1,a3,a1
 2104              	.LVL208:
 415:lcd.c         **** 	uRow=x1;                             // Coordinates of starting point of drawing
 2105              		.loc 1 415 2 is_stmt 1
 2106              		.loc 1 415 6 is_stmt 0
 2107 0022 2A89     		mv	s2,a0
 2108              	.LVL209:
 416:lcd.c         **** 	uCol=y1;
 2109              		.loc 1 416 2 is_stmt 1
 2110              		.loc 1 416 6 is_stmt 0
 2111 0024 AE89     		mv	s3,a1
 2112              	.LVL210:
 417:lcd.c         **** 	if(delta_x>0)incx=1;                 // Set single step direction
 2113              		.loc 1 417 2 is_stmt 1
 2114              		.loc 1 417 19 is_stmt 0
 2115 0026 054C     		li	s8,1
 2116              		.loc 1 417 4
 2117 0028 63478000 		bgt	s0,zero,.L77
 418:lcd.c         **** 	else if (delta_x==0)incx=0;          // Vertical line
 2118              		.loc 1 418 7 is_stmt 1
 2119              		.loc 1 418 26 is_stmt 0
 2120 002c 014C     		li	s8,0
 2121              		.loc 1 418 10
 2122 002e 01C4     		beq	s0,zero,.L77
 419:lcd.c         **** 	else {incx=-1;delta_x=-delta_x;}
 2123              		.loc 1 419 8 is_stmt 1
 2124              	.LVL211:
 2125              		.loc 1 419 16
 2126              		.loc 1 419 23 is_stmt 0
 2127 0030 33048040 		neg	s0,s0
 2128              	.LVL212:
 2129              		.loc 1 419 12
 2130 0034 7D5C     		li	s8,-1
 2131              	.LVL213:
 2132              	.L77:
 420:lcd.c         **** 	if(delta_y>0)incy=1;
 2133              		.loc 1 420 2 is_stmt 1
 2134              		.loc 1 420 19 is_stmt 0
GAS LISTING C:\Users\Duckb\AppData\Local\Temp\ccEgig1L.s 			page 51


 2135 0036 854C     		li	s9,1
 2136              		.loc 1 420 4
 2137 0038 63479000 		bgt	s1,zero,.L78
 421:lcd.c         **** 	else if (delta_y==0)incy=0;          // Horizontal line
 2138              		.loc 1 421 7 is_stmt 1
 2139              		.loc 1 421 26 is_stmt 0
 2140 003c 814C     		li	s9,0
 2141              		.loc 1 421 10
 2142 003e 81C4     		beq	s1,zero,.L78
 422:lcd.c         **** 	else {incy=-1;delta_y=-delta_y;}
 2143              		.loc 1 422 8 is_stmt 1
 2144              	.LVL214:
 2145              		.loc 1 422 16
 2146              		.loc 1 422 23 is_stmt 0
 2147 0040 B3049040 		neg	s1,s1
 2148              	.LVL215:
 2149              		.loc 1 422 12
 2150 0044 FD5C     		li	s9,-1
 2151              	.LVL216:
 2152              	.L78:
 423:lcd.c         **** 	if(delta_x>delta_y)distance=delta_x; // Pick basic incremental axis
 2153              		.loc 1 423 2 is_stmt 1
 2154 0046 228A     		mv	s4,s0
 2155 0048 63539400 		bge	s0,s1,.L79
 2156 004c 268A     		mv	s4,s1
 2157              	.L79:
 2158              	.LVL217:
 424:lcd.c         **** 	else distance=delta_y;
 425:lcd.c         **** 	for(t=0;t<distance+1;t++)
 2159              		.loc 1 425 2
 411:lcd.c         **** 	int incx,incy,uRow,uCol;
 2160              		.loc 1 411 13 is_stmt 0
 2161 004e 014B     		li	s6,0
 411:lcd.c         **** 	int incx,incy,uRow,uCol;
 2162              		.loc 1 411 6
 2163 0050 814A     		li	s5,0
 2164              		.loc 1 425 7
 2165 0052 814B     		li	s7,0
 2166              		.loc 1 425 20
 2167 0054 130D1A00 		addi	s10,s4,1
 2168              	.LVL218:
 2169              	.L82:
 426:lcd.c         **** 	{
 427:lcd.c         **** 		LCD_DrawPoint(uRow,uCol,color);  // Dot
 2170              		.loc 1 427 3 is_stmt 1
 2171 0058 3A86     		mv	a2,a4
 2172 005a CE85     		mv	a1,s3
 2173 005c 4A85     		mv	a0,s2
 2174 005e 3AC6     		sw	a4,12(sp)
 428:lcd.c         **** 		xerr+=delta_x;
 2175              		.loc 1 428 7 is_stmt 0
 2176 0060 A29A     		add	s5,s5,s0
 2177              	.LVL219:
 427:lcd.c         **** 		xerr+=delta_x;
 2178              		.loc 1 427 3
 2179 0062 97000000 		call	LCD_DrawPoint
 2179      E7800000 
GAS LISTING C:\Users\Duckb\AppData\Local\Temp\ccEgig1L.s 			page 52


 2180              	.LVL220:
 2181              		.loc 1 428 3 is_stmt 1
 429:lcd.c         **** 		yerr+=delta_y;
 2182              		.loc 1 429 3
 2183              		.loc 1 429 7 is_stmt 0
 2184 006a 269B     		add	s6,s6,s1
 2185              	.LVL221:
 430:lcd.c         **** 		if(xerr>distance)
 2186              		.loc 1 430 3 is_stmt 1
 2187              		.loc 1 430 5 is_stmt 0
 2188 006c 3247     		lw	a4,12(sp)
 2189 006e 63555A01 		ble	s5,s4,.L80
 431:lcd.c         **** 		{
 432:lcd.c         **** 			xerr-=distance;
 2190              		.loc 1 432 4 is_stmt 1
 2191              		.loc 1 432 8 is_stmt 0
 2192 0072 B38A4A41 		sub	s5,s5,s4
 2193              	.LVL222:
 433:lcd.c         **** 			uRow+=incx;
 2194              		.loc 1 433 4 is_stmt 1
 2195              		.loc 1 433 8 is_stmt 0
 2196 0076 6299     		add	s2,s2,s8
 2197              	.LVL223:
 2198              	.L80:
 434:lcd.c         **** 		}
 435:lcd.c         **** 		if(yerr>distance)
 2199              		.loc 1 435 3 is_stmt 1
 2200              		.loc 1 435 5 is_stmt 0
 2201 0078 63556A01 		ble	s6,s4,.L81
 436:lcd.c         **** 		{
 437:lcd.c         **** 			yerr-=distance;
 2202              		.loc 1 437 4 is_stmt 1
 2203              		.loc 1 437 8 is_stmt 0
 2204 007c 330B4B41 		sub	s6,s6,s4
 2205              	.LVL224:
 438:lcd.c         **** 			uCol+=incy;
 2206              		.loc 1 438 4 is_stmt 1
 2207              		.loc 1 438 8 is_stmt 0
 2208 0080 E699     		add	s3,s3,s9
 2209              	.LVL225:
 2210              	.L81:
 425:lcd.c         **** 	{
 2211              		.loc 1 425 24 discriminator 2
 2212 0082 850B     		addi	s7,s7,1
 2213              	.LVL226:
 425:lcd.c         **** 	{
 2214              		.loc 1 425 2 discriminator 2
 2215 0084 E3EAABFD 		bgtu	s10,s7,.L82
 439:lcd.c         **** 		}
 440:lcd.c         **** 	}
 441:lcd.c         **** }
 2216              		.loc 1 441 1
 2217 0088 F250     		lw	ra,60(sp)
 2218              		.cfi_restore 1
 2219 008a 6254     		lw	s0,56(sp)
 2220              		.cfi_restore 8
 2221              	.LVL227:
GAS LISTING C:\Users\Duckb\AppData\Local\Temp\ccEgig1L.s 			page 53


 2222 008c D254     		lw	s1,52(sp)
 2223              		.cfi_restore 9
 2224              	.LVL228:
 2225 008e 4259     		lw	s2,48(sp)
 2226              		.cfi_restore 18
 2227              	.LVL229:
 2228 0090 B259     		lw	s3,44(sp)
 2229              		.cfi_restore 19
 2230              	.LVL230:
 2231 0092 225A     		lw	s4,40(sp)
 2232              		.cfi_restore 20
 2233              	.LVL231:
 2234 0094 925A     		lw	s5,36(sp)
 2235              		.cfi_restore 21
 2236              	.LVL232:
 2237 0096 025B     		lw	s6,32(sp)
 2238              		.cfi_restore 22
 2239              	.LVL233:
 2240 0098 F24B     		lw	s7,28(sp)
 2241              		.cfi_restore 23
 2242              	.LVL234:
 2243 009a 624C     		lw	s8,24(sp)
 2244              		.cfi_restore 24
 2245              	.LVL235:
 2246 009c D24C     		lw	s9,20(sp)
 2247              		.cfi_restore 25
 2248              	.LVL236:
 2249 009e 424D     		lw	s10,16(sp)
 2250              		.cfi_restore 26
 2251              	.LVL237:
 2252 00a0 2161     		addi	sp,sp,64
 2253              	.LCFI33:
 2254              		.cfi_def_cfa_offset 0
 2255 00a2 8280     		jr	ra
 2256              		.cfi_endproc
 2257              	.LFE19:
 2259              		.section	.text.LCD_DrawRectangle,"ax",@progbits
 2260              		.align	1
 2261              		.globl	LCD_DrawRectangle
 2263              	LCD_DrawRectangle:
 2264              	.LFB20:
 442:lcd.c         **** 
 443:lcd.c         **** 
 444:lcd.c         **** /*
 445:lcd.c         ****   Function description: draw a rectangle
 446:lcd.c         ****   Entry data: x1, y1:  start coordinates
 447:lcd.c         ****               x2, y2:  end coordinates
 448:lcd.c         ****   Return value: None
 449:lcd.c         **** */
 450:lcd.c         **** void LCD_DrawRectangle(u16 x1, u16 y1, u16 x2, u16 y2,u16 color)
 451:lcd.c         **** {
 2265              		.loc 1 451 1 is_stmt 1
 2266              		.cfi_startproc
 2267              	.LVL238:
 452:lcd.c         **** 	LCD_DrawLine(x1,y1,x2,y1,color);
 2268              		.loc 1 452 2
 451:lcd.c         **** 	LCD_DrawLine(x1,y1,x2,y1,color);
GAS LISTING C:\Users\Duckb\AppData\Local\Temp\ccEgig1L.s 			page 54


 2269              		.loc 1 451 1 is_stmt 0
 2270 0000 0111     		addi	sp,sp,-32
 2271              	.LCFI34:
 2272              		.cfi_def_cfa_offset 32
 2273 0002 22CC     		sw	s0,24(sp)
 2274              		.cfi_offset 8, -8
 2275 0004 3684     		mv	s0,a3
 2276              		.loc 1 452 2
 2277 0006 AE86     		mv	a3,a1
 2278              	.LVL239:
 451:lcd.c         **** 	LCD_DrawLine(x1,y1,x2,y1,color);
 2279              		.loc 1 451 1
 2280 0008 06CE     		sw	ra,28(sp)
 2281 000a 26CA     		sw	s1,20(sp)
 2282 000c 4AC8     		sw	s2,16(sp)
 2283 000e 4EC6     		sw	s3,12(sp)
 2284 0010 52C4     		sw	s4,8(sp)
 2285              		.cfi_offset 1, -4
 2286              		.cfi_offset 9, -12
 2287              		.cfi_offset 18, -16
 2288              		.cfi_offset 19, -20
 2289              		.cfi_offset 20, -24
 451:lcd.c         **** 	LCD_DrawLine(x1,y1,x2,y1,color);
 2290              		.loc 1 451 1
 2291 0012 AA89     		mv	s3,a0
 2292 0014 328A     		mv	s4,a2
 2293 0016 3A89     		mv	s2,a4
 2294 0018 AE84     		mv	s1,a1
 2295              		.loc 1 452 2
 2296 001a 97000000 		call	LCD_DrawLine
 2296      E7800000 
 2297              	.LVL240:
 453:lcd.c         **** 	LCD_DrawLine(x1,y1,x1,y2,color);
 2298              		.loc 1 453 2 is_stmt 1
 2299 0022 4A87     		mv	a4,s2
 2300 0024 A286     		mv	a3,s0
 2301 0026 4E86     		mv	a2,s3
 2302 0028 A685     		mv	a1,s1
 2303 002a 4E85     		mv	a0,s3
 2304 002c 97000000 		call	LCD_DrawLine
 2304      E7800000 
 2305              	.LVL241:
 454:lcd.c         **** 	LCD_DrawLine(x1,y2,x2,y2,color);
 2306              		.loc 1 454 2
 2307 0034 4A87     		mv	a4,s2
 2308 0036 A286     		mv	a3,s0
 2309 0038 5286     		mv	a2,s4
 2310 003a A285     		mv	a1,s0
 2311 003c 4E85     		mv	a0,s3
 2312 003e 97000000 		call	LCD_DrawLine
 2312      E7800000 
 2313              	.LVL242:
 455:lcd.c         **** 	LCD_DrawLine(x2,y1,x2,y2,color);
 2314              		.loc 1 455 2
 2315 0046 A286     		mv	a3,s0
 456:lcd.c         **** }
 2316              		.loc 1 456 1 is_stmt 0
GAS LISTING C:\Users\Duckb\AppData\Local\Temp\ccEgig1L.s 			page 55


 2317 0048 6244     		lw	s0,24(sp)
 2318              		.cfi_restore 8
 2319              	.LVL243:
 2320 004a F240     		lw	ra,28(sp)
 2321              		.cfi_restore 1
 2322 004c B249     		lw	s3,12(sp)
 2323              		.cfi_restore 19
 2324              	.LVL244:
 455:lcd.c         **** 	LCD_DrawLine(x2,y1,x2,y2,color);
 2325              		.loc 1 455 2
 2326 004e 4A87     		mv	a4,s2
 2327 0050 5286     		mv	a2,s4
 2328              		.loc 1 456 1
 2329 0052 4249     		lw	s2,16(sp)
 2330              		.cfi_restore 18
 2331              	.LVL245:
 455:lcd.c         **** 	LCD_DrawLine(x2,y1,x2,y2,color);
 2332              		.loc 1 455 2
 2333 0054 A685     		mv	a1,s1
 2334 0056 5285     		mv	a0,s4
 2335              		.loc 1 456 1
 2336 0058 D244     		lw	s1,20(sp)
 2337              		.cfi_restore 9
 2338              	.LVL246:
 2339 005a 224A     		lw	s4,8(sp)
 2340              		.cfi_restore 20
 2341              	.LVL247:
 2342 005c 0561     		addi	sp,sp,32
 2343              	.LCFI35:
 2344              		.cfi_def_cfa_offset 0
 455:lcd.c         **** 	LCD_DrawLine(x2,y1,x2,y2,color);
 2345              		.loc 1 455 2
 2346 005e 17030000 		tail	LCD_DrawLine
 2346      67000300 
 2347              	.LVL248:
 2348              		.cfi_endproc
 2349              	.LFE20:
 2351              		.section	.text.Draw_Circle,"ax",@progbits
 2352              		.align	1
 2353              		.globl	Draw_Circle
 2355              	Draw_Circle:
 2356              	.LFB21:
 457:lcd.c         **** 
 458:lcd.c         **** 
 459:lcd.c         **** /*
 460:lcd.c         ****   Function description: draw circle
 461:lcd.c         ****   Entry data: x0, y0:  center coordinates
 462:lcd.c         ****                    r:  radius
 463:lcd.c         ****   Return value: None
 464:lcd.c         **** */
 465:lcd.c         **** void Draw_Circle(u16 x0,u16 y0,u8 r,u16 color)
 466:lcd.c         **** {
 2357              		.loc 1 466 1 is_stmt 1
 2358              		.cfi_startproc
 2359              	.LVL249:
 467:lcd.c         **** 	int a,b;
 2360              		.loc 1 467 2
GAS LISTING C:\Users\Duckb\AppData\Local\Temp\ccEgig1L.s 			page 56


 468:lcd.c         **** 	// int di;
 469:lcd.c         **** 	a=0;b=r;	  
 2361              		.loc 1 469 2
 2362              		.loc 1 469 6
 470:lcd.c         **** 	while(a<=b)
 471:lcd.c         **** 	{
 472:lcd.c         **** 		LCD_DrawPoint(x0-b,y0-a,color);  //3           
 473:lcd.c         **** 		LCD_DrawPoint(x0+b,y0-a,color);  //0           
 474:lcd.c         **** 		LCD_DrawPoint(x0-a,y0+b,color);  //1                
 475:lcd.c         **** 		LCD_DrawPoint(x0-a,y0-b,color);  //2             
 476:lcd.c         **** 		LCD_DrawPoint(x0+b,y0+a,color);  //4               
 477:lcd.c         **** 		LCD_DrawPoint(x0+a,y0-b,color);  //5
 478:lcd.c         **** 		LCD_DrawPoint(x0+a,y0+b,color);             //6 
 479:lcd.c         **** 		LCD_DrawPoint(x0-b,y0+a,color);             //7
 480:lcd.c         **** 		a++;
 481:lcd.c         **** 		if((a*a+b*b)>(r*r)) // Determine whether the points to be drawn are too far away
 2363              		.loc 1 481 18 is_stmt 0
 2364 0000 3307C602 		mul	a4,a2,a2
 466:lcd.c         **** 	int a,b;
 2365              		.loc 1 466 1
 2366 0004 5D71     		addi	sp,sp,-80
 2367              	.LCFI36:
 2368              		.cfi_def_cfa_offset 80
 2369 0006 A2C4     		sw	s0,72(sp)
 2370 0008 A6C2     		sw	s1,68(sp)
 2371 000a CAC0     		sw	s2,64(sp)
 2372 000c 5ED6     		sw	s7,44(sp)
 2373 000e 62D4     		sw	s8,40(sp)
 2374 0010 86C6     		sw	ra,76(sp)
 2375 0012 4EDE     		sw	s3,60(sp)
 2376 0014 52DC     		sw	s4,56(sp)
 2377 0016 56DA     		sw	s5,52(sp)
 2378 0018 5AD8     		sw	s6,48(sp)
 2379 001a 66D2     		sw	s9,36(sp)
 2380 001c 6AD0     		sw	s10,32(sp)
 2381 001e 6ECE     		sw	s11,28(sp)
 2382              		.cfi_offset 8, -8
 2383              		.cfi_offset 9, -12
 2384              		.cfi_offset 18, -16
 2385              		.cfi_offset 23, -36
 2386              		.cfi_offset 24, -40
 2387              		.cfi_offset 1, -4
 2388              		.cfi_offset 19, -20
 2389              		.cfi_offset 20, -24
 2390              		.cfi_offset 21, -28
 2391              		.cfi_offset 22, -32
 2392              		.cfi_offset 25, -44
 2393              		.cfi_offset 26, -48
 2394              		.cfi_offset 27, -52
 466:lcd.c         **** 	int a,b;
 2395              		.loc 1 466 1
 2396 0020 AA8B     		mv	s7,a0
 2397 0022 2E8C     		mv	s8,a1
 2398 0024 3689     		mv	s2,a3
 469:lcd.c         **** 	while(a<=b)
 2399              		.loc 1 469 7
 2400 0026 3284     		mv	s0,a2
GAS LISTING C:\Users\Duckb\AppData\Local\Temp\ccEgig1L.s 			page 57


 2401              	.LVL250:
 470:lcd.c         **** 	while(a<=b)
 2402              		.loc 1 470 2 is_stmt 1
 469:lcd.c         **** 	while(a<=b)
 2403              		.loc 1 469 3 is_stmt 0
 2404 0028 8144     		li	s1,0
 2405              	.LVL251:
 2406              	.L95:
 2407 002a B3099C40 		sub	s3,s8,s1
 472:lcd.c         **** 		LCD_DrawPoint(x0+b,y0-a,color);  //0           
 2408              		.loc 1 472 3
 2409 002e B38A8B40 		sub	s5,s7,s0
 2410 0032 CE85     		mv	a1,s3
 2411 0034 4A86     		mv	a2,s2
 2412 0036 5685     		mv	a0,s5
 2413 0038 3AC6     		sw	a4,12(sp)
 2414              	.LVL252:
 472:lcd.c         **** 		LCD_DrawPoint(x0+b,y0-a,color);  //0           
 2415              		.loc 1 472 3 is_stmt 1
 473:lcd.c         **** 		LCD_DrawPoint(x0-a,y0+b,color);  //1                
 2416              		.loc 1 473 3 is_stmt 0
 2417 003a 330D7401 		add	s10,s0,s7
 472:lcd.c         **** 		LCD_DrawPoint(x0+b,y0-a,color);  //0           
 2418              		.loc 1 472 3
 2419 003e 97000000 		call	LCD_DrawPoint
 2419      E7800000 
 2420              	.LVL253:
 473:lcd.c         **** 		LCD_DrawPoint(x0-a,y0+b,color);  //1                
 2421              		.loc 1 473 3 is_stmt 1
 2422 0046 CE85     		mv	a1,s3
 2423 0048 4A86     		mv	a2,s2
 2424 004a 6A85     		mv	a0,s10
 2425 004c 97000000 		call	LCD_DrawPoint
 2425      E7800000 
 2426              	.LVL254:
 474:lcd.c         **** 		LCD_DrawPoint(x0-a,y0-b,color);  //2             
 2427              		.loc 1 474 3
 2428 0054 338A9B40 		sub	s4,s7,s1
 2429 0058 330B8401 		add	s6,s0,s8
 2430 005c 5285     		mv	a0,s4
 2431 005e 4A86     		mv	a2,s2
 2432 0060 DA85     		mv	a1,s6
 2433 0062 97000000 		call	LCD_DrawPoint
 2433      E7800000 
 2434              	.LVL255:
 475:lcd.c         **** 		LCD_DrawPoint(x0+b,y0+a,color);  //4               
 2435              		.loc 1 475 3
 2436 006a B30C8C40 		sub	s9,s8,s0
 2437 006e 5285     		mv	a0,s4
 2438 0070 939D1400 		slli	s11,s1,1
 2439 0074 4A86     		mv	a2,s2
 2440 0076 E685     		mv	a1,s9
 2441 0078 97000000 		call	LCD_DrawPoint
 2441      E7800000 
 2442              	.LVL256:
 476:lcd.c         **** 		LCD_DrawPoint(x0+a,y0-b,color);  //5
 2443              		.loc 1 476 3
GAS LISTING C:\Users\Duckb\AppData\Local\Temp\ccEgig1L.s 			page 58


 2444 0080 EE99     		add	s3,s3,s11
 2445 0082 4A86     		mv	a2,s2
 2446 0084 CE85     		mv	a1,s3
 2447 0086 6A85     		mv	a0,s10
 2448 0088 97000000 		call	LCD_DrawPoint
 2448      E7800000 
 2449              	.LVL257:
 477:lcd.c         **** 		LCD_DrawPoint(x0+a,y0+b,color);             //6 
 2450              		.loc 1 477 3
 2451 0090 6E9A     		add	s4,s4,s11
 2452 0092 4A86     		mv	a2,s2
 2453 0094 E685     		mv	a1,s9
 2454 0096 5285     		mv	a0,s4
 2455 0098 97000000 		call	LCD_DrawPoint
 2455      E7800000 
 2456              	.LVL258:
 478:lcd.c         **** 		LCD_DrawPoint(x0-b,y0+a,color);             //7
 2457              		.loc 1 478 3
 2458 00a0 4A86     		mv	a2,s2
 2459 00a2 DA85     		mv	a1,s6
 2460 00a4 5285     		mv	a0,s4
 2461 00a6 97000000 		call	LCD_DrawPoint
 2461      E7800000 
 2462              	.LVL259:
 479:lcd.c         **** 		a++;
 2463              		.loc 1 479 3
 2464 00ae 4A86     		mv	a2,s2
 2465 00b0 CE85     		mv	a1,s3
 2466 00b2 5685     		mv	a0,s5
 2467 00b4 97000000 		call	LCD_DrawPoint
 2467      E7800000 
 2468              	.LVL260:
 480:lcd.c         **** 		if((a*a+b*b)>(r*r)) // Determine whether the points to be drawn are too far away
 2469              		.loc 1 480 3
 480:lcd.c         **** 		if((a*a+b*b)>(r*r)) // Determine whether the points to be drawn are too far away
 2470              		.loc 1 480 4 is_stmt 0
 2471 00bc 8504     		addi	s1,s1,1
 2472              	.LVL261:
 2473              		.loc 1 481 3 is_stmt 1
 2474              		.loc 1 481 8 is_stmt 0
 2475 00be B3879402 		mul	a5,s1,s1
 2476              		.loc 1 481 5
 2477 00c2 3247     		lw	a4,12(sp)
 2478              		.loc 1 481 12
 2479 00c4 B3068402 		mul	a3,s0,s0
 2480              		.loc 1 481 10
 2481 00c8 B697     		add	a5,a5,a3
 2482              		.loc 1 481 5
 2483 00ca 6353F700 		ble	a5,a4,.L94
 482:lcd.c         **** 		{
 483:lcd.c         **** 			b--;
 2484              		.loc 1 483 4 is_stmt 1
 2485              		.loc 1 483 5 is_stmt 0
 2486 00ce 7D14     		addi	s0,s0,-1
 2487              	.LVL262:
 2488              	.L94:
 470:lcd.c         **** 	{
GAS LISTING C:\Users\Duckb\AppData\Local\Temp\ccEgig1L.s 			page 59


 2489              		.loc 1 470 7
 2490 00d0 E35D94F4 		bge	s0,s1,.L95
 484:lcd.c         **** 		}
 485:lcd.c         **** 	}
 486:lcd.c         **** }
 2491              		.loc 1 486 1
 2492 00d4 B640     		lw	ra,76(sp)
 2493              		.cfi_restore 1
 2494 00d6 2644     		lw	s0,72(sp)
 2495              		.cfi_restore 8
 2496              	.LVL263:
 2497 00d8 9644     		lw	s1,68(sp)
 2498              		.cfi_restore 9
 2499              	.LVL264:
 2500 00da 0649     		lw	s2,64(sp)
 2501              		.cfi_restore 18
 2502              	.LVL265:
 2503 00dc F259     		lw	s3,60(sp)
 2504              		.cfi_restore 19
 2505 00de 625A     		lw	s4,56(sp)
 2506              		.cfi_restore 20
 2507 00e0 D25A     		lw	s5,52(sp)
 2508              		.cfi_restore 21
 2509 00e2 425B     		lw	s6,48(sp)
 2510              		.cfi_restore 22
 2511 00e4 B25B     		lw	s7,44(sp)
 2512              		.cfi_restore 23
 2513              	.LVL266:
 2514 00e6 225C     		lw	s8,40(sp)
 2515              		.cfi_restore 24
 2516              	.LVL267:
 2517 00e8 925C     		lw	s9,36(sp)
 2518              		.cfi_restore 25
 2519 00ea 025D     		lw	s10,32(sp)
 2520              		.cfi_restore 26
 2521 00ec F24D     		lw	s11,28(sp)
 2522              		.cfi_restore 27
 2523 00ee 6161     		addi	sp,sp,80
 2524              	.LCFI37:
 2525              		.cfi_def_cfa_offset 0
 2526 00f0 8280     		jr	ra
 2527              		.cfi_endproc
 2528              	.LFE21:
 2530              		.section	.text.LCD_ShowChar,"ax",@progbits
 2531              		.align	1
 2532              		.globl	LCD_ShowChar
 2534              	LCD_ShowChar:
 2535              	.LFB22:
 487:lcd.c         **** 
 488:lcd.c         **** 
 489:lcd.c         **** /*
 490:lcd.c         ****   Function description: display characters
 491:lcd.c         ****   Entry data: x, y:  start point coordinates
 492:lcd.c         ****                num:  characters to display
 493:lcd.c         ****               mode:  1: transparent mode
 494:lcd.c         ****                      0: non-transparent mode
 495:lcd.c         ****   Return value: None
GAS LISTING C:\Users\Duckb\AppData\Local\Temp\ccEgig1L.s 			page 60


 496:lcd.c         **** */
 497:lcd.c         **** void LCD_ShowChar(u16 x,u16 y,u8 num,u8 mode,u16 color)
 498:lcd.c         **** {
 2536              		.loc 1 498 1 is_stmt 1
 2537              		.cfi_startproc
 2538              	.LVL268:
 499:lcd.c         ****     u8 temp;
 2539              		.loc 1 499 5
 500:lcd.c         ****     u8 pos,t;
 2540              		.loc 1 500 5
 501:lcd.c         **** 	  u16 x0=x;    
 2541              		.loc 1 501 4
 502:lcd.c         ****     if(x>LCD_W-8 || y>LCD_H-16)return;	// Outside of display area
 2542              		.loc 1 502 5
 2543              		.loc 1 502 7 is_stmt 0
 2544 0000 93078009 		li	a5,152
 2545 0004 63ECA70C 		bgtu	a0,a5,.L117
 498:lcd.c         ****     u8 temp;
 2546              		.loc 1 498 1 discriminator 2
 2547 0008 7971     		addi	sp,sp,-48
 2548              	.LCFI38:
 2549              		.cfi_def_cfa_offset 48
 2550 000a 22D4     		sw	s0,40(sp)
 2551 000c 06D6     		sw	ra,44(sp)
 2552 000e 26D2     		sw	s1,36(sp)
 2553 0010 4AD0     		sw	s2,32(sp)
 2554 0012 4ECE     		sw	s3,28(sp)
 2555 0014 52CC     		sw	s4,24(sp)
 2556 0016 56CA     		sw	s5,20(sp)
 2557 0018 5AC8     		sw	s6,16(sp)
 2558 001a 5EC6     		sw	s7,12(sp)
 2559              		.cfi_offset 8, -8
 2560              		.cfi_offset 1, -4
 2561              		.cfi_offset 9, -12
 2562              		.cfi_offset 18, -16
 2563              		.cfi_offset 19, -20
 2564              		.cfi_offset 20, -24
 2565              		.cfi_offset 21, -28
 2566              		.cfi_offset 22, -32
 2567              		.cfi_offset 23, -36
 2568              		.loc 1 502 18 discriminator 2
 2569 001c 93070004 		li	a5,64
 2570 0020 2E84     		mv	s0,a1
 2571 0022 63E6B706 		bgtu	a1,a5,.L98
 2572 0026 B284     		mv	s1,a2
 2573              	.LBB352:
 2574              	.LBB353:
 503:lcd.c         **** 	num=num-' ';                        // Get offset value
 2575              		.loc 1 503 5
 2576 0028 8114     		addi	s1,s1,-32
 2577 002a 93F4F40F 		andi	s1,s1,0xff
 2578 002e B68A     		mv	s5,a3
 504:lcd.c         **** 	LCD_Address_Set(x,y,x+8-1,y+16-1);  // Set cursor position
 2579              		.loc 1 504 2
 2580 0030 13067500 		addi	a2,a0,7
 2581              	.LVL269:
 2582 0034 9386F500 		addi	a3,a1,15
GAS LISTING C:\Users\Duckb\AppData\Local\Temp\ccEgig1L.s 			page 61


 2583              	.LVL270:
 2584 0038 13994400 		slli	s2,s1,4
 2585 003c B7040000 		lui	s1,%hi(.LANCHOR6)
 2586 0040 AA89     		mv	s3,a0
 2587 0042 3A8A     		mv	s4,a4
 2588              	.LVL271:
 503:lcd.c         **** 	num=num-' ';                        // Get offset value
 2589              		.loc 1 503 2 is_stmt 1
 2590              		.loc 1 504 2
 2591 0044 93840400 		addi	s1,s1,%lo(.LANCHOR6)
 2592 0048 97000000 		call	LCD_Address_Set
 2592      E7800000 
 2593              	.LVL272:
 505:lcd.c         **** 	if(!mode)
 2594              		.loc 1 505 2
 2595              		.loc 1 505 4 is_stmt 0
 2596 0050 639A0A04 		bne	s5,zero,.L101
 2597 0054 8149     		li	s3,0
 2598              	.LVL273:
 506:lcd.c         **** 	{
 507:lcd.c         **** 		// non-trasparent mode
 508:lcd.c         **** 		for(pos=0;pos<16;pos++)
 509:lcd.c         **** 		{ 
 510:lcd.c         **** 			temp=asc2_1608[(u16)num*16+pos];  // load 1608 font character
 511:lcd.c         **** 			for(t=0;t<8;t++)
 512:lcd.c         **** 		    {                 
 513:lcd.c         **** 		        if(temp&0x01)LCD_WR_DATA(color);
 514:lcd.c         **** 				else LCD_WR_DATA(BACK_COLOR);
 2599              		.loc 1 514 10
 2600 0056 B70B0000 		lui	s7,%hi(BACK_COLOR)
 508:lcd.c         **** 		{ 
 2601              		.loc 1 508 3
 2602 005a 414B     		li	s6,16
 2603              	.LVL274:
 2604              	.L105:
 510:lcd.c         **** 			for(t=0;t<8;t++)
 2605              		.loc 1 510 4 is_stmt 1
 510:lcd.c         **** 			for(t=0;t<8;t++)
 2606              		.loc 1 510 8 is_stmt 0
 2607 005c B3073901 		add	a5,s2,s3
 2608 0060 A697     		add	a5,s1,a5
 2609 0062 83CA0700 		lbu	s5,0(a5)
 2610              	.LVL275:
 511:lcd.c         **** 		    {                 
 2611              		.loc 1 511 4 is_stmt 1
 510:lcd.c         **** 			for(t=0;t<8;t++)
 2612              		.loc 1 510 8 is_stmt 0
 2613 0066 2144     		li	s0,8
 2614              	.LVL276:
 2615              	.L104:
 513:lcd.c         **** 				else LCD_WR_DATA(BACK_COLOR);
 2616              		.loc 1 513 11 is_stmt 1
 513:lcd.c         **** 				else LCD_WR_DATA(BACK_COLOR);
 2617              		.loc 1 513 13 is_stmt 0
 2618 0068 93F71A00 		andi	a5,s5,1
 513:lcd.c         **** 				else LCD_WR_DATA(BACK_COLOR);
 2619              		.loc 1 513 24
GAS LISTING C:\Users\Duckb\AppData\Local\Temp\ccEgig1L.s 			page 62


 2620 006c 5285     		mv	a0,s4
 513:lcd.c         **** 				else LCD_WR_DATA(BACK_COLOR);
 2621              		.loc 1 513 13
 2622 006e 99E3     		bne	a5,zero,.L120
 2623              	.LVL277:
 2624              		.loc 1 514 10 is_stmt 1
 2625 0070 03A50B00 		lw	a0,%lo(BACK_COLOR)(s7)
 2626              	.LVL278:
 2627              	.L120:
 2628 0074 7D14     		addi	s0,s0,-1
 2629              	.LVL279:
 2630 0076 1374F40F 		andi	s0,s0,0xff
 2631 007a 97000000 		call	LCD_WR_DATA
 2631      E7800000 
 2632              	.LVL280:
 515:lcd.c         **** 				temp>>=1;
 2633              		.loc 1 515 5
 2634              		.loc 1 515 9 is_stmt 0
 2635 0082 93DA1A00 		srli	s5,s5,1
 2636              	.LVL281:
 516:lcd.c         **** 				x++;
 2637              		.loc 1 516 5 is_stmt 1
 511:lcd.c         **** 		    {                 
 2638              		.loc 1 511 4 is_stmt 0
 2639 0086 6DF0     		bne	s0,zero,.L104
 517:lcd.c         **** 		    }
 518:lcd.c         **** 			x=x0;
 2640              		.loc 1 518 4 is_stmt 1
 2641              	.LVL282:
 519:lcd.c         **** 			y++;
 2642              		.loc 1 519 4
 2643 0088 8509     		addi	s3,s3,1
 2644              	.LVL283:
 508:lcd.c         **** 		{ 
 2645              		.loc 1 508 3 is_stmt 0
 2646 008a E39969FD 		bne	s3,s6,.L105
 2647              	.LVL284:
 2648              	.L98:
 2649              	.LBE353:
 2650              	.LBE352:
 520:lcd.c         **** 		}	
 521:lcd.c         **** 	}else
 522:lcd.c         **** 	{
 523:lcd.c         **** 		// Transparent mode
 524:lcd.c         **** 		for(pos=0;pos<16;pos++)
 525:lcd.c         **** 		{
 526:lcd.c         **** 		    temp=asc2_1608[(u16)num*16+pos]; // load 1608 font character
 527:lcd.c         **** 			for(t=0;t<8;t++)
 528:lcd.c         **** 		    {                 
 529:lcd.c         **** 		        if(temp&0x01)LCD_DrawPoint(x+t,y+pos,color); //Draw a dot
 530:lcd.c         **** 		        temp>>=1; 
 531:lcd.c         **** 		    }
 532:lcd.c         **** 		}
 533:lcd.c         **** 	}   	   	 	  
 534:lcd.c         **** }
 2651              		.loc 1 534 1
 2652 008e B250     		lw	ra,44(sp)
GAS LISTING C:\Users\Duckb\AppData\Local\Temp\ccEgig1L.s 			page 63


 2653              		.cfi_remember_state
 2654              		.cfi_restore 1
 2655 0090 2254     		lw	s0,40(sp)
 2656              		.cfi_restore 8
 2657 0092 9254     		lw	s1,36(sp)
 2658              		.cfi_restore 9
 2659 0094 0259     		lw	s2,32(sp)
 2660              		.cfi_restore 18
 2661 0096 F249     		lw	s3,28(sp)
 2662              		.cfi_restore 19
 2663 0098 624A     		lw	s4,24(sp)
 2664              		.cfi_restore 20
 2665 009a D24A     		lw	s5,20(sp)
 2666              		.cfi_restore 21
 2667 009c 424B     		lw	s6,16(sp)
 2668              		.cfi_restore 22
 2669 009e B24B     		lw	s7,12(sp)
 2670              		.cfi_restore 23
 2671 00a0 4561     		addi	sp,sp,48
 2672              	.LCFI39:
 2673              		.cfi_def_cfa_offset 0
 2674 00a2 8280     		jr	ra
 2675              	.LVL285:
 2676              	.L101:
 2677              	.LCFI40:
 2678              		.cfi_restore_state
 2679 00a4 CA94     		add	s1,s1,s2
 2680 00a6 130B0401 		addi	s6,s0,16
 2681              	.LBB355:
 2682              	.LBB354:
 527:lcd.c         **** 		    {                 
 2683              		.loc 1 527 4
 2684 00aa A14B     		li	s7,8
 2685              	.LVL286:
 2686              	.L108:
 526:lcd.c         **** 			for(t=0;t<8;t++)
 2687              		.loc 1 526 7 is_stmt 1
 526:lcd.c         **** 			for(t=0;t<8;t++)
 2688              		.loc 1 526 11 is_stmt 0
 2689 00ac 83CA0400 		lbu	s5,0(s1)
 2690              	.LVL287:
 527:lcd.c         **** 		    {                 
 2691              		.loc 1 527 4 is_stmt 1
 526:lcd.c         **** 			for(t=0;t<8;t++)
 2692              		.loc 1 526 11 is_stmt 0
 2693 00b0 0149     		li	s2,0
 2694              	.LVL288:
 2695              	.L107:
 529:lcd.c         **** 		        temp>>=1; 
 2696              		.loc 1 529 11 is_stmt 1
 529:lcd.c         **** 		        temp>>=1; 
 2697              		.loc 1 529 13 is_stmt 0
 2698 00b2 93F71A00 		andi	a5,s5,1
 2699 00b6 89CB     		beq	a5,zero,.L106
 529:lcd.c         **** 		        temp>>=1; 
 2700              		.loc 1 529 24 is_stmt 1
 2701 00b8 5286     		mv	a2,s4
GAS LISTING C:\Users\Duckb\AppData\Local\Temp\ccEgig1L.s 			page 64


 2702 00ba A285     		mv	a1,s0
 2703 00bc 33852901 		add	a0,s3,s2
 2704 00c0 97000000 		call	LCD_DrawPoint
 2704      E7800000 
 2705              	.LVL289:
 2706              	.L106:
 530:lcd.c         **** 		    }
 2707              		.loc 1 530 11
 2708 00c8 0509     		addi	s2,s2,1
 2709              	.LVL290:
 530:lcd.c         **** 		    }
 2710              		.loc 1 530 15 is_stmt 0
 2711 00ca 93DA1A00 		srli	s5,s5,1
 2712              	.LVL291:
 527:lcd.c         **** 		    {                 
 2713              		.loc 1 527 4
 2714 00ce E31279FF 		bne	s2,s7,.L107
 2715 00d2 0504     		addi	s0,s0,1
 2716 00d4 8504     		addi	s1,s1,1
 524:lcd.c         **** 		{
 2717              		.loc 1 524 3
 2718 00d6 E31B64FD 		bne	s0,s6,.L108
 2719 00da 55BF     		j	.L98
 2720              	.LVL292:
 2721              	.L117:
 2722              	.LCFI41:
 2723              		.cfi_def_cfa_offset 0
 2724              		.cfi_restore 1
 2725              		.cfi_restore 8
 2726              		.cfi_restore 9
 2727              		.cfi_restore 18
 2728              		.cfi_restore 19
 2729              		.cfi_restore 20
 2730              		.cfi_restore 21
 2731              		.cfi_restore 22
 2732              		.cfi_restore 23
 2733 00dc 8280     		ret
 2734              	.LBE354:
 2735              	.LBE355:
 2736              		.cfi_endproc
 2737              	.LFE22:
 2739              		.section	.text.LCD_DeleteChar,"ax",@progbits
 2740              		.align	1
 2741              		.globl	LCD_DeleteChar
 2743              	LCD_DeleteChar:
 2744              	.LFB23:
 535:lcd.c         **** 
 536:lcd.c         **** void LCD_DeleteChar(u16 *x, u16 *y, u16 back_color){
 2745              		.loc 1 536 52 is_stmt 1
 2746              		.cfi_startproc
 2747              	.LVL293:
 537:lcd.c         **** 
 538:lcd.c         **** 	if(*x + *y != 0){ //If not on first position
 2748              		.loc 1 538 2
 2749              		.loc 1 538 5 is_stmt 0
 2750 0000 1C41     		lw	a5,0(a0)
 2751              		.loc 1 538 10
GAS LISTING C:\Users\Duckb\AppData\Local\Temp\ccEgig1L.s 			page 65


 2752 0002 9841     		lw	a4,0(a1)
 2753              		.loc 1 538 8
 2754 0004 B386E700 		add	a3,a5,a4
 2755              		.loc 1 538 4
 2756 0008 B1CE     		beq	a3,zero,.L121
 539:lcd.c         **** 
 540:lcd.c         **** 		if(*x == 0){ //If on start of row
 2757              		.loc 1 540 3 is_stmt 1
 536:lcd.c         **** 
 2758              		.loc 1 536 52 is_stmt 0
 2759 000a 0111     		addi	sp,sp,-32
 2760              	.LCFI42:
 2761              		.cfi_def_cfa_offset 32
 2762 000c 06CE     		sw	ra,28(sp)
 2763 000e 22CC     		sw	s0,24(sp)
 2764 0010 26CA     		sw	s1,20(sp)
 2765 0012 4AC8     		sw	s2,16(sp)
 2766 0014 4EC6     		sw	s3,12(sp)
 2767              		.cfi_offset 1, -4
 2768              		.cfi_offset 8, -8
 2769              		.cfi_offset 9, -12
 2770              		.cfi_offset 18, -16
 2771              		.cfi_offset 19, -20
 2772              		.loc 1 540 5
 2773 0016 A9E7     		bne	a5,zero,.L123
 541:lcd.c         **** 
 542:lcd.c         **** 			//Move up one row
 543:lcd.c         **** 			*y -= 20; 
 2774              		.loc 1 543 4 is_stmt 1
 2775              		.loc 1 543 7 is_stmt 0
 2776 0018 3117     		addi	a4,a4,-20
 2777 001a 98C1     		sw	a4,0(a1)
 544:lcd.c         **** 			*x = 140;
 2778              		.loc 1 544 4 is_stmt 1
 2779              		.loc 1 544 7 is_stmt 0
 2780 001c 9307C008 		li	a5,140
 2781              	.L132:
 2782 0020 1CC1     		sw	a5,0(a0)
 2783 0022 AE84     		mv	s1,a1
 2784 0024 2A84     		mv	s0,a0
 536:lcd.c         **** 
 2785              		.loc 1 536 52
 2786 0026 C149     		li	s3,16
 2787              	.LVL294:
 2788              	.L124:
 2789 0028 2149     		li	s2,8
 2790              	.LVL295:
 2791              	.L126:
 2792              	.LBB356:
 2793              	.LBB357:
 545:lcd.c         **** 
 546:lcd.c         **** 		}else{
 547:lcd.c         **** 			
 548:lcd.c         **** 			//Move back one position
 549:lcd.c         **** 			*x -= 10;
 550:lcd.c         **** 
 551:lcd.c         **** 		}
GAS LISTING C:\Users\Duckb\AppData\Local\Temp\ccEgig1L.s 			page 66


 552:lcd.c         **** 
 553:lcd.c         **** 		//Erase last drawn character
 554:lcd.c         **** 		for (int i = 0; i < 16; i++)
 555:lcd.c         **** 		{
 556:lcd.c         **** 			for (int j = 0; j < 8; j++)
 557:lcd.c         **** 			{
 558:lcd.c         **** 				LCD_WR_DATA(BLACK);
 2794              		.loc 1 558 5 is_stmt 1 discriminator 3
 2795 002a 0145     		li	a0,0
 2796 002c 7D19     		addi	s2,s2,-1
 2797              	.LVL296:
 2798 002e 97000000 		call	LCD_WR_DATA
 2798      E7800000 
 2799              	.LVL297:
 556:lcd.c         **** 			{
 2800              		.loc 1 556 4 is_stmt 0 discriminator 3
 2801 0036 E31A09FE 		bne	s2,zero,.L126
 2802              	.LVL298:
 2803 003a FD19     		addi	s3,s3,-1
 2804              	.LVL299:
 2805              	.LBE357:
 554:lcd.c         **** 		{
 2806              		.loc 1 554 3 discriminator 2
 2807 003c E39609FE 		bne	s3,zero,.L124
 2808              	.LBE356:
 559:lcd.c         **** 			}
 560:lcd.c         **** 			
 561:lcd.c         **** 		}
 562:lcd.c         **** 
 563:lcd.c         **** 		LCD_Address_Set(*x, *y, (*x) + 8 - 1, (*y) + 16 - 1); //Move cursor to removed character
 2809              		.loc 1 563 3 is_stmt 1
 2810 0040 0840     		lw	a0,0(s0)
 2811 0042 8C40     		lw	a1,0(s1)
 564:lcd.c         **** 		
 565:lcd.c         **** 
 566:lcd.c         **** 	}
 567:lcd.c         **** }
 2812              		.loc 1 567 1 is_stmt 0
 2813 0044 6244     		lw	s0,24(sp)
 2814              		.cfi_remember_state
 2815              		.cfi_restore 8
 2816              	.LVL300:
 2817 0046 F240     		lw	ra,28(sp)
 2818              		.cfi_restore 1
 2819 0048 D244     		lw	s1,20(sp)
 2820              		.cfi_restore 9
 2821              	.LVL301:
 2822 004a 4249     		lw	s2,16(sp)
 2823              		.cfi_restore 18
 2824 004c B249     		lw	s3,12(sp)
 2825              		.cfi_restore 19
 2826              	.LVL302:
 563:lcd.c         **** 		
 2827              		.loc 1 563 3
 2828 004e 9386F500 		addi	a3,a1,15
 2829              		.loc 1 567 1
 563:lcd.c         **** 		
GAS LISTING C:\Users\Duckb\AppData\Local\Temp\ccEgig1L.s 			page 67


 2830              		.loc 1 563 3
 2831 0052 13067500 		addi	a2,a0,7
 2832              		.loc 1 567 1
 2833 0056 0561     		addi	sp,sp,32
 2834              	.LCFI43:
 2835              		.cfi_def_cfa_offset 0
 563:lcd.c         **** 		
 2836              		.loc 1 563 3
 2837 0058 17030000 		tail	LCD_Address_Set
 2837      67000300 
 2838              	.LVL303:
 2839              	.L123:
 2840              	.LCFI44:
 2841              		.cfi_restore_state
 549:lcd.c         **** 
 2842              		.loc 1 549 4 is_stmt 1
 549:lcd.c         **** 
 2843              		.loc 1 549 7 is_stmt 0
 2844 0060 D917     		addi	a5,a5,-10
 2845 0062 7DBF     		j	.L132
 2846              	.L121:
 2847              	.LCFI45:
 2848              		.cfi_def_cfa_offset 0
 2849              		.cfi_restore 1
 2850              		.cfi_restore 8
 2851              		.cfi_restore 9
 2852              		.cfi_restore 18
 2853              		.cfi_restore 19
 2854 0064 8280     		ret
 2855              		.cfi_endproc
 2856              	.LFE23:
 2858              		.section	.text.LCD_ShowString,"ax",@progbits
 2859              		.align	1
 2860              		.globl	LCD_ShowString
 2862              	LCD_ShowString:
 2863              	.LFB24:
 568:lcd.c         **** 
 569:lcd.c         **** 
 570:lcd.c         **** /*
 571:lcd.c         ****   Function description: display string
 572:lcd.c         ****   Entry data: x, y:  start point coordinates
 573:lcd.c         ****                 *p:  string start address
 574:lcd.c         ****   Return value: None
 575:lcd.c         ****   Note: If character position is outside the display area
 576:lcd.c         ****         display is cleared in red color and the character
 577:lcd.c         **** 		position is set to (0,0)
 578:lcd.c         **** */
 579:lcd.c         **** void LCD_ShowString(u16 x,u16 y,const u8 *p,u16 color)
 580:lcd.c         **** {         
 2864              		.loc 1 580 1 is_stmt 1
 2865              		.cfi_startproc
 2866              	.LVL304:
 581:lcd.c         ****     while(*p!='\0')
 2867              		.loc 1 581 5
 580:lcd.c         ****     while(*p!='\0')
 2868              		.loc 1 580 1 is_stmt 0
 2869 0000 0111     		addi	sp,sp,-32
GAS LISTING C:\Users\Duckb\AppData\Local\Temp\ccEgig1L.s 			page 68


 2870              	.LCFI46:
 2871              		.cfi_def_cfa_offset 32
 2872 0002 4EC6     		sw	s3,12(sp)
 2873              		.cfi_offset 19, -20
 582:lcd.c         ****     {       
 583:lcd.c         ****         if(x>LCD_W-8){x=0;y+=16;}
 584:lcd.c         ****         if(y>LCD_H-16){y=x=0;LCD_Clear(RED);}
 2874              		.loc 1 584 30
 2875 0004 C169     		li	s3,65536
 580:lcd.c         ****     while(*p!='\0')
 2876              		.loc 1 580 1
 2877 0006 22CC     		sw	s0,24(sp)
 2878 0008 26CA     		sw	s1,20(sp)
 2879 000a 4AC8     		sw	s2,16(sp)
 2880 000c 52C4     		sw	s4,8(sp)
 2881 000e 56C2     		sw	s5,4(sp)
 2882 0010 5AC0     		sw	s6,0(sp)
 2883 0012 06CE     		sw	ra,28(sp)
 2884              		.cfi_offset 8, -8
 2885              		.cfi_offset 9, -12
 2886              		.cfi_offset 18, -16
 2887              		.cfi_offset 20, -24
 2888              		.cfi_offset 21, -28
 2889              		.cfi_offset 22, -32
 2890              		.cfi_offset 1, -4
 580:lcd.c         ****     while(*p!='\0')
 2891              		.loc 1 580 1
 2892 0014 2A84     		mv	s0,a0
 2893 0016 AE84     		mv	s1,a1
 2894 0018 3289     		mv	s2,a2
 2895 001a 368A     		mv	s4,a3
 583:lcd.c         ****         if(y>LCD_H-16){y=x=0;LCD_Clear(RED);}
 2896              		.loc 1 583 11
 2897 001c 930A8009 		li	s5,152
 2898              		.loc 1 584 11
 2899 0020 130B0004 		li	s6,64
 2900              		.loc 1 584 30
 2901 0024 93890980 		addi	s3,s3,-2048
 2902              	.LVL305:
 2903              	.L134:
 581:lcd.c         ****     {       
 2904              		.loc 1 581 10
 2905 0028 83470900 		lbu	a5,0(s2)
 2906 002c 99EB     		bne	a5,zero,.L137
 585:lcd.c         ****         LCD_ShowChar(x,y,*p,0,color);
 586:lcd.c         ****         x+=8;
 587:lcd.c         ****         p++;
 588:lcd.c         ****     }  
 589:lcd.c         **** }
 2907              		.loc 1 589 1
 2908 002e F240     		lw	ra,28(sp)
 2909              		.cfi_remember_state
 2910              		.cfi_restore 1
 2911 0030 6244     		lw	s0,24(sp)
 2912              		.cfi_restore 8
 2913              	.LVL306:
 2914 0032 D244     		lw	s1,20(sp)
GAS LISTING C:\Users\Duckb\AppData\Local\Temp\ccEgig1L.s 			page 69


 2915              		.cfi_restore 9
 2916              	.LVL307:
 2917 0034 4249     		lw	s2,16(sp)
 2918              		.cfi_restore 18
 2919              	.LVL308:
 2920 0036 B249     		lw	s3,12(sp)
 2921              		.cfi_restore 19
 2922 0038 224A     		lw	s4,8(sp)
 2923              		.cfi_restore 20
 2924              	.LVL309:
 2925 003a 924A     		lw	s5,4(sp)
 2926              		.cfi_restore 21
 2927 003c 024B     		lw	s6,0(sp)
 2928              		.cfi_restore 22
 2929 003e 0561     		addi	sp,sp,32
 2930              	.LCFI47:
 2931              		.cfi_def_cfa_offset 0
 2932 0040 8280     		jr	ra
 2933              	.LVL310:
 2934              	.L137:
 2935              	.LCFI48:
 2936              		.cfi_restore_state
 583:lcd.c         ****         if(y>LCD_H-16){y=x=0;LCD_Clear(RED);}
 2937              		.loc 1 583 9 is_stmt 1
 583:lcd.c         ****         if(y>LCD_H-16){y=x=0;LCD_Clear(RED);}
 2938              		.loc 1 583 11 is_stmt 0
 2939 0042 63F48A00 		bleu	s0,s5,.L135
 583:lcd.c         ****         if(y>LCD_H-16){y=x=0;LCD_Clear(RED);}
 2940              		.loc 1 583 23 is_stmt 1 discriminator 1
 2941              	.LVL311:
 583:lcd.c         ****         if(y>LCD_H-16){y=x=0;LCD_Clear(RED);}
 2942              		.loc 1 583 27 discriminator 1
 583:lcd.c         ****         if(y>LCD_H-16){y=x=0;LCD_Clear(RED);}
 2943              		.loc 1 583 28 is_stmt 0 discriminator 1
 2944 0046 C104     		addi	s1,s1,16
 2945              	.LVL312:
 583:lcd.c         ****         if(y>LCD_H-16){y=x=0;LCD_Clear(RED);}
 2946              		.loc 1 583 24 discriminator 1
 2947 0048 0144     		li	s0,0
 2948              	.LVL313:
 2949              	.L135:
 584:lcd.c         ****         LCD_ShowChar(x,y,*p,0,color);
 2950              		.loc 1 584 9 is_stmt 1
 584:lcd.c         ****         LCD_ShowChar(x,y,*p,0,color);
 2951              		.loc 1 584 11 is_stmt 0
 2952 004a 63799B00 		bleu	s1,s6,.L136
 584:lcd.c         ****         LCD_ShowChar(x,y,*p,0,color);
 2953              		.loc 1 584 24 is_stmt 1 discriminator 1
 2954              	.LVL314:
 584:lcd.c         ****         LCD_ShowChar(x,y,*p,0,color);
 2955              		.loc 1 584 30 discriminator 1
 2956 004e 4E85     		mv	a0,s3
 2957 0050 97000000 		call	LCD_Clear
 2957      E7800000 
 2958              	.LVL315:
 584:lcd.c         ****         LCD_ShowChar(x,y,*p,0,color);
 2959              		.loc 1 584 25 is_stmt 0 discriminator 1
GAS LISTING C:\Users\Duckb\AppData\Local\Temp\ccEgig1L.s 			page 70


 2960 0058 8144     		li	s1,0
 584:lcd.c         ****         LCD_ShowChar(x,y,*p,0,color);
 2961              		.loc 1 584 27 discriminator 1
 2962 005a 0144     		li	s0,0
 2963              	.LVL316:
 2964              	.L136:
 585:lcd.c         ****         LCD_ShowChar(x,y,*p,0,color);
 2965              		.loc 1 585 9 is_stmt 1
 2966 005c 03460900 		lbu	a2,0(s2)
 2967 0060 2285     		mv	a0,s0
 2968 0062 5287     		mv	a4,s4
 2969 0064 8146     		li	a3,0
 2970 0066 A685     		mv	a1,s1
 2971 0068 97000000 		call	LCD_ShowChar
 2971      E7800000 
 2972              	.LVL317:
 586:lcd.c         ****         p++;
 2973              		.loc 1 586 9
 586:lcd.c         ****         p++;
 2974              		.loc 1 586 10 is_stmt 0
 2975 0070 2104     		addi	s0,s0,8
 2976              	.LVL318:
 587:lcd.c         ****     }  
 2977              		.loc 1 587 9 is_stmt 1
 587:lcd.c         ****     }  
 2978              		.loc 1 587 10 is_stmt 0
 2979 0072 0509     		addi	s2,s2,1
 2980              	.LVL319:
 2981 0074 55BF     		j	.L134
 2982              		.cfi_endproc
 2983              	.LFE24:
 2985              		.section	.text.LCD_ShowStr,"ax",@progbits
 2986              		.align	1
 2987              		.globl	LCD_ShowStr
 2989              	LCD_ShowStr:
 2990              	.LFB25:
 590:lcd.c         **** 
 591:lcd.c         **** 
 592:lcd.c         **** /*
 593:lcd.c         ****   Function description: display string
 594:lcd.c         ****   Entry data: x, y:  start point coordinates
 595:lcd.c         ****                 *p:  string start address
 596:lcd.c         ****               mode:  1: transparent mode
 597:lcd.c         ****                      0: non-transparent mode
 598:lcd.c         ****   Return value: None
 599:lcd.c         ****   Note: If character position is outside the display area
 600:lcd.c         ****         the character is not displayed
 601:lcd.c         **** */
 602:lcd.c         **** void LCD_ShowStr(u16 x,u16 y,const u8 *p,u16 color, u8 mode)
 603:lcd.c         **** {         
 2991              		.loc 1 603 1 is_stmt 1
 2992              		.cfi_startproc
 2993              	.LVL320:
 604:lcd.c         ****     while(*p!='\0')
 2994              		.loc 1 604 5
 603:lcd.c         ****     while(*p!='\0')
 2995              		.loc 1 603 1 is_stmt 0
GAS LISTING C:\Users\Duckb\AppData\Local\Temp\ccEgig1L.s 			page 71


 2996 0000 0111     		addi	sp,sp,-32
 2997              	.LCFI49:
 2998              		.cfi_def_cfa_offset 32
 2999 0002 22CC     		sw	s0,24(sp)
 3000 0004 26CA     		sw	s1,20(sp)
 3001 0006 4AC8     		sw	s2,16(sp)
 3002 0008 4EC6     		sw	s3,12(sp)
 3003 000a 52C4     		sw	s4,8(sp)
 3004 000c 56C2     		sw	s5,4(sp)
 3005 000e 5AC0     		sw	s6,0(sp)
 3006 0010 06CE     		sw	ra,28(sp)
 3007              		.cfi_offset 8, -8
 3008              		.cfi_offset 9, -12
 3009              		.cfi_offset 18, -16
 3010              		.cfi_offset 19, -20
 3011              		.cfi_offset 20, -24
 3012              		.cfi_offset 21, -28
 3013              		.cfi_offset 22, -32
 3014              		.cfi_offset 1, -4
 603:lcd.c         ****     while(*p!='\0')
 3015              		.loc 1 603 1
 3016 0012 2A84     		mv	s0,a0
 3017 0014 AE84     		mv	s1,a1
 3018 0016 3289     		mv	s2,a2
 3019 0018 B689     		mv	s3,a3
 3020 001a 3A8A     		mv	s4,a4
 605:lcd.c         ****     {       
 606:lcd.c         ****         if(x>LCD_W-8){x=0;y+=16;}
 3021              		.loc 1 606 11
 3022 001c 930A8009 		li	s5,152
 607:lcd.c         ****         if(y>LCD_H-16) break;
 3023              		.loc 1 607 11
 3024 0020 130B0004 		li	s6,64
 3025              	.LVL321:
 3026              	.L140:
 604:lcd.c         ****     {       
 3027              		.loc 1 604 11
 3028 0024 03460900 		lbu	a2,0(s2)
 604:lcd.c         ****     {       
 3029              		.loc 1 604 10
 3030 0028 19EA     		bne	a2,zero,.L143
 3031              	.L139:
 608:lcd.c         ****         LCD_ShowChar(x,y,*p,mode,color);
 609:lcd.c         ****         x+=8;
 610:lcd.c         ****         p++;
 611:lcd.c         ****     }  
 612:lcd.c         **** }
 3032              		.loc 1 612 1
 3033 002a F240     		lw	ra,28(sp)
 3034              		.cfi_remember_state
 3035              		.cfi_restore 1
 3036 002c 6244     		lw	s0,24(sp)
 3037              		.cfi_restore 8
 3038              	.LVL322:
 3039 002e D244     		lw	s1,20(sp)
 3040              		.cfi_restore 9
 3041              	.LVL323:
GAS LISTING C:\Users\Duckb\AppData\Local\Temp\ccEgig1L.s 			page 72


 3042 0030 4249     		lw	s2,16(sp)
 3043              		.cfi_restore 18
 3044              	.LVL324:
 3045 0032 B249     		lw	s3,12(sp)
 3046              		.cfi_restore 19
 3047              	.LVL325:
 3048 0034 224A     		lw	s4,8(sp)
 3049              		.cfi_restore 20
 3050 0036 924A     		lw	s5,4(sp)
 3051              		.cfi_restore 21
 3052 0038 024B     		lw	s6,0(sp)
 3053              		.cfi_restore 22
 3054 003a 0561     		addi	sp,sp,32
 3055              	.LCFI50:
 3056              		.cfi_def_cfa_offset 0
 3057 003c 8280     		jr	ra
 3058              	.LVL326:
 3059              	.L143:
 3060              	.LCFI51:
 3061              		.cfi_restore_state
 606:lcd.c         ****         if(y>LCD_H-16) break;
 3062              		.loc 1 606 9 is_stmt 1
 606:lcd.c         ****         if(y>LCD_H-16) break;
 3063              		.loc 1 606 11 is_stmt 0
 3064 003e 63F48A00 		bleu	s0,s5,.L141
 606:lcd.c         ****         if(y>LCD_H-16) break;
 3065              		.loc 1 606 23 is_stmt 1 discriminator 1
 3066              	.LVL327:
 606:lcd.c         ****         if(y>LCD_H-16) break;
 3067              		.loc 1 606 27 discriminator 1
 606:lcd.c         ****         if(y>LCD_H-16) break;
 3068              		.loc 1 606 28 is_stmt 0 discriminator 1
 3069 0042 C104     		addi	s1,s1,16
 3070              	.LVL328:
 606:lcd.c         ****         if(y>LCD_H-16) break;
 3071              		.loc 1 606 24 discriminator 1
 3072 0044 0144     		li	s0,0
 3073              	.LVL329:
 3074              	.L141:
 607:lcd.c         ****         LCD_ShowChar(x,y,*p,mode,color);
 3075              		.loc 1 607 9 is_stmt 1
 607:lcd.c         ****         LCD_ShowChar(x,y,*p,mode,color);
 3076              		.loc 1 607 11 is_stmt 0
 3077 0046 E3629BFE 		bgtu	s1,s6,.L139
 608:lcd.c         ****         LCD_ShowChar(x,y,*p,mode,color);
 3078              		.loc 1 608 9 is_stmt 1
 3079 004a 2285     		mv	a0,s0
 3080 004c 4E87     		mv	a4,s3
 3081 004e D286     		mv	a3,s4
 3082 0050 A685     		mv	a1,s1
 3083 0052 97000000 		call	LCD_ShowChar
 3083      E7800000 
 3084              	.LVL330:
 609:lcd.c         ****         p++;
 3085              		.loc 1 609 9
 609:lcd.c         ****         p++;
 3086              		.loc 1 609 10 is_stmt 0
GAS LISTING C:\Users\Duckb\AppData\Local\Temp\ccEgig1L.s 			page 73


 3087 005a 2104     		addi	s0,s0,8
 3088              	.LVL331:
 610:lcd.c         ****     }  
 3089              		.loc 1 610 9 is_stmt 1
 610:lcd.c         ****     }  
 3090              		.loc 1 610 10 is_stmt 0
 3091 005c 0509     		addi	s2,s2,1
 3092              	.LVL332:
 3093 005e D9B7     		j	.L140
 3094              		.cfi_endproc
 3095              	.LFE25:
 3097              		.section	.text.mypow,"ax",@progbits
 3098              		.align	1
 3099              		.globl	mypow
 3101              	mypow:
 3102              	.LFB26:
 613:lcd.c         **** 
 614:lcd.c         **** 
 615:lcd.c         **** /*
 616:lcd.c         ****   Function description: Calculate m^n
 617:lcd.c         ****   Entry data: m: base
 618:lcd.c         ****               n: exponent
 619:lcd.c         ****   Return value: m^n
 620:lcd.c         **** */
 621:lcd.c         **** u32 mypow(u8 m,u8 n)
 622:lcd.c         **** {
 3103              		.loc 1 622 1 is_stmt 1
 3104              		.cfi_startproc
 3105              	.LVL333:
 623:lcd.c         **** 	u32 result=1;	 
 3106              		.loc 1 623 2
 624:lcd.c         **** 	while(n--)result*=m;    
 3107              		.loc 1 624 2
 623:lcd.c         **** 	u32 result=1;	 
 3108              		.loc 1 623 6 is_stmt 0
 3109 0000 8547     		li	a5,1
 3110              		.loc 1 624 7
 3111 0002 1307F00F 		li	a4,255
 3112              	.LVL334:
 3113              	.L146:
 3114              		.loc 1 624 9 discriminator 1
 3115 0006 FD15     		addi	a1,a1,-1
 3116              	.LVL335:
 3117 0008 93F5F50F 		andi	a1,a1,0xff
 3118              	.LVL336:
 3119              		.loc 1 624 7 discriminator 1
 3120 000c 6394E500 		bne	a1,a4,.L147
 625:lcd.c         **** 	return result;
 3121              		.loc 1 625 2 is_stmt 1
 626:lcd.c         **** }
 3122              		.loc 1 626 1 is_stmt 0
 3123 0010 3E85     		mv	a0,a5
 3124              	.LVL337:
 3125 0012 8280     		ret
 3126              	.LVL338:
 3127              	.L147:
 624:lcd.c         **** 	while(n--)result*=m;    
GAS LISTING C:\Users\Duckb\AppData\Local\Temp\ccEgig1L.s 			page 74


 3128              		.loc 1 624 12 is_stmt 1 discriminator 2
 624:lcd.c         **** 	while(n--)result*=m;    
 3129              		.loc 1 624 18 is_stmt 0 discriminator 2
 3130 0014 B387A702 		mul	a5,a5,a0
 3131              	.LVL339:
 3132 0018 FDB7     		j	.L146
 3133              		.cfi_endproc
 3134              	.LFE26:
 3136              		.section	.text.LCD_ShowNum,"ax",@progbits
 3137              		.align	1
 3138              		.globl	LCD_ShowNum
 3140              	LCD_ShowNum:
 3141              	.LFB27:
 627:lcd.c         **** 
 628:lcd.c         **** 
 629:lcd.c         **** /*
 630:lcd.c         ****   Function description: display 16-bit integer numbers
 631:lcd.c         ****   Entry data: x, y:  start point coordinates
 632:lcd.c         ****                num:  number to display
 633:lcd.c         ****                len:  number of digits to display
 634:lcd.c         ****   Return value: None
 635:lcd.c         **** */
 636:lcd.c         **** void LCD_ShowNum(u16 x,u16 y,u16 num,u8 len,u16 color)
 637:lcd.c         **** {         	
 3142              		.loc 1 637 1 is_stmt 1
 3143              		.cfi_startproc
 3144              	.LVL340:
 638:lcd.c         **** 	u8 t,temp;
 3145              		.loc 1 638 2
 639:lcd.c         **** 	u8 enshow=0;
 3146              		.loc 1 639 2
 640:lcd.c         **** 	for(t=0;t<len;t++)
 3147              		.loc 1 640 2
 637:lcd.c         **** 	u8 t,temp;
 3148              		.loc 1 637 1 is_stmt 0
 3149 0000 7971     		addi	sp,sp,-48
 3150              	.LCFI52:
 3151              		.cfi_def_cfa_offset 48
 3152 0002 56CA     		sw	s5,20(sp)
 3153              		.cfi_offset 21, -28
 3154 0004 938AF6FF 		addi	s5,a3,-1
 3155 0008 22D4     		sw	s0,40(sp)
 3156 000a 26D2     		sw	s1,36(sp)
 3157 000c 4AD0     		sw	s2,32(sp)
 3158 000e 4ECE     		sw	s3,28(sp)
 3159 0010 52CC     		sw	s4,24(sp)
 3160 0012 5AC8     		sw	s6,16(sp)
 3161 0014 5EC6     		sw	s7,12(sp)
 3162 0016 62C4     		sw	s8,8(sp)
 3163 0018 66C2     		sw	s9,4(sp)
 3164 001a 06D6     		sw	ra,44(sp)
 3165              		.cfi_offset 8, -8
 3166              		.cfi_offset 9, -12
 3167              		.cfi_offset 18, -16
 3168              		.cfi_offset 19, -20
 3169              		.cfi_offset 20, -24
 3170              		.cfi_offset 22, -32
GAS LISTING C:\Users\Duckb\AppData\Local\Temp\ccEgig1L.s 			page 75


 3171              		.cfi_offset 23, -36
 3172              		.cfi_offset 24, -40
 3173              		.cfi_offset 25, -44
 3174              		.cfi_offset 1, -4
 637:lcd.c         **** 	u8 t,temp;
 3175              		.loc 1 637 1
 3176 001c AA8B     		mv	s7,a0
 3177 001e AE89     		mv	s3,a1
 3178 0020 328C     		mv	s8,a2
 3179 0022 3A8A     		mv	s4,a4
 3180 0024 13F4FA0F 		andi	s0,s5,0xff
 3181              		.loc 1 640 2
 3182 0028 814C     		li	s9,0
 639:lcd.c         **** 	u8 enshow=0;
 3183              		.loc 1 639 5
 3184 002a 0149     		li	s2,0
 3185              		.loc 1 640 2
 3186 002c 9304F00F 		li	s1,255
 3187              	.LBB358:
 3188              	.LBB359:
 624:lcd.c         **** 	return result;
 3189              		.loc 1 624 18
 3190 0030 294B     		li	s6,10
 3191              	.LVL341:
 3192              	.L149:
 3193              	.LBE359:
 3194              	.LBE358:
 3195              		.loc 1 640 2 discriminator 1
 3196 0032 63129406 		bne	s0,s1,.L155
 641:lcd.c         **** 	{
 642:lcd.c         **** 		temp=(num/mypow(10,len-t-1))%10;
 643:lcd.c         **** 		if(enshow==0&&t<(len-1))
 644:lcd.c         **** 		{
 645:lcd.c         **** 			if(temp==0)
 646:lcd.c         **** 			{
 647:lcd.c         **** 				LCD_ShowChar(x+8*t,y,' ',0,color);
 648:lcd.c         **** 				continue;
 649:lcd.c         **** 			}else enshow=1; 
 650:lcd.c         **** 		 	 
 651:lcd.c         **** 		}
 652:lcd.c         **** 	 	LCD_ShowChar(x+8*t,y,temp+48,0,color); 
 653:lcd.c         **** 	}
 654:lcd.c         **** } 
 3197              		.loc 1 654 1
 3198 0036 B250     		lw	ra,44(sp)
 3199              		.cfi_remember_state
 3200              		.cfi_restore 1
 3201 0038 2254     		lw	s0,40(sp)
 3202              		.cfi_restore 8
 3203 003a 9254     		lw	s1,36(sp)
 3204              		.cfi_restore 9
 3205 003c 0259     		lw	s2,32(sp)
 3206              		.cfi_restore 18
 3207              	.LVL342:
 3208 003e F249     		lw	s3,28(sp)
 3209              		.cfi_restore 19
 3210              	.LVL343:
GAS LISTING C:\Users\Duckb\AppData\Local\Temp\ccEgig1L.s 			page 76


 3211 0040 624A     		lw	s4,24(sp)
 3212              		.cfi_restore 20
 3213              	.LVL344:
 3214 0042 D24A     		lw	s5,20(sp)
 3215              		.cfi_restore 21
 3216 0044 424B     		lw	s6,16(sp)
 3217              		.cfi_restore 22
 3218 0046 B24B     		lw	s7,12(sp)
 3219              		.cfi_restore 23
 3220              	.LVL345:
 3221 0048 224C     		lw	s8,8(sp)
 3222              		.cfi_restore 24
 3223              	.LVL346:
 3224 004a 924C     		lw	s9,4(sp)
 3225              		.cfi_restore 25
 3226              	.LVL347:
 3227 004c 4561     		addi	sp,sp,48
 3228              	.LCFI53:
 3229              		.cfi_def_cfa_offset 0
 3230 004e 8280     		jr	ra
 3231              	.LVL348:
 3232              	.L150:
 3233              	.LCFI54:
 3234              		.cfi_restore_state
 3235              	.LBB362:
 3236              	.LBB360:
 624:lcd.c         **** 	return result;
 3237              		.loc 1 624 12 is_stmt 1
 624:lcd.c         **** 	return result;
 3238              		.loc 1 624 18 is_stmt 0
 3239 0050 B3876703 		mul	a5,a5,s6
 3240              	.LVL349:
 3241              	.L153:
 624:lcd.c         **** 	return result;
 3242              		.loc 1 624 9
 3243 0054 7D17     		addi	a4,a4,-1
 3244              	.LVL350:
 3245 0056 1377F70F 		andi	a4,a4,0xff
 3246              	.LVL351:
 624:lcd.c         **** 	return result;
 3247              		.loc 1 624 7
 3248 005a E31B97FE 		bne	a4,s1,.L150
 625:lcd.c         **** }
 3249              		.loc 1 625 2 is_stmt 1
 3250              	.LVL352:
 3251 005e 13953C00 		slli	a0,s9,3
 3252 0062 5E95     		add	a0,a0,s7
 3253              	.LBE360:
 3254              	.LBE362:
 642:lcd.c         **** 		if(enshow==0&&t<(len-1))
 3255              		.loc 1 642 12 is_stmt 0
 3256 0064 B357FC02 		divu	a5,s8,a5
 642:lcd.c         **** 		if(enshow==0&&t<(len-1))
 3257              		.loc 1 642 31
 3258 0068 B3F76703 		remu	a5,a5,s6
 642:lcd.c         **** 		if(enshow==0&&t<(len-1))
 3259              		.loc 1 642 7
GAS LISTING C:\Users\Duckb\AppData\Local\Temp\ccEgig1L.s 			page 77


 3260 006c 13F6F70F 		andi	a2,a5,0xff
 3261              	.LVL353:
 643:lcd.c         **** 		{
 3262              		.loc 1 643 3 is_stmt 1
 643:lcd.c         **** 		{
 3263              		.loc 1 643 5 is_stmt 0
 3264 0070 63170902 		bne	s2,zero,.L151
 643:lcd.c         **** 		{
 3265              		.loc 1 643 15 discriminator 1
 3266 0074 63D55C03 		ble	s5,s9,.L151
 645:lcd.c         **** 			{
 3267              		.loc 1 645 4 is_stmt 1
 645:lcd.c         **** 			{
 3268              		.loc 1 645 6 is_stmt 0
 3269 0078 95E3     		bne	a5,zero,.L154
 647:lcd.c         **** 				continue;
 3270              		.loc 1 647 5 is_stmt 1
 3271 007a 5287     		mv	a4,s4
 3272 007c 8146     		li	a3,0
 3273 007e 13060002 		li	a2,32
 3274              	.LVL354:
 3275              	.L157:
 652:lcd.c         **** 	}
 3276              		.loc 1 652 4 is_stmt 0
 3277 0082 CE85     		mv	a1,s3
 3278 0084 7D14     		addi	s0,s0,-1
 3279 0086 97000000 		call	LCD_ShowChar
 3279      E7800000 
 3280              	.LVL355:
 3281 008e 850C     		addi	s9,s9,1
 3282              	.LVL356:
 3283 0090 1374F40F 		andi	s0,s0,0xff
 3284 0094 79BF     		j	.L149
 3285              	.LVL357:
 3286              	.L155:
 3287 0096 2287     		mv	a4,s0
 3288              	.LBB363:
 3289              	.LBB361:
 623:lcd.c         **** 	while(n--)result*=m;    
 3290              		.loc 1 623 6
 3291 0098 8547     		li	a5,1
 3292 009a 6DBF     		j	.L153
 3293              	.LVL358:
 3294              	.L154:
 3295              	.LBE361:
 3296              	.LBE363:
 3297 009c 0549     		li	s2,1
 3298              	.LVL359:
 3299              	.L151:
 652:lcd.c         **** 	}
 3300              		.loc 1 652 4 is_stmt 1
 3301 009e 5287     		mv	a4,s4
 3302 00a0 8146     		li	a3,0
 3303 00a2 13060603 		addi	a2,a2,48
 3304              	.LVL360:
 3305 00a6 F1BF     		j	.L157
 3306              		.cfi_endproc
GAS LISTING C:\Users\Duckb\AppData\Local\Temp\ccEgig1L.s 			page 78


 3307              	.LFE27:
 3309              		.globl	__mulsf3
 3310              		.globl	__fixunssfsi
 3311              		.section	.text.LCD_ShowNum1,"ax",@progbits
 3312              		.align	1
 3313              		.globl	LCD_ShowNum1
 3315              	LCD_ShowNum1:
 3316              	.LFB28:
 655:lcd.c         **** 
 656:lcd.c         **** 
 657:lcd.c         **** /*
 658:lcd.c         ****   Function description: display float number with 2 decimal places
 659:lcd.c         ****   Entry data: x, y:  start point coordinates
 660:lcd.c         ****                num:  float number to display
 661:lcd.c         ****                len:  number of digits to display
 662:lcd.c         ****   Return value: None
 663:lcd.c         **** */
 664:lcd.c         **** void LCD_ShowNum1(u16 x,u16 y,float num,u8 len,u16 color)
 665:lcd.c         **** {         	
 3317              		.loc 1 665 1
 3318              		.cfi_startproc
 3319              	.LVL361:
 666:lcd.c         **** 	u8 t,temp;
 3320              		.loc 1 666 2
 667:lcd.c         **** 	// u8 enshow=0;
 668:lcd.c         **** 	u16 num1;
 3321              		.loc 1 668 2
 669:lcd.c         **** 	num1=num*100;
 3322              		.loc 1 669 2
 665:lcd.c         **** 	u8 t,temp;
 3323              		.loc 1 665 1 is_stmt 0
 3324 0000 7971     		addi	sp,sp,-48
 3325              	.LCFI55:
 3326              		.cfi_def_cfa_offset 48
 3327              		.loc 1 669 10
 3328 0002 B7070000 		lui	a5,%hi(.LC1)
 665:lcd.c         **** 	u8 t,temp;
 3329              		.loc 1 665 1
 3330 0006 52CC     		sw	s4,24(sp)
 3331              		.cfi_offset 20, -24
 3332 0008 2E8A     		mv	s4,a1
 3333              		.loc 1 669 10
 3334 000a 83A50700 		lw	a1,%lo(.LC1)(a5)
 3335              	.LVL362:
 665:lcd.c         **** 	u8 t,temp;
 3336              		.loc 1 665 1
 3337 000e 4ECE     		sw	s3,28(sp)
 3338              		.cfi_offset 19, -20
 3339 0010 AA89     		mv	s3,a0
 3340              		.loc 1 669 10
 3341 0012 3285     		mv	a0,a2
 3342              	.LVL363:
 665:lcd.c         **** 	u8 t,temp;
 3343              		.loc 1 665 1
 3344 0014 06D6     		sw	ra,44(sp)
 3345 0016 22D4     		sw	s0,40(sp)
 3346 0018 26D2     		sw	s1,36(sp)
GAS LISTING C:\Users\Duckb\AppData\Local\Temp\ccEgig1L.s 			page 79


 3347 001a 56CA     		sw	s5,20(sp)
 3348 001c 5AC8     		sw	s6,16(sp)
 3349 001e 5EC6     		sw	s7,12(sp)
 3350 0020 62C4     		sw	s8,8(sp)
 3351              		.cfi_offset 1, -4
 3352              		.cfi_offset 8, -8
 3353              		.cfi_offset 9, -12
 3354              		.cfi_offset 21, -28
 3355              		.cfi_offset 22, -32
 3356              		.cfi_offset 23, -36
 3357              		.cfi_offset 24, -40
 3358 0022 B684     		mv	s1,a3
 3359 0024 BA8A     		mv	s5,a4
 3360 0026 4AD0     		sw	s2,32(sp)
 3361              		.cfi_offset 18, -16
 3362              		.loc 1 669 10
 3363 0028 97000000 		call	__mulsf3
 3363      E7800000 
 3364              	.LVL364:
 3365              		.loc 1 669 6
 3366 0030 97000000 		call	__fixunssfsi
 3366      E7800000 
 3367              	.LVL365:
 3368 0038 AA8B     		mv	s7,a0
 3369              	.LVL366:
 670:lcd.c         **** 	for(t=0;t<len;t++)
 3370              		.loc 1 670 2 is_stmt 1
 3371              		.loc 1 670 7 is_stmt 0
 3372 003a 0144     		li	s0,0
 3373              	.LBB364:
 3374              	.LBB365:
 624:lcd.c         **** 	return result;
 3375              		.loc 1 624 7
 3376 003c 130CF00F 		li	s8,255
 624:lcd.c         **** 	return result;
 3377              		.loc 1 624 18
 3378 0040 294B     		li	s6,10
 3379              	.LVL367:
 3380              	.L159:
 3381              	.LBE365:
 3382              	.LBE364:
 3383              		.loc 1 670 2 discriminator 1
 3384 0042 636E9400 		bgtu	s1,s0,.L163
 671:lcd.c         **** 	{
 672:lcd.c         **** 		temp=(num1/mypow(10,len-t-1))%10;
 673:lcd.c         **** 		if(t==(len-2))
 674:lcd.c         **** 		{
 675:lcd.c         **** 			LCD_ShowChar(x+8*(len-2),y,'.',0,color);
 676:lcd.c         **** 			t++;
 677:lcd.c         **** 			len+=1;
 678:lcd.c         **** 		}
 679:lcd.c         **** 	 	LCD_ShowChar(x+8*t,y,temp+48,0,color);
 680:lcd.c         **** 	}
 681:lcd.c         **** }
 3385              		.loc 1 681 1
 3386 0046 B250     		lw	ra,44(sp)
 3387              		.cfi_remember_state
GAS LISTING C:\Users\Duckb\AppData\Local\Temp\ccEgig1L.s 			page 80


 3388              		.cfi_restore 1
 3389 0048 2254     		lw	s0,40(sp)
 3390              		.cfi_restore 8
 3391              	.LVL368:
 3392 004a 9254     		lw	s1,36(sp)
 3393              		.cfi_restore 9
 3394              	.LVL369:
 3395 004c 0259     		lw	s2,32(sp)
 3396              		.cfi_restore 18
 3397 004e F249     		lw	s3,28(sp)
 3398              		.cfi_restore 19
 3399              	.LVL370:
 3400 0050 624A     		lw	s4,24(sp)
 3401              		.cfi_restore 20
 3402              	.LVL371:
 3403 0052 D24A     		lw	s5,20(sp)
 3404              		.cfi_restore 21
 3405              	.LVL372:
 3406 0054 424B     		lw	s6,16(sp)
 3407              		.cfi_restore 22
 3408 0056 B24B     		lw	s7,12(sp)
 3409              		.cfi_restore 23
 3410              	.LVL373:
 3411 0058 224C     		lw	s8,8(sp)
 3412              		.cfi_restore 24
 3413 005a 4561     		addi	sp,sp,48
 3414              	.LCFI56:
 3415              		.cfi_def_cfa_offset 0
 3416 005c 8280     		jr	ra
 3417              	.LVL374:
 3418              	.L163:
 3419              	.LCFI57:
 3420              		.cfi_restore_state
 672:lcd.c         **** 		if(t==(len-2))
 3421              		.loc 1 672 3 is_stmt 1
 672:lcd.c         **** 		if(t==(len-2))
 3422              		.loc 1 672 14 is_stmt 0
 3423 005e 9386F4FF 		addi	a3,s1,-1
 3424 0062 33878640 		sub	a4,a3,s0
 3425 0066 1377F70F 		andi	a4,a4,0xff
 3426              	.LVL375:
 3427              	.LBB368:
 3428              	.LBB366:
 623:lcd.c         **** 	while(n--)result*=m;    
 3429              		.loc 1 623 2 is_stmt 1
 624:lcd.c         **** 	return result;
 3430              		.loc 1 624 2
 623:lcd.c         **** 	while(n--)result*=m;    
 3431              		.loc 1 623 6 is_stmt 0
 3432 006a 8547     		li	a5,1
 3433              	.LVL376:
 3434              	.L160:
 624:lcd.c         **** 	return result;
 3435              		.loc 1 624 9
 3436 006c 7D17     		addi	a4,a4,-1
 3437              	.LVL377:
 3438 006e 1377F70F 		andi	a4,a4,0xff
GAS LISTING C:\Users\Duckb\AppData\Local\Temp\ccEgig1L.s 			page 81


 3439              	.LVL378:
 624:lcd.c         **** 	return result;
 3440              		.loc 1 624 7
 3441 0072 631A8705 		bne	a4,s8,.L161
 625:lcd.c         **** }
 3442              		.loc 1 625 2 is_stmt 1
 3443              	.LVL379:
 3444              	.LBE366:
 3445              	.LBE368:
 672:lcd.c         **** 		if(t==(len-2))
 3446              		.loc 1 672 13 is_stmt 0
 3447 0076 B3D7FB02 		divu	a5,s7,a5
 673:lcd.c         **** 		{
 3448              		.loc 1 673 13
 3449 007a 1385E4FF 		addi	a0,s1,-2
 672:lcd.c         **** 		if(t==(len-2))
 3450              		.loc 1 672 7
 3451 007e 33F96703 		remu	s2,a5,s6
 3452              	.LVL380:
 673:lcd.c         **** 		{
 3453              		.loc 1 673 3 is_stmt 1
 673:lcd.c         **** 		{
 3454              		.loc 1 673 5 is_stmt 0
 3455 0082 6312A402 		bne	s0,a0,.L162
 675:lcd.c         **** 			t++;
 3456              		.loc 1 675 20
 3457 0086 0E05     		slli	a0,a0,3
 3458 0088 13F4F60F 		andi	s0,a3,0xff
 3459              	.LVL381:
 675:lcd.c         **** 			t++;
 3460              		.loc 1 675 4 is_stmt 1
 3461 008c 5687     		mv	a4,s5
 3462 008e 8146     		li	a3,0
 3463 0090 1306E002 		li	a2,46
 3464 0094 D285     		mv	a1,s4
 3465 0096 4E95     		add	a0,a0,s3
 677:lcd.c         **** 		}
 3466              		.loc 1 677 7 is_stmt 0
 3467 0098 8504     		addi	s1,s1,1
 3468              	.LVL382:
 675:lcd.c         **** 			t++;
 3469              		.loc 1 675 4
 3470 009a 97000000 		call	LCD_ShowChar
 3470      E7800000 
 3471              	.LVL383:
 676:lcd.c         **** 			len+=1;
 3472              		.loc 1 676 4 is_stmt 1
 677:lcd.c         **** 		}
 3473              		.loc 1 677 4
 677:lcd.c         **** 		}
 3474              		.loc 1 677 7 is_stmt 0
 3475 00a2 93F4F40F 		andi	s1,s1,0xff
 3476              	.LVL384:
 3477              	.L162:
 679:lcd.c         **** 	}
 3478              		.loc 1 679 4 is_stmt 1 discriminator 2
 679:lcd.c         **** 	}
GAS LISTING C:\Users\Duckb\AppData\Local\Temp\ccEgig1L.s 			page 82


 3479              		.loc 1 679 20 is_stmt 0 discriminator 2
 3480 00a6 13153400 		slli	a0,s0,3
 679:lcd.c         **** 	}
 3481              		.loc 1 679 4 discriminator 2
 3482 00aa 5687     		mv	a4,s5
 3483 00ac 8146     		li	a3,0
 3484 00ae 13060903 		addi	a2,s2,48
 3485 00b2 D285     		mv	a1,s4
 3486 00b4 4E95     		add	a0,a0,s3
 670:lcd.c         **** 	{
 3487              		.loc 1 670 17 discriminator 2
 3488 00b6 0504     		addi	s0,s0,1
 3489              	.LVL385:
 679:lcd.c         **** 	}
 3490              		.loc 1 679 4 discriminator 2
 3491 00b8 97000000 		call	LCD_ShowChar
 3491      E7800000 
 3492              	.LVL386:
 670:lcd.c         **** 	{
 3493              		.loc 1 670 17 discriminator 2
 3494 00c0 1374F40F 		andi	s0,s0,0xff
 3495              	.LVL387:
 3496 00c4 BDBF     		j	.L159
 3497              	.LVL388:
 3498              	.L161:
 3499              	.LBB369:
 3500              	.LBB367:
 624:lcd.c         **** 	return result;
 3501              		.loc 1 624 12 is_stmt 1
 624:lcd.c         **** 	return result;
 3502              		.loc 1 624 18 is_stmt 0
 3503 00c6 B3876703 		mul	a5,a5,s6
 3504              	.LVL389:
 3505 00ca 4DB7     		j	.L160
 3506              	.LBE367:
 3507              	.LBE369:
 3508              		.cfi_endproc
 3509              	.LFE28:
 3511              		.section	.text.LCD_ShowPicture,"ax",@progbits
 3512              		.align	1
 3513              		.globl	LCD_ShowPicture
 3515              	LCD_ShowPicture:
 3516              	.LFB29:
 682:lcd.c         **** 
 683:lcd.c         **** 
 684:lcd.c         **** /*
 685:lcd.c         ****   Function description: display the image 
 686:lcd.c         ****   Entry data: x1, y1:  start coordinates
 687:lcd.c         ****               x2, y2:  end coordinates
 688:lcd.c         ****               *image:  pointer to image buffer
 689:lcd.c         ****   Return value: None
 690:lcd.c         ****   Note: image buffere contains 16-bit pixel colors
 691:lcd.c         ****         and its size must be (x2-x1+1) * (y2-y1+1) * 2
 692:lcd.c         ****   */
 693:lcd.c         **** void LCD_ShowPicture(u16 x1, u16 y1, u16 x2, u16 y2, u8 *image)
 694:lcd.c         **** {
 3517              		.loc 1 694 1 is_stmt 1
GAS LISTING C:\Users\Duckb\AppData\Local\Temp\ccEgig1L.s 			page 83


 3518              		.cfi_startproc
 3519              	.LVL390:
 695:lcd.c         **** 	int i;
 3520              		.loc 1 695 2
 696:lcd.c         **** 	int size = (x2-x1+1) * (y2-y1+1) * 2;
 3521              		.loc 1 696 2
 694:lcd.c         **** 	int i;
 3522              		.loc 1 694 1 is_stmt 0
 3523 0000 4111     		addi	sp,sp,-16
 3524              	.LCFI58:
 3525              		.cfi_def_cfa_offset 16
 3526 0002 22C4     		sw	s0,8(sp)
 3527              		.loc 1 696 28
 3528 0004 B387B640 		sub	a5,a3,a1
 3529              		.cfi_offset 8, -8
 3530              		.loc 1 696 16
 3531 0008 3304A640 		sub	s0,a2,a0
 3532              		.loc 1 696 31
 3533 000c 8507     		addi	a5,a5,1
 3534              		.loc 1 696 35
 3535 000e 0504     		addi	s0,s0,1
 3536 0010 3304F402 		mul	s0,s0,a5
 694:lcd.c         **** 	int i;
 3537              		.loc 1 694 1
 3538 0014 26C2     		sw	s1,4(sp)
 3539 0016 4AC0     		sw	s2,0(sp)
 3540 0018 06C6     		sw	ra,12(sp)
 3541              		.cfi_offset 9, -12
 3542              		.cfi_offset 18, -16
 3543              		.cfi_offset 1, -4
 694:lcd.c         **** 	int i;
 3544              		.loc 1 694 1
 3545 001a 3A89     		mv	s2,a4
 697:lcd.c         **** 	LCD_Address_Set(x1,y1,x2,y2);
 698:lcd.c         **** 	for(i=0;i<size;i++)
 3546              		.loc 1 698 7
 3547 001c 8144     		li	s1,0
 697:lcd.c         **** 	LCD_Address_Set(x1,y1,x2,y2);
 3548              		.loc 1 697 2
 3549 001e 97000000 		call	LCD_Address_Set
 3549      E7800000 
 3550              	.LVL391:
 696:lcd.c         **** 	LCD_Address_Set(x1,y1,x2,y2);
 3551              		.loc 1 696 35
 3552 0026 0604     		slli	s0,s0,1
 3553              	.LVL392:
 697:lcd.c         **** 	LCD_Address_Set(x1,y1,x2,y2);
 3554              		.loc 1 697 2 is_stmt 1
 3555              		.loc 1 698 2
 3556              	.L166:
 3557              		.loc 1 698 2 is_stmt 0 discriminator 1
 3558 0028 63C88400 		blt	s1,s0,.L167
 699:lcd.c         **** 	{ 	
 700:lcd.c         **** 		LCD_WR_DATA8(image[i]);
 701:lcd.c         **** 	}			
 702:lcd.c         **** }
 3559              		.loc 1 702 1
GAS LISTING C:\Users\Duckb\AppData\Local\Temp\ccEgig1L.s 			page 84


 3560 002c B240     		lw	ra,12(sp)
 3561              		.cfi_remember_state
 3562              		.cfi_restore 1
 3563 002e 2244     		lw	s0,8(sp)
 3564              		.cfi_restore 8
 3565              	.LVL393:
 3566 0030 9244     		lw	s1,4(sp)
 3567              		.cfi_restore 9
 3568              	.LVL394:
 3569 0032 0249     		lw	s2,0(sp)
 3570              		.cfi_restore 18
 3571              	.LVL395:
 3572 0034 4101     		addi	sp,sp,16
 3573              	.LCFI59:
 3574              		.cfi_def_cfa_offset 0
 3575 0036 8280     		jr	ra
 3576              	.LVL396:
 3577              	.L167:
 3578              	.LCFI60:
 3579              		.cfi_restore_state
 700:lcd.c         **** 	}			
 3580              		.loc 1 700 3 is_stmt 1 discriminator 3
 3581 0038 B3079900 		add	a5,s2,s1
 3582 003c 03C50700 		lbu	a0,0(a5)
 698:lcd.c         **** 	{ 	
 3583              		.loc 1 698 18 is_stmt 0 discriminator 3
 3584 0040 8504     		addi	s1,s1,1
 3585              	.LVL397:
 700:lcd.c         **** 	}			
 3586              		.loc 1 700 3 discriminator 3
 3587 0042 97000000 		call	LCD_WR_DATA8
 3587      E7800000 
 3588              	.LVL398:
 3589 004a F9BF     		j	.L166
 3590              		.cfi_endproc
 3591              	.LFE29:
 3593              		.globl	queue
 3594              		.globl	w
 3595              		.globl	r
 3596              		.globl	lcd_conf
 3597              		.comm	BACK_COLOR,4,4
 3598              		.globl	Hzk16
 3599              		.globl	asc2_1608
 3600              		.globl	Hzk32
 3601              		.section	.bss.queue,"aw",@nobits
 3602              		.align	2
 3603              		.set	.LANCHOR2,. + 0
 3606              	queue:
 3607 0000 00000000 		.zero	1024
 3607      00000000 
 3607      00000000 
 3607      00000000 
 3607      00000000 
 3608              		.section	.data.Hzk16,"aw"
 3609              		.align	2
 3610              		.set	.LANCHOR4,. + 0
 3613              	Hzk16:
GAS LISTING C:\Users\Duckb\AppData\Local\Temp\ccEgig1L.s 			page 85


 3614 0000 80       		.byte	-128
 3615 0001 00       		.byte	0
 3616 0002 80       		.byte	-128
 3617 0003 00       		.byte	0
 3618 0004 80       		.byte	-128
 3619 0005 00       		.byte	0
 3620 0006 80       		.byte	-128
 3621 0007 00       		.byte	0
 3622 0008 FC       		.byte	-4
 3623 0009 1F       		.byte	31
 3624 000a 84       		.byte	-124
 3625 000b 10       		.byte	16
 3626 000c 84       		.byte	-124
 3627 000d 10       		.byte	16
 3628 000e 84       		.byte	-124
 3629 000f 10       		.byte	16
 3630 0010 84       		.byte	-124
 3631 0011 10       		.byte	16
 3632 0012 84       		.byte	-124
 3633 0013 10       		.byte	16
 3634 0014 FC       		.byte	-4
 3635 0015 1F       		.byte	31
 3636 0016 84       		.byte	-124
 3637 0017 10       		.byte	16
 3638 0018 80       		.byte	-128
 3639 0019 00       		.byte	0
 3640 001a 80       		.byte	-128
 3641 001b 00       		.byte	0
 3642 001c 80       		.byte	-128
 3643 001d 00       		.byte	0
 3644 001e 80       		.byte	-128
 3645 001f 00       		.byte	0
 3646 0020 F8       		.byte	-8
 3647 0021 0F       		.byte	15
 3648 0022 08       		.byte	8
 3649 0023 08       		.byte	8
 3650 0024 F8       		.byte	-8
 3651 0025 0F       		.byte	15
 3652 0026 08       		.byte	8
 3653 0027 08       		.byte	8
 3654 0028 F8       		.byte	-8
 3655 0029 0F       		.byte	15
 3656 002a 80       		.byte	-128
 3657 002b 00       		.byte	0
 3658 002c FF       		.byte	-1
 3659 002d 7F       		.byte	127
 3660 002e 00       		.byte	0
 3661 002f 00       		.byte	0
 3662 0030 F8       		.byte	-8
 3663 0031 0F       		.byte	15
 3664 0032 08       		.byte	8
 3665 0033 08       		.byte	8
 3666 0034 08       		.byte	8
 3667 0035 08       		.byte	8
 3668 0036 F8       		.byte	-8
 3669 0037 0F       		.byte	15
 3670 0038 80       		.byte	-128
GAS LISTING C:\Users\Duckb\AppData\Local\Temp\ccEgig1L.s 			page 86


 3671 0039 00       		.byte	0
 3672 003a 84       		.byte	-124
 3673 003b 10       		.byte	16
 3674 003c A2       		.byte	-94
 3675 003d 20       		.byte	32
 3676 003e 40       		.byte	64
 3677 003f 00       		.byte	0
 3678 0040 00       		.byte	0
 3679 0041 00       		.byte	0
 3680 0042 FE       		.byte	-2
 3681 0043 3F       		.byte	63
 3682 0044 02       		.byte	2
 3683 0045 20       		.byte	32
 3684 0046 F2       		.byte	-14
 3685 0047 27       		.byte	39
 3686 0048 02       		.byte	2
 3687 0049 20       		.byte	32
 3688 004a 02       		.byte	2
 3689 004b 20       		.byte	32
 3690 004c FA       		.byte	-6
 3691 004d 2F       		.byte	47
 3692 004e 22       		.byte	34
 3693 004f 21       		.byte	33
 3694 0050 22       		.byte	34
 3695 0051 21       		.byte	33
 3696 0052 22       		.byte	34
 3697 0053 21       		.byte	33
 3698 0054 12       		.byte	18
 3699 0055 29       		.byte	41
 3700 0056 12       		.byte	18
 3701 0057 29       		.byte	41
 3702 0058 0A       		.byte	10
 3703 0059 2E       		.byte	46
 3704 005a 02       		.byte	2
 3705 005b 20       		.byte	32
 3706 005c FE       		.byte	-2
 3707 005d 3F       		.byte	63
 3708 005e 02       		.byte	2
 3709 005f 20       		.byte	32
 3710 0060 80       		.byte	-128
 3711 0061 00       		.byte	0
 3712 0062 80       		.byte	-128
 3713 0063 00       		.byte	0
 3714 0064 80       		.byte	-128
 3715 0065 00       		.byte	0
 3716 0066 FC       		.byte	-4
 3717 0067 1F       		.byte	31
 3718 0068 84       		.byte	-124
 3719 0069 10       		.byte	16
 3720 006a 84       		.byte	-124
 3721 006b 10       		.byte	16
 3722 006c 84       		.byte	-124
 3723 006d 10       		.byte	16
 3724 006e FC       		.byte	-4
 3725 006f 1F       		.byte	31
 3726 0070 84       		.byte	-124
 3727 0071 10       		.byte	16
GAS LISTING C:\Users\Duckb\AppData\Local\Temp\ccEgig1L.s 			page 87


 3728 0072 84       		.byte	-124
 3729 0073 10       		.byte	16
 3730 0074 84       		.byte	-124
 3731 0075 10       		.byte	16
 3732 0076 FC       		.byte	-4
 3733 0077 1F       		.byte	31
 3734 0078 84       		.byte	-124
 3735 0079 50       		.byte	80
 3736 007a 80       		.byte	-128
 3737 007b 40       		.byte	64
 3738 007c 80       		.byte	-128
 3739 007d 40       		.byte	64
 3740 007e 00       		.byte	0
 3741 007f 7F       		.byte	127
 3742 0080 00       		.byte	0
 3743 0081 00       		.byte	0
 3744 0082 FE       		.byte	-2
 3745 0083 1F       		.byte	31
 3746 0084 00       		.byte	0
 3747 0085 08       		.byte	8
 3748 0086 00       		.byte	0
 3749 0087 04       		.byte	4
 3750 0088 00       		.byte	0
 3751 0089 02       		.byte	2
 3752 008a 80       		.byte	-128
 3753 008b 01       		.byte	1
 3754 008c 80       		.byte	-128
 3755 008d 00       		.byte	0
 3756 008e FF       		.byte	-1
 3757 008f 7F       		.byte	127
 3758 0090 80       		.byte	-128
 3759 0091 00       		.byte	0
 3760 0092 80       		.byte	-128
 3761 0093 00       		.byte	0
 3762 0094 80       		.byte	-128
 3763 0095 00       		.byte	0
 3764 0096 80       		.byte	-128
 3765 0097 00       		.byte	0
 3766 0098 80       		.byte	-128
 3767 0099 00       		.byte	0
 3768 009a 80       		.byte	-128
 3769 009b 00       		.byte	0
 3770 009c A0       		.byte	-96
 3771 009d 00       		.byte	0
 3772 009e 40       		.byte	64
 3773 009f 00       		.byte	0
 3774 00a0 10       		.byte	16
 3775 00a1 08       		.byte	8
 3776 00a2 B8       		.byte	-72
 3777 00a3 08       		.byte	8
 3778 00a4 0F       		.byte	15
 3779 00a5 09       		.byte	9
 3780 00a6 08       		.byte	8
 3781 00a7 09       		.byte	9
 3782 00a8 08       		.byte	8
 3783 00a9 08       		.byte	8
 3784 00aa BF       		.byte	-65
GAS LISTING C:\Users\Duckb\AppData\Local\Temp\ccEgig1L.s 			page 88


 3785 00ab 08       		.byte	8
 3786 00ac 08       		.byte	8
 3787 00ad 09       		.byte	9
 3788 00ae 1C       		.byte	28
 3789 00af 09       		.byte	9
 3790 00b0 2C       		.byte	44
 3791 00b1 08       		.byte	8
 3792 00b2 0A       		.byte	10
 3793 00b3 78       		.byte	120
 3794 00b4 CA       		.byte	-54
 3795 00b5 0F       		.byte	15
 3796 00b6 09       		.byte	9
 3797 00b7 08       		.byte	8
 3798 00b8 08       		.byte	8
 3799 00b9 08       		.byte	8
 3800 00ba 08       		.byte	8
 3801 00bb 08       		.byte	8
 3802 00bc 08       		.byte	8
 3803 00bd 08       		.byte	8
 3804 00be 08       		.byte	8
 3805 00bf 08       		.byte	8
 3806 00c0 08       		.byte	8
 3807 00c1 04       		.byte	4
 3808 00c2 08       		.byte	8
 3809 00c3 04       		.byte	4
 3810 00c4 08       		.byte	8
 3811 00c5 04       		.byte	4
 3812 00c6 C8       		.byte	-56
 3813 00c7 7F       		.byte	127
 3814 00c8 3F       		.byte	63
 3815 00c9 04       		.byte	4
 3816 00ca 08       		.byte	8
 3817 00cb 04       		.byte	4
 3818 00cc 08       		.byte	8
 3819 00cd 04       		.byte	4
 3820 00ce A8       		.byte	-88
 3821 00cf 3F       		.byte	63
 3822 00d0 18       		.byte	24
 3823 00d1 21       		.byte	33
 3824 00d2 0C       		.byte	12
 3825 00d3 11       		.byte	17
 3826 00d4 0B       		.byte	11
 3827 00d5 12       		.byte	18
 3828 00d6 08       		.byte	8
 3829 00d7 0A       		.byte	10
 3830 00d8 08       		.byte	8
 3831 00d9 04       		.byte	4
 3832 00da 08       		.byte	8
 3833 00db 0A       		.byte	10
 3834 00dc 8A       		.byte	-118
 3835 00dd 11       		.byte	17
 3836 00de 64       		.byte	100
 3837 00df 60       		.byte	96
 3838              		.section	.data.Hzk32,"aw"
 3839              		.align	2
 3840              		.set	.LANCHOR5,. + 0
 3843              	Hzk32:
GAS LISTING C:\Users\Duckb\AppData\Local\Temp\ccEgig1L.s 			page 89


 3844 0000 00       		.byte	0
 3845 0001 00       		.byte	0
 3846 0002 00       		.byte	0
 3847 0003 00       		.byte	0
 3848 0004 00       		.byte	0
 3849 0005 00       		.byte	0
 3850 0006 00       		.byte	0
 3851 0007 00       		.byte	0
 3852 0008 00       		.byte	0
 3853 0009 80       		.byte	-128
 3854 000a 00       		.byte	0
 3855 000b 00       		.byte	0
 3856 000c 00       		.byte	0
 3857 000d 80       		.byte	-128
 3858 000e 01       		.byte	1
 3859 000f 00       		.byte	0
 3860 0010 00       		.byte	0
 3861 0011 80       		.byte	-128
 3862 0012 01       		.byte	1
 3863 0013 00       		.byte	0
 3864 0014 00       		.byte	0
 3865 0015 80       		.byte	-128
 3866 0016 01       		.byte	1
 3867 0017 00       		.byte	0
 3868 0018 00       		.byte	0
 3869 0019 80       		.byte	-128
 3870 001a 01       		.byte	1
 3871 001b 00       		.byte	0
 3872 001c 00       		.byte	0
 3873 001d 80       		.byte	-128
 3874 001e 01       		.byte	1
 3875 001f 00       		.byte	0
 3876 0020 10       		.byte	16
 3877 0021 80       		.byte	-128
 3878 0022 01       		.byte	1
 3879 0023 0C       		.byte	12
 3880 0024 F0       		.byte	-16
 3881 0025 FF       		.byte	-1
 3882 0026 FF       		.byte	-1
 3883 0027 0F       		.byte	15
 3884 0028 30       		.byte	48
 3885 0029 80       		.byte	-128
 3886 002a 01       		.byte	1
 3887 002b 04       		.byte	4
 3888 002c 30       		.byte	48
 3889 002d 80       		.byte	-128
 3890 002e 01       		.byte	1
 3891 002f 04       		.byte	4
 3892 0030 30       		.byte	48
 3893 0031 80       		.byte	-128
 3894 0032 01       		.byte	1
 3895 0033 04       		.byte	4
 3896 0034 30       		.byte	48
 3897 0035 80       		.byte	-128
 3898 0036 01       		.byte	1
 3899 0037 04       		.byte	4
 3900 0038 30       		.byte	48
GAS LISTING C:\Users\Duckb\AppData\Local\Temp\ccEgig1L.s 			page 90


 3901 0039 80       		.byte	-128
 3902 003a 01       		.byte	1
 3903 003b 04       		.byte	4
 3904 003c 30       		.byte	48
 3905 003d 80       		.byte	-128
 3906 003e 01       		.byte	1
 3907 003f 04       		.byte	4
 3908 0040 30       		.byte	48
 3909 0041 80       		.byte	-128
 3910 0042 01       		.byte	1
 3911 0043 04       		.byte	4
 3912 0044 30       		.byte	48
 3913 0045 80       		.byte	-128
 3914 0046 01       		.byte	1
 3915 0047 04       		.byte	4
 3916 0048 F0       		.byte	-16
 3917 0049 FF       		.byte	-1
 3918 004a FF       		.byte	-1
 3919 004b 07       		.byte	7
 3920 004c 30       		.byte	48
 3921 004d 80       		.byte	-128
 3922 004e 01       		.byte	1
 3923 004f 04       		.byte	4
 3924 0050 30       		.byte	48
 3925 0051 80       		.byte	-128
 3926 0052 01       		.byte	1
 3927 0053 04       		.byte	4
 3928 0054 00       		.byte	0
 3929 0055 80       		.byte	-128
 3930 0056 01       		.byte	1
 3931 0057 00       		.byte	0
 3932 0058 00       		.byte	0
 3933 0059 80       		.byte	-128
 3934 005a 01       		.byte	1
 3935 005b 00       		.byte	0
 3936 005c 00       		.byte	0
 3937 005d 80       		.byte	-128
 3938 005e 01       		.byte	1
 3939 005f 00       		.byte	0
 3940 0060 00       		.byte	0
 3941 0061 80       		.byte	-128
 3942 0062 01       		.byte	1
 3943 0063 00       		.byte	0
 3944 0064 00       		.byte	0
 3945 0065 80       		.byte	-128
 3946 0066 01       		.byte	1
 3947 0067 00       		.byte	0
 3948 0068 00       		.byte	0
 3949 0069 80       		.byte	-128
 3950 006a 01       		.byte	1
 3951 006b 00       		.byte	0
 3952 006c 00       		.byte	0
 3953 006d 80       		.byte	-128
 3954 006e 01       		.byte	1
 3955 006f 00       		.byte	0
 3956 0070 00       		.byte	0
 3957 0071 80       		.byte	-128
GAS LISTING C:\Users\Duckb\AppData\Local\Temp\ccEgig1L.s 			page 91


 3958 0072 01       		.byte	1
 3959 0073 00       		.byte	0
 3960 0074 00       		.byte	0
 3961 0075 80       		.byte	-128
 3962 0076 01       		.byte	1
 3963 0077 00       		.byte	0
 3964 0078 00       		.byte	0
 3965 0079 80       		.byte	-128
 3966 007a 00       		.byte	0
 3967 007b 00       		.byte	0
 3968 007c 00       		.byte	0
 3969 007d 00       		.byte	0
 3970 007e 00       		.byte	0
 3971 007f 00       		.byte	0
 3972 0080 00       		.byte	0
 3973 0081 00       		.byte	0
 3974 0082 00       		.byte	0
 3975 0083 00       		.byte	0
 3976 0084 00       		.byte	0
 3977 0085 00       		.byte	0
 3978 0086 00       		.byte	0
 3979 0087 00       		.byte	0
 3980 0088 00       		.byte	0
 3981 0089 00       		.byte	0
 3982 008a 00       		.byte	0
 3983 008b 00       		.byte	0
 3984 008c 00       		.byte	0
 3985 008d 01       		.byte	1
 3986 008e 80       		.byte	-128
 3987 008f 01       		.byte	1
 3988 0090 00       		.byte	0
 3989 0091 FF       		.byte	-1
 3990 0092 FF       		.byte	-1
 3991 0093 01       		.byte	1
 3992 0094 00       		.byte	0
 3993 0095 03       		.byte	3
 3994 0096 80       		.byte	-128
 3995 0097 01       		.byte	1
 3996 0098 00       		.byte	0
 3997 0099 03       		.byte	3
 3998 009a 80       		.byte	-128
 3999 009b 01       		.byte	1
 4000 009c 00       		.byte	0
 4001 009d FF       		.byte	-1
 4002 009e FF       		.byte	-1
 4003 009f 01       		.byte	1
 4004 00a0 00       		.byte	0
 4005 00a1 03       		.byte	3
 4006 00a2 80       		.byte	-128
 4007 00a3 01       		.byte	1
 4008 00a4 00       		.byte	0
 4009 00a5 03       		.byte	3
 4010 00a6 80       		.byte	-128
 4011 00a7 01       		.byte	1
 4012 00a8 00       		.byte	0
 4013 00a9 FF       		.byte	-1
 4014 00aa FF       		.byte	-1
GAS LISTING C:\Users\Duckb\AppData\Local\Temp\ccEgig1L.s 			page 92


 4015 00ab 01       		.byte	1
 4016 00ac 00       		.byte	0
 4017 00ad 81       		.byte	-127
 4018 00ae 81       		.byte	-127
 4019 00af 00       		.byte	0
 4020 00b0 00       		.byte	0
 4021 00b1 00       		.byte	0
 4022 00b2 03       		.byte	3
 4023 00b3 00       		.byte	0
 4024 00b4 00       		.byte	0
 4025 00b5 00       		.byte	0
 4026 00b6 03       		.byte	3
 4027 00b7 1C       		.byte	28
 4028 00b8 FC       		.byte	-4
 4029 00b9 FF       		.byte	-1
 4030 00ba FF       		.byte	-1
 4031 00bb 3F       		.byte	63
 4032 00bc 00       		.byte	0
 4033 00bd 00       		.byte	0
 4034 00be 40       		.byte	64
 4035 00bf 00       		.byte	0
 4036 00c0 00       		.byte	0
 4037 00c1 03       		.byte	3
 4038 00c2 C0       		.byte	-64
 4039 00c3 01       		.byte	1
 4040 00c4 00       		.byte	0
 4041 00c5 FF       		.byte	-1
 4042 00c6 FF       		.byte	-1
 4043 00c7 01       		.byte	1
 4044 00c8 00       		.byte	0
 4045 00c9 03       		.byte	3
 4046 00ca C0       		.byte	-64
 4047 00cb 00       		.byte	0
 4048 00cc 00       		.byte	0
 4049 00cd 03       		.byte	3
 4050 00ce C0       		.byte	-64
 4051 00cf 00       		.byte	0
 4052 00d0 00       		.byte	0
 4053 00d1 03       		.byte	3
 4054 00d2 C0       		.byte	-64
 4055 00d3 00       		.byte	0
 4056 00d4 00       		.byte	0
 4057 00d5 FF       		.byte	-1
 4058 00d6 FF       		.byte	-1
 4059 00d7 00       		.byte	0
 4060 00d8 00       		.byte	0
 4061 00d9 01       		.byte	1
 4062 00da 41       		.byte	65
 4063 00db 00       		.byte	0
 4064 00dc 00       		.byte	0
 4065 00dd 04       		.byte	4
 4066 00de 01       		.byte	1
 4067 00df 00       		.byte	0
 4068 00e0 00       		.byte	0
 4069 00e1 0E       		.byte	14
 4070 00e2 71       		.byte	113
 4071 00e3 00       		.byte	0
GAS LISTING C:\Users\Duckb\AppData\Local\Temp\ccEgig1L.s 			page 93


 4072 00e4 00       		.byte	0
 4073 00e5 07       		.byte	7
 4074 00e6 81       		.byte	-127
 4075 00e7 01       		.byte	1
 4076 00e8 80       		.byte	-128
 4077 00e9 01       		.byte	1
 4078 00ea 01       		.byte	1
 4079 00eb 07       		.byte	7
 4080 00ec 60       		.byte	96
 4081 00ed 00       		.byte	0
 4082 00ee 01       		.byte	1
 4083 00ef 0E       		.byte	14
 4084 00f0 18       		.byte	24
 4085 00f1 98       		.byte	-104
 4086 00f2 01       		.byte	1
 4087 00f3 1C       		.byte	28
 4088 00f4 04       		.byte	4
 4089 00f5 E0       		.byte	-32
 4090 00f6 01       		.byte	1
 4091 00f7 18       		.byte	24
 4092 00f8 00       		.byte	0
 4093 00f9 C0       		.byte	-64
 4094 00fa 00       		.byte	0
 4095 00fb 00       		.byte	0
 4096 00fc 00       		.byte	0
 4097 00fd 00       		.byte	0
 4098 00fe 00       		.byte	0
 4099 00ff 00       		.byte	0
 4100 0100 00       		.byte	0
 4101 0101 00       		.byte	0
 4102 0102 00       		.byte	0
 4103 0103 00       		.byte	0
 4104 0104 00       		.byte	0
 4105 0105 00       		.byte	0
 4106 0106 00       		.byte	0
 4107 0107 00       		.byte	0
 4108 0108 00       		.byte	0
 4109 0109 00       		.byte	0
 4110 010a 00       		.byte	0
 4111 010b 08       		.byte	8
 4112 010c F0       		.byte	-16
 4113 010d FF       		.byte	-1
 4114 010e FF       		.byte	-1
 4115 010f 1F       		.byte	31
 4116 0110 30       		.byte	48
 4117 0111 00       		.byte	0
 4118 0112 00       		.byte	0
 4119 0113 0C       		.byte	12
 4120 0114 30       		.byte	48
 4121 0115 00       		.byte	0
 4122 0116 00       		.byte	0
 4123 0117 0C       		.byte	12
 4124 0118 30       		.byte	48
 4125 0119 00       		.byte	0
 4126 011a 10       		.byte	16
 4127 011b 0C       		.byte	12
 4128 011c 30       		.byte	48
GAS LISTING C:\Users\Duckb\AppData\Local\Temp\ccEgig1L.s 			page 94


 4129 011d FE       		.byte	-2
 4130 011e 3F       		.byte	63
 4131 011f 0C       		.byte	12
 4132 0120 30       		.byte	48
 4133 0121 04       		.byte	4
 4134 0122 00       		.byte	0
 4135 0123 0C       		.byte	12
 4136 0124 30       		.byte	48
 4137 0125 00       		.byte	0
 4138 0126 00       		.byte	0
 4139 0127 0C       		.byte	12
 4140 0128 30       		.byte	48
 4141 0129 00       		.byte	0
 4142 012a 00       		.byte	0
 4143 012b 0C       		.byte	12
 4144 012c 30       		.byte	48
 4145 012d 00       		.byte	0
 4146 012e 00       		.byte	0
 4147 012f 0C       		.byte	12
 4148 0130 30       		.byte	48
 4149 0131 00       		.byte	0
 4150 0132 C0       		.byte	-64
 4151 0133 0C       		.byte	12
 4152 0134 F0       		.byte	-16
 4153 0135 FF       		.byte	-1
 4154 0136 FF       		.byte	-1
 4155 0137 0D       		.byte	13
 4156 0138 30       		.byte	48
 4157 0139 30       		.byte	48
 4158 013a 06       		.byte	6
 4159 013b 0E       		.byte	14
 4160 013c 30       		.byte	48
 4161 013d 30       		.byte	48
 4162 013e 06       		.byte	6
 4163 013f 0C       		.byte	12
 4164 0140 30       		.byte	48
 4165 0141 10       		.byte	16
 4166 0142 06       		.byte	6
 4167 0143 0C       		.byte	12
 4168 0144 30       		.byte	48
 4169 0145 10       		.byte	16
 4170 0146 06       		.byte	6
 4171 0147 0C       		.byte	12
 4172 0148 30       		.byte	48
 4173 0149 10       		.byte	16
 4174 014a 06       		.byte	6
 4175 014b 0C       		.byte	12
 4176 014c 30       		.byte	48
 4177 014d 18       		.byte	24
 4178 014e 86       		.byte	-122
 4179 014f 0C       		.byte	12
 4180 0150 30       		.byte	48
 4181 0151 18       		.byte	24
 4182 0152 86       		.byte	-122
 4183 0153 0C       		.byte	12
 4184 0154 30       		.byte	48
 4185 0155 08       		.byte	8
GAS LISTING C:\Users\Duckb\AppData\Local\Temp\ccEgig1L.s 			page 95


 4186 0156 06       		.byte	6
 4187 0157 0D       		.byte	13
 4188 0158 30       		.byte	48
 4189 0159 0C       		.byte	12
 4190 015a 86       		.byte	-122
 4191 015b 0D       		.byte	13
 4192 015c 30       		.byte	48
 4193 015d 06       		.byte	6
 4194 015e EE       		.byte	-18
 4195 015f 0F       		.byte	15
 4196 0160 30       		.byte	48
 4197 0161 02       		.byte	2
 4198 0162 FC       		.byte	-4
 4199 0163 0D       		.byte	13
 4200 0164 30       		.byte	48
 4201 0165 01       		.byte	1
 4202 0166 00       		.byte	0
 4203 0167 0C       		.byte	12
 4204 0168 F0       		.byte	-16
 4205 0169 00       		.byte	0
 4206 016a 00       		.byte	0
 4207 016b 0C       		.byte	12
 4208 016c 30       		.byte	48
 4209 016d 00       		.byte	0
 4210 016e 00       		.byte	0
 4211 016f 0C       		.byte	12
 4212 0170 F0       		.byte	-16
 4213 0171 FF       		.byte	-1
 4214 0172 FF       		.byte	-1
 4215 0173 0F       		.byte	15
 4216 0174 30       		.byte	48
 4217 0175 00       		.byte	0
 4218 0176 00       		.byte	0
 4219 0177 0C       		.byte	12
 4220 0178 10       		.byte	16
 4221 0179 00       		.byte	0
 4222 017a 00       		.byte	0
 4223 017b 04       		.byte	4
 4224 017c 00       		.byte	0
 4225 017d 00       		.byte	0
 4226 017e 00       		.byte	0
 4227 017f 00       		.byte	0
 4228 0180 00       		.byte	0
 4229 0181 00       		.byte	0
 4230 0182 00       		.byte	0
 4231 0183 00       		.byte	0
 4232 0184 00       		.byte	0
 4233 0185 00       		.byte	0
 4234 0186 00       		.byte	0
 4235 0187 00       		.byte	0
 4236 0188 00       		.byte	0
 4237 0189 C0       		.byte	-64
 4238 018a 00       		.byte	0
 4239 018b 00       		.byte	0
 4240 018c 00       		.byte	0
 4241 018d C0       		.byte	-64
 4242 018e 01       		.byte	1
GAS LISTING C:\Users\Duckb\AppData\Local\Temp\ccEgig1L.s 			page 96


 4243 018f 00       		.byte	0
 4244 0190 00       		.byte	0
 4245 0191 C0       		.byte	-64
 4246 0192 00       		.byte	0
 4247 0193 00       		.byte	0
 4248 0194 00       		.byte	0
 4249 0195 C0       		.byte	-64
 4250 0196 00       		.byte	0
 4251 0197 00       		.byte	0
 4252 0198 00       		.byte	0
 4253 0199 C0       		.byte	-64
 4254 019a 00       		.byte	0
 4255 019b 00       		.byte	0
 4256 019c 00       		.byte	0
 4257 019d C0       		.byte	-64
 4258 019e 00       		.byte	0
 4259 019f 00       		.byte	0
 4260 01a0 E0       		.byte	-32
 4261 01a1 FF       		.byte	-1
 4262 01a2 FF       		.byte	-1
 4263 01a3 03       		.byte	3
 4264 01a4 60       		.byte	96
 4265 01a5 C0       		.byte	-64
 4266 01a6 00       		.byte	0
 4267 01a7 03       		.byte	3
 4268 01a8 60       		.byte	96
 4269 01a9 C0       		.byte	-64
 4270 01aa 00       		.byte	0
 4271 01ab 03       		.byte	3
 4272 01ac 60       		.byte	96
 4273 01ad C0       		.byte	-64
 4274 01ae 00       		.byte	0
 4275 01af 03       		.byte	3
 4276 01b0 60       		.byte	96
 4277 01b1 C0       		.byte	-64
 4278 01b2 00       		.byte	0
 4279 01b3 03       		.byte	3
 4280 01b4 60       		.byte	96
 4281 01b5 C0       		.byte	-64
 4282 01b6 00       		.byte	0
 4283 01b7 03       		.byte	3
 4284 01b8 60       		.byte	96
 4285 01b9 C0       		.byte	-64
 4286 01ba 00       		.byte	0
 4287 01bb 03       		.byte	3
 4288 01bc E0       		.byte	-32
 4289 01bd FF       		.byte	-1
 4290 01be FF       		.byte	-1
 4291 01bf 03       		.byte	3
 4292 01c0 60       		.byte	96
 4293 01c1 C0       		.byte	-64
 4294 01c2 00       		.byte	0
 4295 01c3 03       		.byte	3
 4296 01c4 60       		.byte	96
 4297 01c5 C0       		.byte	-64
 4298 01c6 00       		.byte	0
 4299 01c7 03       		.byte	3
GAS LISTING C:\Users\Duckb\AppData\Local\Temp\ccEgig1L.s 			page 97


 4300 01c8 60       		.byte	96
 4301 01c9 C0       		.byte	-64
 4302 01ca 00       		.byte	0
 4303 01cb 03       		.byte	3
 4304 01cc 60       		.byte	96
 4305 01cd C0       		.byte	-64
 4306 01ce 00       		.byte	0
 4307 01cf 03       		.byte	3
 4308 01d0 60       		.byte	96
 4309 01d1 C0       		.byte	-64
 4310 01d2 00       		.byte	0
 4311 01d3 03       		.byte	3
 4312 01d4 E0       		.byte	-32
 4313 01d5 FF       		.byte	-1
 4314 01d6 FF       		.byte	-1
 4315 01d7 03       		.byte	3
 4316 01d8 60       		.byte	96
 4317 01d9 C0       		.byte	-64
 4318 01da 00       		.byte	0
 4319 01db 01       		.byte	1
 4320 01dc 60       		.byte	96
 4321 01dd C0       		.byte	-64
 4322 01de 00       		.byte	0
 4323 01df 00       		.byte	0
 4324 01e0 00       		.byte	0
 4325 01e1 C0       		.byte	-64
 4326 01e2 00       		.byte	0
 4327 01e3 08       		.byte	8
 4328 01e4 00       		.byte	0
 4329 01e5 C0       		.byte	-64
 4330 01e6 00       		.byte	0
 4331 01e7 10       		.byte	16
 4332 01e8 00       		.byte	0
 4333 01e9 C0       		.byte	-64
 4334 01ea 00       		.byte	0
 4335 01eb 10       		.byte	16
 4336 01ec 00       		.byte	0
 4337 01ed C0       		.byte	-64
 4338 01ee 00       		.byte	0
 4339 01ef 18       		.byte	24
 4340 01f0 00       		.byte	0
 4341 01f1 C0       		.byte	-64
 4342 01f2 01       		.byte	1
 4343 01f3 38       		.byte	56
 4344 01f4 00       		.byte	0
 4345 01f5 80       		.byte	-128
 4346 01f6 FF       		.byte	-1
 4347 01f7 1F       		.byte	31
 4348 01f8 00       		.byte	0
 4349 01f9 00       		.byte	0
 4350 01fa 00       		.byte	0
 4351 01fb 00       		.byte	0
 4352 01fc 00       		.byte	0
 4353 01fd 00       		.byte	0
 4354 01fe 00       		.byte	0
 4355 01ff 00       		.byte	0
 4356 0200 00       		.byte	0
GAS LISTING C:\Users\Duckb\AppData\Local\Temp\ccEgig1L.s 			page 98


 4357 0201 00       		.byte	0
 4358 0202 00       		.byte	0
 4359 0203 00       		.byte	0
 4360 0204 00       		.byte	0
 4361 0205 00       		.byte	0
 4362 0206 00       		.byte	0
 4363 0207 00       		.byte	0
 4364 0208 00       		.byte	0
 4365 0209 00       		.byte	0
 4366 020a 00       		.byte	0
 4367 020b 00       		.byte	0
 4368 020c 00       		.byte	0
 4369 020d 00       		.byte	0
 4370 020e 00       		.byte	0
 4371 020f 03       		.byte	3
 4372 0210 C0       		.byte	-64
 4373 0211 FF       		.byte	-1
 4374 0212 FF       		.byte	-1
 4375 0213 07       		.byte	7
 4376 0214 00       		.byte	0
 4377 0215 00       		.byte	0
 4378 0216 80       		.byte	-128
 4379 0217 07       		.byte	7
 4380 0218 00       		.byte	0
 4381 0219 00       		.byte	0
 4382 021a C0       		.byte	-64
 4383 021b 00       		.byte	0
 4384 021c 00       		.byte	0
 4385 021d 00       		.byte	0
 4386 021e 60       		.byte	96
 4387 021f 00       		.byte	0
 4388 0220 00       		.byte	0
 4389 0221 00       		.byte	0
 4390 0222 18       		.byte	24
 4391 0223 00       		.byte	0
 4392 0224 00       		.byte	0
 4393 0225 00       		.byte	0
 4394 0226 0C       		.byte	12
 4395 0227 00       		.byte	0
 4396 0228 00       		.byte	0
 4397 0229 80       		.byte	-128
 4398 022a 03       		.byte	3
 4399 022b 00       		.byte	0
 4400 022c 00       		.byte	0
 4401 022d 80       		.byte	-128
 4402 022e 03       		.byte	3
 4403 022f 00       		.byte	0
 4404 0230 00       		.byte	0
 4405 0231 80       		.byte	-128
 4406 0232 01       		.byte	1
 4407 0233 00       		.byte	0
 4408 0234 00       		.byte	0
 4409 0235 80       		.byte	-128
 4410 0236 01       		.byte	1
 4411 0237 08       		.byte	8
 4412 0238 00       		.byte	0
 4413 0239 80       		.byte	-128
GAS LISTING C:\Users\Duckb\AppData\Local\Temp\ccEgig1L.s 			page 99


 4414 023a 01       		.byte	1
 4415 023b 1C       		.byte	28
 4416 023c FC       		.byte	-4
 4417 023d FF       		.byte	-1
 4418 023e FF       		.byte	-1
 4419 023f 3F       		.byte	63
 4420 0240 00       		.byte	0
 4421 0241 80       		.byte	-128
 4422 0242 01       		.byte	1
 4423 0243 00       		.byte	0
 4424 0244 00       		.byte	0
 4425 0245 80       		.byte	-128
 4426 0246 01       		.byte	1
 4427 0247 00       		.byte	0
 4428 0248 00       		.byte	0
 4429 0249 80       		.byte	-128
 4430 024a 01       		.byte	1
 4431 024b 00       		.byte	0
 4432 024c 00       		.byte	0
 4433 024d 80       		.byte	-128
 4434 024e 01       		.byte	1
 4435 024f 00       		.byte	0
 4436 0250 00       		.byte	0
 4437 0251 80       		.byte	-128
 4438 0252 01       		.byte	1
 4439 0253 00       		.byte	0
 4440 0254 00       		.byte	0
 4441 0255 80       		.byte	-128
 4442 0256 01       		.byte	1
 4443 0257 00       		.byte	0
 4444 0258 00       		.byte	0
 4445 0259 80       		.byte	-128
 4446 025a 01       		.byte	1
 4447 025b 00       		.byte	0
 4448 025c 00       		.byte	0
 4449 025d 80       		.byte	-128
 4450 025e 01       		.byte	1
 4451 025f 00       		.byte	0
 4452 0260 00       		.byte	0
 4453 0261 80       		.byte	-128
 4454 0262 01       		.byte	1
 4455 0263 00       		.byte	0
 4456 0264 00       		.byte	0
 4457 0265 80       		.byte	-128
 4458 0266 01       		.byte	1
 4459 0267 00       		.byte	0
 4460 0268 00       		.byte	0
 4461 0269 80       		.byte	-128
 4462 026a 01       		.byte	1
 4463 026b 00       		.byte	0
 4464 026c 00       		.byte	0
 4465 026d 80       		.byte	-128
 4466 026e 01       		.byte	1
 4467 026f 00       		.byte	0
 4468 0270 00       		.byte	0
 4469 0271 FC       		.byte	-4
 4470 0272 01       		.byte	1
GAS LISTING C:\Users\Duckb\AppData\Local\Temp\ccEgig1L.s 			page 100


 4471 0273 00       		.byte	0
 4472 0274 00       		.byte	0
 4473 0275 E0       		.byte	-32
 4474 0276 00       		.byte	0
 4475 0277 00       		.byte	0
 4476 0278 00       		.byte	0
 4477 0279 40       		.byte	64
 4478 027a 00       		.byte	0
 4479 027b 00       		.byte	0
 4480 027c 00       		.byte	0
 4481 027d 00       		.byte	0
 4482 027e 00       		.byte	0
 4483 027f 00       		.byte	0
 4484              		.section	.rodata.LCD_ShowNum1.cst4,"aM",@progbits,4
 4485              		.align	2
 4486              	.LC1:
 4487 0000 0000C842 		.word	1120403456
 4488              		.section	.rodata.asc2_1608,"a"
 4489              		.align	2
 4490              		.set	.LANCHOR6,. + 0
 4493              	asc2_1608:
 4494 0000 00       		.byte	0
 4495 0001 00       		.byte	0
 4496 0002 00       		.byte	0
 4497 0003 00       		.byte	0
 4498 0004 00       		.byte	0
 4499 0005 00       		.byte	0
 4500 0006 00       		.byte	0
 4501 0007 00       		.byte	0
 4502 0008 00       		.byte	0
 4503 0009 00       		.byte	0
 4504 000a 00       		.byte	0
 4505 000b 00       		.byte	0
 4506 000c 00       		.byte	0
 4507 000d 00       		.byte	0
 4508 000e 00       		.byte	0
 4509 000f 00       		.byte	0
 4510 0010 00       		.byte	0
 4511 0011 00       		.byte	0
 4512 0012 00       		.byte	0
 4513 0013 08       		.byte	8
 4514 0014 08       		.byte	8
 4515 0015 08       		.byte	8
 4516 0016 08       		.byte	8
 4517 0017 08       		.byte	8
 4518 0018 08       		.byte	8
 4519 0019 08       		.byte	8
 4520 001a 00       		.byte	0
 4521 001b 00       		.byte	0
 4522 001c 18       		.byte	24
 4523 001d 18       		.byte	24
 4524 001e 00       		.byte	0
 4525 001f 00       		.byte	0
 4526 0020 00       		.byte	0
 4527 0021 48       		.byte	72
 4528 0022 6C       		.byte	108
 4529 0023 24       		.byte	36
GAS LISTING C:\Users\Duckb\AppData\Local\Temp\ccEgig1L.s 			page 101


 4530 0024 12       		.byte	18
 4531 0025 00       		.byte	0
 4532 0026 00       		.byte	0
 4533 0027 00       		.byte	0
 4534 0028 00       		.byte	0
 4535 0029 00       		.byte	0
 4536 002a 00       		.byte	0
 4537 002b 00       		.byte	0
 4538 002c 00       		.byte	0
 4539 002d 00       		.byte	0
 4540 002e 00       		.byte	0
 4541 002f 00       		.byte	0
 4542 0030 00       		.byte	0
 4543 0031 00       		.byte	0
 4544 0032 00       		.byte	0
 4545 0033 24       		.byte	36
 4546 0034 24       		.byte	36
 4547 0035 24       		.byte	36
 4548 0036 7F       		.byte	127
 4549 0037 12       		.byte	18
 4550 0038 12       		.byte	18
 4551 0039 12       		.byte	18
 4552 003a 7F       		.byte	127
 4553 003b 12       		.byte	18
 4554 003c 12       		.byte	18
 4555 003d 12       		.byte	18
 4556 003e 00       		.byte	0
 4557 003f 00       		.byte	0
 4558 0040 00       		.byte	0
 4559 0041 00       		.byte	0
 4560 0042 08       		.byte	8
 4561 0043 1C       		.byte	28
 4562 0044 2A       		.byte	42
 4563 0045 2A       		.byte	42
 4564 0046 0A       		.byte	10
 4565 0047 0C       		.byte	12
 4566 0048 18       		.byte	24
 4567 0049 28       		.byte	40
 4568 004a 28       		.byte	40
 4569 004b 2A       		.byte	42
 4570 004c 2A       		.byte	42
 4571 004d 1C       		.byte	28
 4572 004e 08       		.byte	8
 4573 004f 08       		.byte	8
 4574 0050 00       		.byte	0
 4575 0051 00       		.byte	0
 4576 0052 00       		.byte	0
 4577 0053 22       		.byte	34
 4578 0054 25       		.byte	37
 4579 0055 15       		.byte	21
 4580 0056 15       		.byte	21
 4581 0057 15       		.byte	21
 4582 0058 2A       		.byte	42
 4583 0059 58       		.byte	88
 4584 005a 54       		.byte	84
 4585 005b 54       		.byte	84
 4586 005c 54       		.byte	84
GAS LISTING C:\Users\Duckb\AppData\Local\Temp\ccEgig1L.s 			page 102


 4587 005d 22       		.byte	34
 4588 005e 00       		.byte	0
 4589 005f 00       		.byte	0
 4590 0060 00       		.byte	0
 4591 0061 00       		.byte	0
 4592 0062 00       		.byte	0
 4593 0063 0C       		.byte	12
 4594 0064 12       		.byte	18
 4595 0065 12       		.byte	18
 4596 0066 12       		.byte	18
 4597 0067 0A       		.byte	10
 4598 0068 76       		.byte	118
 4599 0069 25       		.byte	37
 4600 006a 29       		.byte	41
 4601 006b 11       		.byte	17
 4602 006c 91       		.byte	-111
 4603 006d 6E       		.byte	110
 4604 006e 00       		.byte	0
 4605 006f 00       		.byte	0
 4606 0070 00       		.byte	0
 4607 0071 06       		.byte	6
 4608 0072 06       		.byte	6
 4609 0073 04       		.byte	4
 4610 0074 03       		.byte	3
 4611 0075 00       		.byte	0
 4612 0076 00       		.byte	0
 4613 0077 00       		.byte	0
 4614 0078 00       		.byte	0
 4615 0079 00       		.byte	0
 4616 007a 00       		.byte	0
 4617 007b 00       		.byte	0
 4618 007c 00       		.byte	0
 4619 007d 00       		.byte	0
 4620 007e 00       		.byte	0
 4621 007f 00       		.byte	0
 4622 0080 00       		.byte	0
 4623 0081 40       		.byte	64
 4624 0082 20       		.byte	32
 4625 0083 10       		.byte	16
 4626 0084 10       		.byte	16
 4627 0085 08       		.byte	8
 4628 0086 08       		.byte	8
 4629 0087 08       		.byte	8
 4630 0088 08       		.byte	8
 4631 0089 08       		.byte	8
 4632 008a 08       		.byte	8
 4633 008b 10       		.byte	16
 4634 008c 10       		.byte	16
 4635 008d 20       		.byte	32
 4636 008e 40       		.byte	64
 4637 008f 00       		.byte	0
 4638 0090 00       		.byte	0
 4639 0091 02       		.byte	2
 4640 0092 04       		.byte	4
 4641 0093 08       		.byte	8
 4642 0094 08       		.byte	8
 4643 0095 10       		.byte	16
GAS LISTING C:\Users\Duckb\AppData\Local\Temp\ccEgig1L.s 			page 103


 4644 0096 10       		.byte	16
 4645 0097 10       		.byte	16
 4646 0098 10       		.byte	16
 4647 0099 10       		.byte	16
 4648 009a 10       		.byte	16
 4649 009b 08       		.byte	8
 4650 009c 08       		.byte	8
 4651 009d 04       		.byte	4
 4652 009e 02       		.byte	2
 4653 009f 00       		.byte	0
 4654 00a0 00       		.byte	0
 4655 00a1 00       		.byte	0
 4656 00a2 00       		.byte	0
 4657 00a3 00       		.byte	0
 4658 00a4 08       		.byte	8
 4659 00a5 08       		.byte	8
 4660 00a6 6B       		.byte	107
 4661 00a7 1C       		.byte	28
 4662 00a8 1C       		.byte	28
 4663 00a9 6B       		.byte	107
 4664 00aa 08       		.byte	8
 4665 00ab 08       		.byte	8
 4666 00ac 00       		.byte	0
 4667 00ad 00       		.byte	0
 4668 00ae 00       		.byte	0
 4669 00af 00       		.byte	0
 4670 00b0 00       		.byte	0
 4671 00b1 00       		.byte	0
 4672 00b2 00       		.byte	0
 4673 00b3 00       		.byte	0
 4674 00b4 08       		.byte	8
 4675 00b5 08       		.byte	8
 4676 00b6 08       		.byte	8
 4677 00b7 08       		.byte	8
 4678 00b8 7F       		.byte	127
 4679 00b9 08       		.byte	8
 4680 00ba 08       		.byte	8
 4681 00bb 08       		.byte	8
 4682 00bc 08       		.byte	8
 4683 00bd 00       		.byte	0
 4684 00be 00       		.byte	0
 4685 00bf 00       		.byte	0
 4686 00c0 00       		.byte	0
 4687 00c1 00       		.byte	0
 4688 00c2 00       		.byte	0
 4689 00c3 00       		.byte	0
 4690 00c4 00       		.byte	0
 4691 00c5 00       		.byte	0
 4692 00c6 00       		.byte	0
 4693 00c7 00       		.byte	0
 4694 00c8 00       		.byte	0
 4695 00c9 00       		.byte	0
 4696 00ca 00       		.byte	0
 4697 00cb 00       		.byte	0
 4698 00cc 06       		.byte	6
 4699 00cd 06       		.byte	6
 4700 00ce 04       		.byte	4
GAS LISTING C:\Users\Duckb\AppData\Local\Temp\ccEgig1L.s 			page 104


 4701 00cf 03       		.byte	3
 4702 00d0 00       		.byte	0
 4703 00d1 00       		.byte	0
 4704 00d2 00       		.byte	0
 4705 00d3 00       		.byte	0
 4706 00d4 00       		.byte	0
 4707 00d5 00       		.byte	0
 4708 00d6 00       		.byte	0
 4709 00d7 00       		.byte	0
 4710 00d8 FE       		.byte	-2
 4711 00d9 00       		.byte	0
 4712 00da 00       		.byte	0
 4713 00db 00       		.byte	0
 4714 00dc 00       		.byte	0
 4715 00dd 00       		.byte	0
 4716 00de 00       		.byte	0
 4717 00df 00       		.byte	0
 4718 00e0 00       		.byte	0
 4719 00e1 00       		.byte	0
 4720 00e2 00       		.byte	0
 4721 00e3 00       		.byte	0
 4722 00e4 00       		.byte	0
 4723 00e5 00       		.byte	0
 4724 00e6 00       		.byte	0
 4725 00e7 00       		.byte	0
 4726 00e8 00       		.byte	0
 4727 00e9 00       		.byte	0
 4728 00ea 00       		.byte	0
 4729 00eb 00       		.byte	0
 4730 00ec 06       		.byte	6
 4731 00ed 06       		.byte	6
 4732 00ee 00       		.byte	0
 4733 00ef 00       		.byte	0
 4734 00f0 00       		.byte	0
 4735 00f1 00       		.byte	0
 4736 00f2 80       		.byte	-128
 4737 00f3 40       		.byte	64
 4738 00f4 40       		.byte	64
 4739 00f5 20       		.byte	32
 4740 00f6 20       		.byte	32
 4741 00f7 10       		.byte	16
 4742 00f8 10       		.byte	16
 4743 00f9 08       		.byte	8
 4744 00fa 08       		.byte	8
 4745 00fb 04       		.byte	4
 4746 00fc 04       		.byte	4
 4747 00fd 02       		.byte	2
 4748 00fe 02       		.byte	2
 4749 00ff 00       		.byte	0
 4750 0100 00       		.byte	0
 4751 0101 00       		.byte	0
 4752 0102 00       		.byte	0
 4753 0103 18       		.byte	24
 4754 0104 24       		.byte	36
 4755 0105 42       		.byte	66
 4756 0106 42       		.byte	66
 4757 0107 42       		.byte	66
GAS LISTING C:\Users\Duckb\AppData\Local\Temp\ccEgig1L.s 			page 105


 4758 0108 42       		.byte	66
 4759 0109 42       		.byte	66
 4760 010a 42       		.byte	66
 4761 010b 42       		.byte	66
 4762 010c 24       		.byte	36
 4763 010d 18       		.byte	24
 4764 010e 00       		.byte	0
 4765 010f 00       		.byte	0
 4766 0110 00       		.byte	0
 4767 0111 00       		.byte	0
 4768 0112 00       		.byte	0
 4769 0113 08       		.byte	8
 4770 0114 0E       		.byte	14
 4771 0115 08       		.byte	8
 4772 0116 08       		.byte	8
 4773 0117 08       		.byte	8
 4774 0118 08       		.byte	8
 4775 0119 08       		.byte	8
 4776 011a 08       		.byte	8
 4777 011b 08       		.byte	8
 4778 011c 08       		.byte	8
 4779 011d 3E       		.byte	62
 4780 011e 00       		.byte	0
 4781 011f 00       		.byte	0
 4782 0120 00       		.byte	0
 4783 0121 00       		.byte	0
 4784 0122 00       		.byte	0
 4785 0123 3C       		.byte	60
 4786 0124 42       		.byte	66
 4787 0125 42       		.byte	66
 4788 0126 42       		.byte	66
 4789 0127 20       		.byte	32
 4790 0128 20       		.byte	32
 4791 0129 10       		.byte	16
 4792 012a 08       		.byte	8
 4793 012b 04       		.byte	4
 4794 012c 42       		.byte	66
 4795 012d 7E       		.byte	126
 4796 012e 00       		.byte	0
 4797 012f 00       		.byte	0
 4798 0130 00       		.byte	0
 4799 0131 00       		.byte	0
 4800 0132 00       		.byte	0
 4801 0133 3C       		.byte	60
 4802 0134 42       		.byte	66
 4803 0135 42       		.byte	66
 4804 0136 20       		.byte	32
 4805 0137 18       		.byte	24
 4806 0138 20       		.byte	32
 4807 0139 40       		.byte	64
 4808 013a 40       		.byte	64
 4809 013b 42       		.byte	66
 4810 013c 22       		.byte	34
 4811 013d 1C       		.byte	28
 4812 013e 00       		.byte	0
 4813 013f 00       		.byte	0
 4814 0140 00       		.byte	0
GAS LISTING C:\Users\Duckb\AppData\Local\Temp\ccEgig1L.s 			page 106


 4815 0141 00       		.byte	0
 4816 0142 00       		.byte	0
 4817 0143 20       		.byte	32
 4818 0144 30       		.byte	48
 4819 0145 28       		.byte	40
 4820 0146 24       		.byte	36
 4821 0147 24       		.byte	36
 4822 0148 22       		.byte	34
 4823 0149 22       		.byte	34
 4824 014a 7E       		.byte	126
 4825 014b 20       		.byte	32
 4826 014c 20       		.byte	32
 4827 014d 78       		.byte	120
 4828 014e 00       		.byte	0
 4829 014f 00       		.byte	0
 4830 0150 00       		.byte	0
 4831 0151 00       		.byte	0
 4832 0152 00       		.byte	0
 4833 0153 7E       		.byte	126
 4834 0154 02       		.byte	2
 4835 0155 02       		.byte	2
 4836 0156 02       		.byte	2
 4837 0157 1A       		.byte	26
 4838 0158 26       		.byte	38
 4839 0159 40       		.byte	64
 4840 015a 40       		.byte	64
 4841 015b 42       		.byte	66
 4842 015c 22       		.byte	34
 4843 015d 1C       		.byte	28
 4844 015e 00       		.byte	0
 4845 015f 00       		.byte	0
 4846 0160 00       		.byte	0
 4847 0161 00       		.byte	0
 4848 0162 00       		.byte	0
 4849 0163 38       		.byte	56
 4850 0164 24       		.byte	36
 4851 0165 02       		.byte	2
 4852 0166 02       		.byte	2
 4853 0167 1A       		.byte	26
 4854 0168 26       		.byte	38
 4855 0169 42       		.byte	66
 4856 016a 42       		.byte	66
 4857 016b 42       		.byte	66
 4858 016c 24       		.byte	36
 4859 016d 18       		.byte	24
 4860 016e 00       		.byte	0
 4861 016f 00       		.byte	0
 4862 0170 00       		.byte	0
 4863 0171 00       		.byte	0
 4864 0172 00       		.byte	0
 4865 0173 7E       		.byte	126
 4866 0174 22       		.byte	34
 4867 0175 22       		.byte	34
 4868 0176 10       		.byte	16
 4869 0177 10       		.byte	16
 4870 0178 08       		.byte	8
 4871 0179 08       		.byte	8
GAS LISTING C:\Users\Duckb\AppData\Local\Temp\ccEgig1L.s 			page 107


 4872 017a 08       		.byte	8
 4873 017b 08       		.byte	8
 4874 017c 08       		.byte	8
 4875 017d 08       		.byte	8
 4876 017e 00       		.byte	0
 4877 017f 00       		.byte	0
 4878 0180 00       		.byte	0
 4879 0181 00       		.byte	0
 4880 0182 00       		.byte	0
 4881 0183 3C       		.byte	60
 4882 0184 42       		.byte	66
 4883 0185 42       		.byte	66
 4884 0186 42       		.byte	66
 4885 0187 24       		.byte	36
 4886 0188 18       		.byte	24
 4887 0189 24       		.byte	36
 4888 018a 42       		.byte	66
 4889 018b 42       		.byte	66
 4890 018c 42       		.byte	66
 4891 018d 3C       		.byte	60
 4892 018e 00       		.byte	0
 4893 018f 00       		.byte	0
 4894 0190 00       		.byte	0
 4895 0191 00       		.byte	0
 4896 0192 00       		.byte	0
 4897 0193 18       		.byte	24
 4898 0194 24       		.byte	36
 4899 0195 42       		.byte	66
 4900 0196 42       		.byte	66
 4901 0197 42       		.byte	66
 4902 0198 64       		.byte	100
 4903 0199 58       		.byte	88
 4904 019a 40       		.byte	64
 4905 019b 40       		.byte	64
 4906 019c 24       		.byte	36
 4907 019d 1C       		.byte	28
 4908 019e 00       		.byte	0
 4909 019f 00       		.byte	0
 4910 01a0 00       		.byte	0
 4911 01a1 00       		.byte	0
 4912 01a2 00       		.byte	0
 4913 01a3 00       		.byte	0
 4914 01a4 00       		.byte	0
 4915 01a5 00       		.byte	0
 4916 01a6 18       		.byte	24
 4917 01a7 18       		.byte	24
 4918 01a8 00       		.byte	0
 4919 01a9 00       		.byte	0
 4920 01aa 00       		.byte	0
 4921 01ab 00       		.byte	0
 4922 01ac 18       		.byte	24
 4923 01ad 18       		.byte	24
 4924 01ae 00       		.byte	0
 4925 01af 00       		.byte	0
 4926 01b0 00       		.byte	0
 4927 01b1 00       		.byte	0
 4928 01b2 00       		.byte	0
GAS LISTING C:\Users\Duckb\AppData\Local\Temp\ccEgig1L.s 			page 108


 4929 01b3 00       		.byte	0
 4930 01b4 00       		.byte	0
 4931 01b5 00       		.byte	0
 4932 01b6 00       		.byte	0
 4933 01b7 08       		.byte	8
 4934 01b8 00       		.byte	0
 4935 01b9 00       		.byte	0
 4936 01ba 00       		.byte	0
 4937 01bb 00       		.byte	0
 4938 01bc 00       		.byte	0
 4939 01bd 08       		.byte	8
 4940 01be 08       		.byte	8
 4941 01bf 04       		.byte	4
 4942 01c0 00       		.byte	0
 4943 01c1 00       		.byte	0
 4944 01c2 00       		.byte	0
 4945 01c3 40       		.byte	64
 4946 01c4 20       		.byte	32
 4947 01c5 10       		.byte	16
 4948 01c6 08       		.byte	8
 4949 01c7 04       		.byte	4
 4950 01c8 02       		.byte	2
 4951 01c9 04       		.byte	4
 4952 01ca 08       		.byte	8
 4953 01cb 10       		.byte	16
 4954 01cc 20       		.byte	32
 4955 01cd 40       		.byte	64
 4956 01ce 00       		.byte	0
 4957 01cf 00       		.byte	0
 4958 01d0 00       		.byte	0
 4959 01d1 00       		.byte	0
 4960 01d2 00       		.byte	0
 4961 01d3 00       		.byte	0
 4962 01d4 00       		.byte	0
 4963 01d5 00       		.byte	0
 4964 01d6 7F       		.byte	127
 4965 01d7 00       		.byte	0
 4966 01d8 00       		.byte	0
 4967 01d9 00       		.byte	0
 4968 01da 7F       		.byte	127
 4969 01db 00       		.byte	0
 4970 01dc 00       		.byte	0
 4971 01dd 00       		.byte	0
 4972 01de 00       		.byte	0
 4973 01df 00       		.byte	0
 4974 01e0 00       		.byte	0
 4975 01e1 00       		.byte	0
 4976 01e2 00       		.byte	0
 4977 01e3 02       		.byte	2
 4978 01e4 04       		.byte	4
 4979 01e5 08       		.byte	8
 4980 01e6 10       		.byte	16
 4981 01e7 20       		.byte	32
 4982 01e8 40       		.byte	64
 4983 01e9 20       		.byte	32
 4984 01ea 10       		.byte	16
 4985 01eb 08       		.byte	8
GAS LISTING C:\Users\Duckb\AppData\Local\Temp\ccEgig1L.s 			page 109


 4986 01ec 04       		.byte	4
 4987 01ed 02       		.byte	2
 4988 01ee 00       		.byte	0
 4989 01ef 00       		.byte	0
 4990 01f0 00       		.byte	0
 4991 01f1 00       		.byte	0
 4992 01f2 00       		.byte	0
 4993 01f3 3C       		.byte	60
 4994 01f4 42       		.byte	66
 4995 01f5 42       		.byte	66
 4996 01f6 46       		.byte	70
 4997 01f7 40       		.byte	64
 4998 01f8 20       		.byte	32
 4999 01f9 10       		.byte	16
 5000 01fa 10       		.byte	16
 5001 01fb 00       		.byte	0
 5002 01fc 18       		.byte	24
 5003 01fd 18       		.byte	24
 5004 01fe 00       		.byte	0
 5005 01ff 00       		.byte	0
 5006 0200 00       		.byte	0
 5007 0201 00       		.byte	0
 5008 0202 00       		.byte	0
 5009 0203 1C       		.byte	28
 5010 0204 22       		.byte	34
 5011 0205 5A       		.byte	90
 5012 0206 55       		.byte	85
 5013 0207 55       		.byte	85
 5014 0208 55       		.byte	85
 5015 0209 55       		.byte	85
 5016 020a 2D       		.byte	45
 5017 020b 42       		.byte	66
 5018 020c 22       		.byte	34
 5019 020d 1C       		.byte	28
 5020 020e 00       		.byte	0
 5021 020f 00       		.byte	0
 5022 0210 00       		.byte	0
 5023 0211 00       		.byte	0
 5024 0212 00       		.byte	0
 5025 0213 08       		.byte	8
 5026 0214 08       		.byte	8
 5027 0215 18       		.byte	24
 5028 0216 14       		.byte	20
 5029 0217 14       		.byte	20
 5030 0218 24       		.byte	36
 5031 0219 3C       		.byte	60
 5032 021a 22       		.byte	34
 5033 021b 42       		.byte	66
 5034 021c 42       		.byte	66
 5035 021d E7       		.byte	-25
 5036 021e 00       		.byte	0
 5037 021f 00       		.byte	0
 5038 0220 00       		.byte	0
 5039 0221 00       		.byte	0
 5040 0222 00       		.byte	0
 5041 0223 1F       		.byte	31
 5042 0224 22       		.byte	34
GAS LISTING C:\Users\Duckb\AppData\Local\Temp\ccEgig1L.s 			page 110


 5043 0225 22       		.byte	34
 5044 0226 22       		.byte	34
 5045 0227 1E       		.byte	30
 5046 0228 22       		.byte	34
 5047 0229 42       		.byte	66
 5048 022a 42       		.byte	66
 5049 022b 42       		.byte	66
 5050 022c 22       		.byte	34
 5051 022d 1F       		.byte	31
 5052 022e 00       		.byte	0
 5053 022f 00       		.byte	0
 5054 0230 00       		.byte	0
 5055 0231 00       		.byte	0
 5056 0232 00       		.byte	0
 5057 0233 7C       		.byte	124
 5058 0234 42       		.byte	66
 5059 0235 42       		.byte	66
 5060 0236 01       		.byte	1
 5061 0237 01       		.byte	1
 5062 0238 01       		.byte	1
 5063 0239 01       		.byte	1
 5064 023a 01       		.byte	1
 5065 023b 42       		.byte	66
 5066 023c 22       		.byte	34
 5067 023d 1C       		.byte	28
 5068 023e 00       		.byte	0
 5069 023f 00       		.byte	0
 5070 0240 00       		.byte	0
 5071 0241 00       		.byte	0
 5072 0242 00       		.byte	0
 5073 0243 1F       		.byte	31
 5074 0244 22       		.byte	34
 5075 0245 42       		.byte	66
 5076 0246 42       		.byte	66
 5077 0247 42       		.byte	66
 5078 0248 42       		.byte	66
 5079 0249 42       		.byte	66
 5080 024a 42       		.byte	66
 5081 024b 42       		.byte	66
 5082 024c 22       		.byte	34
 5083 024d 1F       		.byte	31
 5084 024e 00       		.byte	0
 5085 024f 00       		.byte	0
 5086 0250 00       		.byte	0
 5087 0251 00       		.byte	0
 5088 0252 00       		.byte	0
 5089 0253 3F       		.byte	63
 5090 0254 42       		.byte	66
 5091 0255 12       		.byte	18
 5092 0256 12       		.byte	18
 5093 0257 1E       		.byte	30
 5094 0258 12       		.byte	18
 5095 0259 12       		.byte	18
 5096 025a 02       		.byte	2
 5097 025b 42       		.byte	66
 5098 025c 42       		.byte	66
 5099 025d 3F       		.byte	63
GAS LISTING C:\Users\Duckb\AppData\Local\Temp\ccEgig1L.s 			page 111


 5100 025e 00       		.byte	0
 5101 025f 00       		.byte	0
 5102 0260 00       		.byte	0
 5103 0261 00       		.byte	0
 5104 0262 00       		.byte	0
 5105 0263 3F       		.byte	63
 5106 0264 42       		.byte	66
 5107 0265 12       		.byte	18
 5108 0266 12       		.byte	18
 5109 0267 1E       		.byte	30
 5110 0268 12       		.byte	18
 5111 0269 12       		.byte	18
 5112 026a 02       		.byte	2
 5113 026b 02       		.byte	2
 5114 026c 02       		.byte	2
 5115 026d 07       		.byte	7
 5116 026e 00       		.byte	0
 5117 026f 00       		.byte	0
 5118 0270 00       		.byte	0
 5119 0271 00       		.byte	0
 5120 0272 00       		.byte	0
 5121 0273 3C       		.byte	60
 5122 0274 22       		.byte	34
 5123 0275 22       		.byte	34
 5124 0276 01       		.byte	1
 5125 0277 01       		.byte	1
 5126 0278 01       		.byte	1
 5127 0279 71       		.byte	113
 5128 027a 21       		.byte	33
 5129 027b 22       		.byte	34
 5130 027c 22       		.byte	34
 5131 027d 1C       		.byte	28
 5132 027e 00       		.byte	0
 5133 027f 00       		.byte	0
 5134 0280 00       		.byte	0
 5135 0281 00       		.byte	0
 5136 0282 00       		.byte	0
 5137 0283 E7       		.byte	-25
 5138 0284 42       		.byte	66
 5139 0285 42       		.byte	66
 5140 0286 42       		.byte	66
 5141 0287 42       		.byte	66
 5142 0288 7E       		.byte	126
 5143 0289 42       		.byte	66
 5144 028a 42       		.byte	66
 5145 028b 42       		.byte	66
 5146 028c 42       		.byte	66
 5147 028d E7       		.byte	-25
 5148 028e 00       		.byte	0
 5149 028f 00       		.byte	0
 5150 0290 00       		.byte	0
 5151 0291 00       		.byte	0
 5152 0292 00       		.byte	0
 5153 0293 3E       		.byte	62
 5154 0294 08       		.byte	8
 5155 0295 08       		.byte	8
 5156 0296 08       		.byte	8
GAS LISTING C:\Users\Duckb\AppData\Local\Temp\ccEgig1L.s 			page 112


 5157 0297 08       		.byte	8
 5158 0298 08       		.byte	8
 5159 0299 08       		.byte	8
 5160 029a 08       		.byte	8
 5161 029b 08       		.byte	8
 5162 029c 08       		.byte	8
 5163 029d 3E       		.byte	62
 5164 029e 00       		.byte	0
 5165 029f 00       		.byte	0
 5166 02a0 00       		.byte	0
 5167 02a1 00       		.byte	0
 5168 02a2 00       		.byte	0
 5169 02a3 7C       		.byte	124
 5170 02a4 10       		.byte	16
 5171 02a5 10       		.byte	16
 5172 02a6 10       		.byte	16
 5173 02a7 10       		.byte	16
 5174 02a8 10       		.byte	16
 5175 02a9 10       		.byte	16
 5176 02aa 10       		.byte	16
 5177 02ab 10       		.byte	16
 5178 02ac 10       		.byte	16
 5179 02ad 10       		.byte	16
 5180 02ae 11       		.byte	17
 5181 02af 0F       		.byte	15
 5182 02b0 00       		.byte	0
 5183 02b1 00       		.byte	0
 5184 02b2 00       		.byte	0
 5185 02b3 77       		.byte	119
 5186 02b4 22       		.byte	34
 5187 02b5 12       		.byte	18
 5188 02b6 0A       		.byte	10
 5189 02b7 0E       		.byte	14
 5190 02b8 0A       		.byte	10
 5191 02b9 12       		.byte	18
 5192 02ba 12       		.byte	18
 5193 02bb 22       		.byte	34
 5194 02bc 22       		.byte	34
 5195 02bd 77       		.byte	119
 5196 02be 00       		.byte	0
 5197 02bf 00       		.byte	0
 5198 02c0 00       		.byte	0
 5199 02c1 00       		.byte	0
 5200 02c2 00       		.byte	0
 5201 02c3 07       		.byte	7
 5202 02c4 02       		.byte	2
 5203 02c5 02       		.byte	2
 5204 02c6 02       		.byte	2
 5205 02c7 02       		.byte	2
 5206 02c8 02       		.byte	2
 5207 02c9 02       		.byte	2
 5208 02ca 02       		.byte	2
 5209 02cb 02       		.byte	2
 5210 02cc 42       		.byte	66
 5211 02cd 7F       		.byte	127
 5212 02ce 00       		.byte	0
 5213 02cf 00       		.byte	0
GAS LISTING C:\Users\Duckb\AppData\Local\Temp\ccEgig1L.s 			page 113


 5214 02d0 00       		.byte	0
 5215 02d1 00       		.byte	0
 5216 02d2 00       		.byte	0
 5217 02d3 77       		.byte	119
 5218 02d4 36       		.byte	54
 5219 02d5 36       		.byte	54
 5220 02d6 36       		.byte	54
 5221 02d7 36       		.byte	54
 5222 02d8 2A       		.byte	42
 5223 02d9 2A       		.byte	42
 5224 02da 2A       		.byte	42
 5225 02db 2A       		.byte	42
 5226 02dc 2A       		.byte	42
 5227 02dd 6B       		.byte	107
 5228 02de 00       		.byte	0
 5229 02df 00       		.byte	0
 5230 02e0 00       		.byte	0
 5231 02e1 00       		.byte	0
 5232 02e2 00       		.byte	0
 5233 02e3 E3       		.byte	-29
 5234 02e4 46       		.byte	70
 5235 02e5 46       		.byte	70
 5236 02e6 4A       		.byte	74
 5237 02e7 4A       		.byte	74
 5238 02e8 52       		.byte	82
 5239 02e9 52       		.byte	82
 5240 02ea 52       		.byte	82
 5241 02eb 62       		.byte	98
 5242 02ec 62       		.byte	98
 5243 02ed 47       		.byte	71
 5244 02ee 00       		.byte	0
 5245 02ef 00       		.byte	0
 5246 02f0 00       		.byte	0
 5247 02f1 00       		.byte	0
 5248 02f2 00       		.byte	0
 5249 02f3 1C       		.byte	28
 5250 02f4 22       		.byte	34
 5251 02f5 41       		.byte	65
 5252 02f6 41       		.byte	65
 5253 02f7 41       		.byte	65
 5254 02f8 41       		.byte	65
 5255 02f9 41       		.byte	65
 5256 02fa 41       		.byte	65
 5257 02fb 41       		.byte	65
 5258 02fc 22       		.byte	34
 5259 02fd 1C       		.byte	28
 5260 02fe 00       		.byte	0
 5261 02ff 00       		.byte	0
 5262 0300 00       		.byte	0
 5263 0301 00       		.byte	0
 5264 0302 00       		.byte	0
 5265 0303 3F       		.byte	63
 5266 0304 42       		.byte	66
 5267 0305 42       		.byte	66
 5268 0306 42       		.byte	66
 5269 0307 42       		.byte	66
 5270 0308 3E       		.byte	62
GAS LISTING C:\Users\Duckb\AppData\Local\Temp\ccEgig1L.s 			page 114


 5271 0309 02       		.byte	2
 5272 030a 02       		.byte	2
 5273 030b 02       		.byte	2
 5274 030c 02       		.byte	2
 5275 030d 07       		.byte	7
 5276 030e 00       		.byte	0
 5277 030f 00       		.byte	0
 5278 0310 00       		.byte	0
 5279 0311 00       		.byte	0
 5280 0312 00       		.byte	0
 5281 0313 1C       		.byte	28
 5282 0314 22       		.byte	34
 5283 0315 41       		.byte	65
 5284 0316 41       		.byte	65
 5285 0317 41       		.byte	65
 5286 0318 41       		.byte	65
 5287 0319 41       		.byte	65
 5288 031a 4D       		.byte	77
 5289 031b 53       		.byte	83
 5290 031c 32       		.byte	50
 5291 031d 1C       		.byte	28
 5292 031e 60       		.byte	96
 5293 031f 00       		.byte	0
 5294 0320 00       		.byte	0
 5295 0321 00       		.byte	0
 5296 0322 00       		.byte	0
 5297 0323 3F       		.byte	63
 5298 0324 42       		.byte	66
 5299 0325 42       		.byte	66
 5300 0326 42       		.byte	66
 5301 0327 3E       		.byte	62
 5302 0328 12       		.byte	18
 5303 0329 12       		.byte	18
 5304 032a 22       		.byte	34
 5305 032b 22       		.byte	34
 5306 032c 42       		.byte	66
 5307 032d C7       		.byte	-57
 5308 032e 00       		.byte	0
 5309 032f 00       		.byte	0
 5310 0330 00       		.byte	0
 5311 0331 00       		.byte	0
 5312 0332 00       		.byte	0
 5313 0333 7C       		.byte	124
 5314 0334 42       		.byte	66
 5315 0335 42       		.byte	66
 5316 0336 02       		.byte	2
 5317 0337 04       		.byte	4
 5318 0338 18       		.byte	24
 5319 0339 20       		.byte	32
 5320 033a 40       		.byte	64
 5321 033b 42       		.byte	66
 5322 033c 42       		.byte	66
 5323 033d 3E       		.byte	62
 5324 033e 00       		.byte	0
 5325 033f 00       		.byte	0
 5326 0340 00       		.byte	0
 5327 0341 00       		.byte	0
GAS LISTING C:\Users\Duckb\AppData\Local\Temp\ccEgig1L.s 			page 115


 5328 0342 00       		.byte	0
 5329 0343 7F       		.byte	127
 5330 0344 49       		.byte	73
 5331 0345 08       		.byte	8
 5332 0346 08       		.byte	8
 5333 0347 08       		.byte	8
 5334 0348 08       		.byte	8
 5335 0349 08       		.byte	8
 5336 034a 08       		.byte	8
 5337 034b 08       		.byte	8
 5338 034c 08       		.byte	8
 5339 034d 1C       		.byte	28
 5340 034e 00       		.byte	0
 5341 034f 00       		.byte	0
 5342 0350 00       		.byte	0
 5343 0351 00       		.byte	0
 5344 0352 00       		.byte	0
 5345 0353 E7       		.byte	-25
 5346 0354 42       		.byte	66
 5347 0355 42       		.byte	66
 5348 0356 42       		.byte	66
 5349 0357 42       		.byte	66
 5350 0358 42       		.byte	66
 5351 0359 42       		.byte	66
 5352 035a 42       		.byte	66
 5353 035b 42       		.byte	66
 5354 035c 42       		.byte	66
 5355 035d 3C       		.byte	60
 5356 035e 00       		.byte	0
 5357 035f 00       		.byte	0
 5358 0360 00       		.byte	0
 5359 0361 00       		.byte	0
 5360 0362 00       		.byte	0
 5361 0363 E7       		.byte	-25
 5362 0364 42       		.byte	66
 5363 0365 42       		.byte	66
 5364 0366 22       		.byte	34
 5365 0367 24       		.byte	36
 5366 0368 24       		.byte	36
 5367 0369 14       		.byte	20
 5368 036a 14       		.byte	20
 5369 036b 18       		.byte	24
 5370 036c 08       		.byte	8
 5371 036d 08       		.byte	8
 5372 036e 00       		.byte	0
 5373 036f 00       		.byte	0
 5374 0370 00       		.byte	0
 5375 0371 00       		.byte	0
 5376 0372 00       		.byte	0
 5377 0373 6B       		.byte	107
 5378 0374 49       		.byte	73
 5379 0375 49       		.byte	73
 5380 0376 49       		.byte	73
 5381 0377 49       		.byte	73
 5382 0378 55       		.byte	85
 5383 0379 55       		.byte	85
 5384 037a 36       		.byte	54
GAS LISTING C:\Users\Duckb\AppData\Local\Temp\ccEgig1L.s 			page 116


 5385 037b 22       		.byte	34
 5386 037c 22       		.byte	34
 5387 037d 22       		.byte	34
 5388 037e 00       		.byte	0
 5389 037f 00       		.byte	0
 5390 0380 00       		.byte	0
 5391 0381 00       		.byte	0
 5392 0382 00       		.byte	0
 5393 0383 E7       		.byte	-25
 5394 0384 42       		.byte	66
 5395 0385 24       		.byte	36
 5396 0386 24       		.byte	36
 5397 0387 18       		.byte	24
 5398 0388 18       		.byte	24
 5399 0389 18       		.byte	24
 5400 038a 24       		.byte	36
 5401 038b 24       		.byte	36
 5402 038c 42       		.byte	66
 5403 038d E7       		.byte	-25
 5404 038e 00       		.byte	0
 5405 038f 00       		.byte	0
 5406 0390 00       		.byte	0
 5407 0391 00       		.byte	0
 5408 0392 00       		.byte	0
 5409 0393 77       		.byte	119
 5410 0394 22       		.byte	34
 5411 0395 22       		.byte	34
 5412 0396 14       		.byte	20
 5413 0397 14       		.byte	20
 5414 0398 08       		.byte	8
 5415 0399 08       		.byte	8
 5416 039a 08       		.byte	8
 5417 039b 08       		.byte	8
 5418 039c 08       		.byte	8
 5419 039d 1C       		.byte	28
 5420 039e 00       		.byte	0
 5421 039f 00       		.byte	0
 5422 03a0 00       		.byte	0
 5423 03a1 00       		.byte	0
 5424 03a2 00       		.byte	0
 5425 03a3 7E       		.byte	126
 5426 03a4 21       		.byte	33
 5427 03a5 20       		.byte	32
 5428 03a6 10       		.byte	16
 5429 03a7 10       		.byte	16
 5430 03a8 08       		.byte	8
 5431 03a9 04       		.byte	4
 5432 03aa 04       		.byte	4
 5433 03ab 42       		.byte	66
 5434 03ac 42       		.byte	66
 5435 03ad 3F       		.byte	63
 5436 03ae 00       		.byte	0
 5437 03af 00       		.byte	0
 5438 03b0 00       		.byte	0
 5439 03b1 78       		.byte	120
 5440 03b2 08       		.byte	8
 5441 03b3 08       		.byte	8
GAS LISTING C:\Users\Duckb\AppData\Local\Temp\ccEgig1L.s 			page 117


 5442 03b4 08       		.byte	8
 5443 03b5 08       		.byte	8
 5444 03b6 08       		.byte	8
 5445 03b7 08       		.byte	8
 5446 03b8 08       		.byte	8
 5447 03b9 08       		.byte	8
 5448 03ba 08       		.byte	8
 5449 03bb 08       		.byte	8
 5450 03bc 08       		.byte	8
 5451 03bd 08       		.byte	8
 5452 03be 78       		.byte	120
 5453 03bf 00       		.byte	0
 5454 03c0 00       		.byte	0
 5455 03c1 00       		.byte	0
 5456 03c2 02       		.byte	2
 5457 03c3 02       		.byte	2
 5458 03c4 04       		.byte	4
 5459 03c5 04       		.byte	4
 5460 03c6 08       		.byte	8
 5461 03c7 08       		.byte	8
 5462 03c8 08       		.byte	8
 5463 03c9 10       		.byte	16
 5464 03ca 10       		.byte	16
 5465 03cb 20       		.byte	32
 5466 03cc 20       		.byte	32
 5467 03cd 20       		.byte	32
 5468 03ce 40       		.byte	64
 5469 03cf 40       		.byte	64
 5470 03d0 00       		.byte	0
 5471 03d1 1E       		.byte	30
 5472 03d2 10       		.byte	16
 5473 03d3 10       		.byte	16
 5474 03d4 10       		.byte	16
 5475 03d5 10       		.byte	16
 5476 03d6 10       		.byte	16
 5477 03d7 10       		.byte	16
 5478 03d8 10       		.byte	16
 5479 03d9 10       		.byte	16
 5480 03da 10       		.byte	16
 5481 03db 10       		.byte	16
 5482 03dc 10       		.byte	16
 5483 03dd 10       		.byte	16
 5484 03de 1E       		.byte	30
 5485 03df 00       		.byte	0
 5486 03e0 00       		.byte	0
 5487 03e1 38       		.byte	56
 5488 03e2 44       		.byte	68
 5489 03e3 00       		.byte	0
 5490 03e4 00       		.byte	0
 5491 03e5 00       		.byte	0
 5492 03e6 00       		.byte	0
 5493 03e7 00       		.byte	0
 5494 03e8 00       		.byte	0
 5495 03e9 00       		.byte	0
 5496 03ea 00       		.byte	0
 5497 03eb 00       		.byte	0
 5498 03ec 00       		.byte	0
GAS LISTING C:\Users\Duckb\AppData\Local\Temp\ccEgig1L.s 			page 118


 5499 03ed 00       		.byte	0
 5500 03ee 00       		.byte	0
 5501 03ef 00       		.byte	0
 5502 03f0 00       		.byte	0
 5503 03f1 00       		.byte	0
 5504 03f2 00       		.byte	0
 5505 03f3 00       		.byte	0
 5506 03f4 00       		.byte	0
 5507 03f5 00       		.byte	0
 5508 03f6 00       		.byte	0
 5509 03f7 00       		.byte	0
 5510 03f8 00       		.byte	0
 5511 03f9 00       		.byte	0
 5512 03fa 00       		.byte	0
 5513 03fb 00       		.byte	0
 5514 03fc 00       		.byte	0
 5515 03fd 00       		.byte	0
 5516 03fe 00       		.byte	0
 5517 03ff FF       		.byte	-1
 5518 0400 00       		.byte	0
 5519 0401 06       		.byte	6
 5520 0402 08       		.byte	8
 5521 0403 00       		.byte	0
 5522 0404 00       		.byte	0
 5523 0405 00       		.byte	0
 5524 0406 00       		.byte	0
 5525 0407 00       		.byte	0
 5526 0408 00       		.byte	0
 5527 0409 00       		.byte	0
 5528 040a 00       		.byte	0
 5529 040b 00       		.byte	0
 5530 040c 00       		.byte	0
 5531 040d 00       		.byte	0
 5532 040e 00       		.byte	0
 5533 040f 00       		.byte	0
 5534 0410 00       		.byte	0
 5535 0411 00       		.byte	0
 5536 0412 00       		.byte	0
 5537 0413 00       		.byte	0
 5538 0414 00       		.byte	0
 5539 0415 00       		.byte	0
 5540 0416 00       		.byte	0
 5541 0417 3C       		.byte	60
 5542 0418 42       		.byte	66
 5543 0419 78       		.byte	120
 5544 041a 44       		.byte	68
 5545 041b 42       		.byte	66
 5546 041c 42       		.byte	66
 5547 041d FC       		.byte	-4
 5548 041e 00       		.byte	0
 5549 041f 00       		.byte	0
 5550 0420 00       		.byte	0
 5551 0421 00       		.byte	0
 5552 0422 00       		.byte	0
 5553 0423 03       		.byte	3
 5554 0424 02       		.byte	2
 5555 0425 02       		.byte	2
GAS LISTING C:\Users\Duckb\AppData\Local\Temp\ccEgig1L.s 			page 119


 5556 0426 02       		.byte	2
 5557 0427 1A       		.byte	26
 5558 0428 26       		.byte	38
 5559 0429 42       		.byte	66
 5560 042a 42       		.byte	66
 5561 042b 42       		.byte	66
 5562 042c 26       		.byte	38
 5563 042d 1A       		.byte	26
 5564 042e 00       		.byte	0
 5565 042f 00       		.byte	0
 5566 0430 00       		.byte	0
 5567 0431 00       		.byte	0
 5568 0432 00       		.byte	0
 5569 0433 00       		.byte	0
 5570 0434 00       		.byte	0
 5571 0435 00       		.byte	0
 5572 0436 00       		.byte	0
 5573 0437 38       		.byte	56
 5574 0438 44       		.byte	68
 5575 0439 02       		.byte	2
 5576 043a 02       		.byte	2
 5577 043b 02       		.byte	2
 5578 043c 44       		.byte	68
 5579 043d 38       		.byte	56
 5580 043e 00       		.byte	0
 5581 043f 00       		.byte	0
 5582 0440 00       		.byte	0
 5583 0441 00       		.byte	0
 5584 0442 00       		.byte	0
 5585 0443 60       		.byte	96
 5586 0444 40       		.byte	64
 5587 0445 40       		.byte	64
 5588 0446 40       		.byte	64
 5589 0447 78       		.byte	120
 5590 0448 44       		.byte	68
 5591 0449 42       		.byte	66
 5592 044a 42       		.byte	66
 5593 044b 42       		.byte	66
 5594 044c 64       		.byte	100
 5595 044d D8       		.byte	-40
 5596 044e 00       		.byte	0
 5597 044f 00       		.byte	0
 5598 0450 00       		.byte	0
 5599 0451 00       		.byte	0
 5600 0452 00       		.byte	0
 5601 0453 00       		.byte	0
 5602 0454 00       		.byte	0
 5603 0455 00       		.byte	0
 5604 0456 00       		.byte	0
 5605 0457 3C       		.byte	60
 5606 0458 42       		.byte	66
 5607 0459 7E       		.byte	126
 5608 045a 02       		.byte	2
 5609 045b 02       		.byte	2
 5610 045c 42       		.byte	66
 5611 045d 3C       		.byte	60
 5612 045e 00       		.byte	0
GAS LISTING C:\Users\Duckb\AppData\Local\Temp\ccEgig1L.s 			page 120


 5613 045f 00       		.byte	0
 5614 0460 00       		.byte	0
 5615 0461 00       		.byte	0
 5616 0462 00       		.byte	0
 5617 0463 F0       		.byte	-16
 5618 0464 88       		.byte	-120
 5619 0465 08       		.byte	8
 5620 0466 08       		.byte	8
 5621 0467 7E       		.byte	126
 5622 0468 08       		.byte	8
 5623 0469 08       		.byte	8
 5624 046a 08       		.byte	8
 5625 046b 08       		.byte	8
 5626 046c 08       		.byte	8
 5627 046d 3E       		.byte	62
 5628 046e 00       		.byte	0
 5629 046f 00       		.byte	0
 5630 0470 00       		.byte	0
 5631 0471 00       		.byte	0
 5632 0472 00       		.byte	0
 5633 0473 00       		.byte	0
 5634 0474 00       		.byte	0
 5635 0475 00       		.byte	0
 5636 0476 00       		.byte	0
 5637 0477 7C       		.byte	124
 5638 0478 22       		.byte	34
 5639 0479 22       		.byte	34
 5640 047a 1C       		.byte	28
 5641 047b 02       		.byte	2
 5642 047c 3C       		.byte	60
 5643 047d 42       		.byte	66
 5644 047e 42       		.byte	66
 5645 047f 3C       		.byte	60
 5646 0480 00       		.byte	0
 5647 0481 00       		.byte	0
 5648 0482 00       		.byte	0
 5649 0483 03       		.byte	3
 5650 0484 02       		.byte	2
 5651 0485 02       		.byte	2
 5652 0486 02       		.byte	2
 5653 0487 3A       		.byte	58
 5654 0488 46       		.byte	70
 5655 0489 42       		.byte	66
 5656 048a 42       		.byte	66
 5657 048b 42       		.byte	66
 5658 048c 42       		.byte	66
 5659 048d E7       		.byte	-25
 5660 048e 00       		.byte	0
 5661 048f 00       		.byte	0
 5662 0490 00       		.byte	0
 5663 0491 00       		.byte	0
 5664 0492 00       		.byte	0
 5665 0493 0C       		.byte	12
 5666 0494 0C       		.byte	12
 5667 0495 00       		.byte	0
 5668 0496 00       		.byte	0
 5669 0497 0E       		.byte	14
GAS LISTING C:\Users\Duckb\AppData\Local\Temp\ccEgig1L.s 			page 121


 5670 0498 08       		.byte	8
 5671 0499 08       		.byte	8
 5672 049a 08       		.byte	8
 5673 049b 08       		.byte	8
 5674 049c 08       		.byte	8
 5675 049d 3E       		.byte	62
 5676 049e 00       		.byte	0
 5677 049f 00       		.byte	0
 5678 04a0 00       		.byte	0
 5679 04a1 00       		.byte	0
 5680 04a2 00       		.byte	0
 5681 04a3 30       		.byte	48
 5682 04a4 30       		.byte	48
 5683 04a5 00       		.byte	0
 5684 04a6 00       		.byte	0
 5685 04a7 38       		.byte	56
 5686 04a8 20       		.byte	32
 5687 04a9 20       		.byte	32
 5688 04aa 20       		.byte	32
 5689 04ab 20       		.byte	32
 5690 04ac 20       		.byte	32
 5691 04ad 20       		.byte	32
 5692 04ae 22       		.byte	34
 5693 04af 1E       		.byte	30
 5694 04b0 00       		.byte	0
 5695 04b1 00       		.byte	0
 5696 04b2 00       		.byte	0
 5697 04b3 03       		.byte	3
 5698 04b4 02       		.byte	2
 5699 04b5 02       		.byte	2
 5700 04b6 02       		.byte	2
 5701 04b7 72       		.byte	114
 5702 04b8 12       		.byte	18
 5703 04b9 0A       		.byte	10
 5704 04ba 16       		.byte	22
 5705 04bb 12       		.byte	18
 5706 04bc 22       		.byte	34
 5707 04bd 77       		.byte	119
 5708 04be 00       		.byte	0
 5709 04bf 00       		.byte	0
 5710 04c0 00       		.byte	0
 5711 04c1 00       		.byte	0
 5712 04c2 00       		.byte	0
 5713 04c3 0E       		.byte	14
 5714 04c4 08       		.byte	8
 5715 04c5 08       		.byte	8
 5716 04c6 08       		.byte	8
 5717 04c7 08       		.byte	8
 5718 04c8 08       		.byte	8
 5719 04c9 08       		.byte	8
 5720 04ca 08       		.byte	8
 5721 04cb 08       		.byte	8
 5722 04cc 08       		.byte	8
 5723 04cd 3E       		.byte	62
 5724 04ce 00       		.byte	0
 5725 04cf 00       		.byte	0
 5726 04d0 00       		.byte	0
GAS LISTING C:\Users\Duckb\AppData\Local\Temp\ccEgig1L.s 			page 122


 5727 04d1 00       		.byte	0
 5728 04d2 00       		.byte	0
 5729 04d3 00       		.byte	0
 5730 04d4 00       		.byte	0
 5731 04d5 00       		.byte	0
 5732 04d6 00       		.byte	0
 5733 04d7 7F       		.byte	127
 5734 04d8 92       		.byte	-110
 5735 04d9 92       		.byte	-110
 5736 04da 92       		.byte	-110
 5737 04db 92       		.byte	-110
 5738 04dc 92       		.byte	-110
 5739 04dd B7       		.byte	-73
 5740 04de 00       		.byte	0
 5741 04df 00       		.byte	0
 5742 04e0 00       		.byte	0
 5743 04e1 00       		.byte	0
 5744 04e2 00       		.byte	0
 5745 04e3 00       		.byte	0
 5746 04e4 00       		.byte	0
 5747 04e5 00       		.byte	0
 5748 04e6 00       		.byte	0
 5749 04e7 3B       		.byte	59
 5750 04e8 46       		.byte	70
 5751 04e9 42       		.byte	66
 5752 04ea 42       		.byte	66
 5753 04eb 42       		.byte	66
 5754 04ec 42       		.byte	66
 5755 04ed E7       		.byte	-25
 5756 04ee 00       		.byte	0
 5757 04ef 00       		.byte	0
 5758 04f0 00       		.byte	0
 5759 04f1 00       		.byte	0
 5760 04f2 00       		.byte	0
 5761 04f3 00       		.byte	0
 5762 04f4 00       		.byte	0
 5763 04f5 00       		.byte	0
 5764 04f6 00       		.byte	0
 5765 04f7 3C       		.byte	60
 5766 04f8 42       		.byte	66
 5767 04f9 42       		.byte	66
 5768 04fa 42       		.byte	66
 5769 04fb 42       		.byte	66
 5770 04fc 42       		.byte	66
 5771 04fd 3C       		.byte	60
 5772 04fe 00       		.byte	0
 5773 04ff 00       		.byte	0
 5774 0500 00       		.byte	0
 5775 0501 00       		.byte	0
 5776 0502 00       		.byte	0
 5777 0503 00       		.byte	0
 5778 0504 00       		.byte	0
 5779 0505 00       		.byte	0
 5780 0506 00       		.byte	0
 5781 0507 1B       		.byte	27
 5782 0508 26       		.byte	38
 5783 0509 42       		.byte	66
GAS LISTING C:\Users\Duckb\AppData\Local\Temp\ccEgig1L.s 			page 123


 5784 050a 42       		.byte	66
 5785 050b 42       		.byte	66
 5786 050c 22       		.byte	34
 5787 050d 1E       		.byte	30
 5788 050e 02       		.byte	2
 5789 050f 07       		.byte	7
 5790 0510 00       		.byte	0
 5791 0511 00       		.byte	0
 5792 0512 00       		.byte	0
 5793 0513 00       		.byte	0
 5794 0514 00       		.byte	0
 5795 0515 00       		.byte	0
 5796 0516 00       		.byte	0
 5797 0517 78       		.byte	120
 5798 0518 44       		.byte	68
 5799 0519 42       		.byte	66
 5800 051a 42       		.byte	66
 5801 051b 42       		.byte	66
 5802 051c 44       		.byte	68
 5803 051d 78       		.byte	120
 5804 051e 40       		.byte	64
 5805 051f E0       		.byte	-32
 5806 0520 00       		.byte	0
 5807 0521 00       		.byte	0
 5808 0522 00       		.byte	0
 5809 0523 00       		.byte	0
 5810 0524 00       		.byte	0
 5811 0525 00       		.byte	0
 5812 0526 00       		.byte	0
 5813 0527 77       		.byte	119
 5814 0528 4C       		.byte	76
 5815 0529 04       		.byte	4
 5816 052a 04       		.byte	4
 5817 052b 04       		.byte	4
 5818 052c 04       		.byte	4
 5819 052d 1F       		.byte	31
 5820 052e 00       		.byte	0
 5821 052f 00       		.byte	0
 5822 0530 00       		.byte	0
 5823 0531 00       		.byte	0
 5824 0532 00       		.byte	0
 5825 0533 00       		.byte	0
 5826 0534 00       		.byte	0
 5827 0535 00       		.byte	0
 5828 0536 00       		.byte	0
 5829 0537 7C       		.byte	124
 5830 0538 42       		.byte	66
 5831 0539 02       		.byte	2
 5832 053a 3C       		.byte	60
 5833 053b 40       		.byte	64
 5834 053c 42       		.byte	66
 5835 053d 3E       		.byte	62
 5836 053e 00       		.byte	0
 5837 053f 00       		.byte	0
 5838 0540 00       		.byte	0
 5839 0541 00       		.byte	0
 5840 0542 00       		.byte	0
GAS LISTING C:\Users\Duckb\AppData\Local\Temp\ccEgig1L.s 			page 124


 5841 0543 00       		.byte	0
 5842 0544 00       		.byte	0
 5843 0545 08       		.byte	8
 5844 0546 08       		.byte	8
 5845 0547 3E       		.byte	62
 5846 0548 08       		.byte	8
 5847 0549 08       		.byte	8
 5848 054a 08       		.byte	8
 5849 054b 08       		.byte	8
 5850 054c 08       		.byte	8
 5851 054d 30       		.byte	48
 5852 054e 00       		.byte	0
 5853 054f 00       		.byte	0
 5854 0550 00       		.byte	0
 5855 0551 00       		.byte	0
 5856 0552 00       		.byte	0
 5857 0553 00       		.byte	0
 5858 0554 00       		.byte	0
 5859 0555 00       		.byte	0
 5860 0556 00       		.byte	0
 5861 0557 63       		.byte	99
 5862 0558 42       		.byte	66
 5863 0559 42       		.byte	66
 5864 055a 42       		.byte	66
 5865 055b 42       		.byte	66
 5866 055c 62       		.byte	98
 5867 055d DC       		.byte	-36
 5868 055e 00       		.byte	0
 5869 055f 00       		.byte	0
 5870 0560 00       		.byte	0
 5871 0561 00       		.byte	0
 5872 0562 00       		.byte	0
 5873 0563 00       		.byte	0
 5874 0564 00       		.byte	0
 5875 0565 00       		.byte	0
 5876 0566 00       		.byte	0
 5877 0567 E7       		.byte	-25
 5878 0568 42       		.byte	66
 5879 0569 24       		.byte	36
 5880 056a 24       		.byte	36
 5881 056b 14       		.byte	20
 5882 056c 08       		.byte	8
 5883 056d 08       		.byte	8
 5884 056e 00       		.byte	0
 5885 056f 00       		.byte	0
 5886 0570 00       		.byte	0
 5887 0571 00       		.byte	0
 5888 0572 00       		.byte	0
 5889 0573 00       		.byte	0
 5890 0574 00       		.byte	0
 5891 0575 00       		.byte	0
 5892 0576 00       		.byte	0
 5893 0577 EB       		.byte	-21
 5894 0578 49       		.byte	73
 5895 0579 49       		.byte	73
 5896 057a 55       		.byte	85
 5897 057b 55       		.byte	85
GAS LISTING C:\Users\Duckb\AppData\Local\Temp\ccEgig1L.s 			page 125


 5898 057c 22       		.byte	34
 5899 057d 22       		.byte	34
 5900 057e 00       		.byte	0
 5901 057f 00       		.byte	0
 5902 0580 00       		.byte	0
 5903 0581 00       		.byte	0
 5904 0582 00       		.byte	0
 5905 0583 00       		.byte	0
 5906 0584 00       		.byte	0
 5907 0585 00       		.byte	0
 5908 0586 00       		.byte	0
 5909 0587 76       		.byte	118
 5910 0588 24       		.byte	36
 5911 0589 18       		.byte	24
 5912 058a 18       		.byte	24
 5913 058b 18       		.byte	24
 5914 058c 24       		.byte	36
 5915 058d 6E       		.byte	110
 5916 058e 00       		.byte	0
 5917 058f 00       		.byte	0
 5918 0590 00       		.byte	0
 5919 0591 00       		.byte	0
 5920 0592 00       		.byte	0
 5921 0593 00       		.byte	0
 5922 0594 00       		.byte	0
 5923 0595 00       		.byte	0
 5924 0596 00       		.byte	0
 5925 0597 E7       		.byte	-25
 5926 0598 42       		.byte	66
 5927 0599 24       		.byte	36
 5928 059a 24       		.byte	36
 5929 059b 14       		.byte	20
 5930 059c 18       		.byte	24
 5931 059d 08       		.byte	8
 5932 059e 08       		.byte	8
 5933 059f 07       		.byte	7
 5934 05a0 00       		.byte	0
 5935 05a1 00       		.byte	0
 5936 05a2 00       		.byte	0
 5937 05a3 00       		.byte	0
 5938 05a4 00       		.byte	0
 5939 05a5 00       		.byte	0
 5940 05a6 00       		.byte	0
 5941 05a7 7E       		.byte	126
 5942 05a8 22       		.byte	34
 5943 05a9 10       		.byte	16
 5944 05aa 08       		.byte	8
 5945 05ab 08       		.byte	8
 5946 05ac 44       		.byte	68
 5947 05ad 7E       		.byte	126
 5948 05ae 00       		.byte	0
 5949 05af 00       		.byte	0
 5950 05b0 00       		.byte	0
 5951 05b1 C0       		.byte	-64
 5952 05b2 20       		.byte	32
 5953 05b3 20       		.byte	32
 5954 05b4 20       		.byte	32
GAS LISTING C:\Users\Duckb\AppData\Local\Temp\ccEgig1L.s 			page 126


 5955 05b5 20       		.byte	32
 5956 05b6 20       		.byte	32
 5957 05b7 10       		.byte	16
 5958 05b8 20       		.byte	32
 5959 05b9 20       		.byte	32
 5960 05ba 20       		.byte	32
 5961 05bb 20       		.byte	32
 5962 05bc 20       		.byte	32
 5963 05bd 20       		.byte	32
 5964 05be C0       		.byte	-64
 5965 05bf 00       		.byte	0
 5966 05c0 10       		.byte	16
 5967 05c1 10       		.byte	16
 5968 05c2 10       		.byte	16
 5969 05c3 10       		.byte	16
 5970 05c4 10       		.byte	16
 5971 05c5 10       		.byte	16
 5972 05c6 10       		.byte	16
 5973 05c7 10       		.byte	16
 5974 05c8 10       		.byte	16
 5975 05c9 10       		.byte	16
 5976 05ca 10       		.byte	16
 5977 05cb 10       		.byte	16
 5978 05cc 10       		.byte	16
 5979 05cd 10       		.byte	16
 5980 05ce 10       		.byte	16
 5981 05cf 10       		.byte	16
 5982 05d0 00       		.byte	0
 5983 05d1 06       		.byte	6
 5984 05d2 08       		.byte	8
 5985 05d3 08       		.byte	8
 5986 05d4 08       		.byte	8
 5987 05d5 08       		.byte	8
 5988 05d6 08       		.byte	8
 5989 05d7 10       		.byte	16
 5990 05d8 08       		.byte	8
 5991 05d9 08       		.byte	8
 5992 05da 08       		.byte	8
 5993 05db 08       		.byte	8
 5994 05dc 08       		.byte	8
 5995 05dd 08       		.byte	8
 5996 05de 06       		.byte	6
 5997 05df 00       		.byte	0
 5998 05e0 AA       		.byte	-86
 5999 05e1 AA       		.byte	-86
 6000 05e2 55       		.byte	85
 6001 05e3 55       		.byte	85
 6002 05e4 AA       		.byte	-86
 6003 05e5 AA       		.byte	-86
 6004 05e6 55       		.byte	85
 6005 05e7 55       		.byte	85
 6006 05e8 AA       		.byte	-86
 6007 05e9 AA       		.byte	-86
 6008 05ea 55       		.byte	85
 6009 05eb 55       		.byte	85
 6010 05ec AA       		.byte	-86
 6011 05ed AA       		.byte	-86
GAS LISTING C:\Users\Duckb\AppData\Local\Temp\ccEgig1L.s 			page 127


 6012 05ee 55       		.byte	85
 6013 05ef 55       		.byte	85
 6014              		.section	.rodata.lcd_delay_1ms.cst8,"aM",@progbits,8
 6015              		.align	3
 6016              	.LC0:
 6017 0000 00000000 		.word	0
 6018 0004 0040AF40 		.word	1085227008
 6019              		.section	.sbss.lcd_conf,"aw",@nobits
 6020              		.align	2
 6021              		.set	.LANCHOR3,. + 0
 6024              	lcd_conf:
 6025 0000 00000000 		.zero	4
 6026              		.section	.sbss.r,"aw",@nobits
 6027              		.align	2
 6028              		.set	.LANCHOR0,. + 0
 6031              	r:
 6032 0000 00000000 		.zero	4
 6033              		.section	.sbss.w,"aw",@nobits
 6034              		.align	2
 6035              		.set	.LANCHOR1,. + 0
 6038              	w:
 6039 0000 00000000 		.zero	4
 6040              		.text
 6041              	.Letext0:
 6042              		.file 2 "c:\\programming\\assembler\\toolchain-gd32v-v202-win\\toolchain-gd32v-v202-win\\compiler\
 6043              		.file 3 "c:\\programming\\assembler\\toolchain-gd32v-v202-win\\toolchain-gd32v-v202-win\\compiler\
 6044              		.file 4 "c:\\programming\\assembler\\toolchain-gd32v-v202-win\\toolchain-gd32v-v202-win\\compiler\
 6045              		.file 5 "c:\\programming\\assembler\\toolchain-gd32v-v202-win\\toolchain-gd32v-v202-win\\compiler\
 6046              		.file 6 "c:\\programming\\assembler\\toolchain-gd32v-v202-win\\toolchain-gd32v-v202-win\\compiler\
 6047              		.file 7 "c:\\programming\\assembler\\toolchain-gd32v-v202-win\\toolchain-gd32v-v202-win\\compiler\
 6048              		.file 8 "c:\\programming\\assembler\\toolchain-gd32v-v202-win\\toolchain-gd32v-v202-win\\compiler\
 6049              		.file 9 "./../../firmware/GD32VF103_standard_peripheral/system_gd32vf103.h"
 6050              		.file 10 "./../../firmware/GD32VF103_standard_peripheral/gd32vf103.h"
 6051              		.file 11 "./../../firmware/GD32VF103_standard_peripheral/Include/gd32vf103_rcu.h"
 6052              		.file 12 "./../../firmware/GD32VF103_standard_peripheral/Include/gd32vf103_spi.h"
 6053              		.file 13 "lcd.h"
 6054              		.file 14 "oledfont.h"
 6055              		.file 15 "./../../firmware/GD32VF103_standard_peripheral/Include/gd32vf103_gpio.h"
 6056              		.file 16 "./../../firmware/RISCV/drivers/n200_func.h"
GAS LISTING C:\Users\Duckb\AppData\Local\Temp\ccEgig1L.s 			page 128


DEFINED SYMBOLS
                            *ABS*:0000000000000000 lcd.c
C:\Users\Duckb\AppData\Local\Temp\ccEgig1L.s:18     .text.lcd_delay_1ms:0000000000000000 lcd_delay_1ms
C:\Users\Duckb\AppData\Local\Temp\ccEgig1L.s:22     .text.lcd_delay_1ms:0000000000000000 .L0 
C:\Users\Duckb\AppData\Local\Temp\ccEgig1L.s:24     .text.lcd_delay_1ms:0000000000000000 .L0 
C:\Users\Duckb\AppData\Local\Temp\ccEgig1L.s:25     .text.lcd_delay_1ms:0000000000000000 .L0 
C:\Users\Duckb\AppData\Local\Temp\ccEgig1L.s:26     .text.lcd_delay_1ms:0000000000000000 .L0 
C:\Users\Duckb\AppData\Local\Temp\ccEgig1L.s:27     .text.lcd_delay_1ms:0000000000000000 .L0 
C:\Users\Duckb\AppData\Local\Temp\ccEgig1L.s:29     .text.lcd_delay_1ms:0000000000000002 .L0 
C:\Users\Duckb\AppData\Local\Temp\ccEgig1L.s:41     .text.lcd_delay_1ms:0000000000000018 .L0 
C:\Users\Duckb\AppData\Local\Temp\ccEgig1L.s:42     .text.lcd_delay_1ms:0000000000000018 .L0 
C:\Users\Duckb\AppData\Local\Temp\ccEgig1L.s:43     .text.lcd_delay_1ms:0000000000000018 .L0 
C:\Users\Duckb\AppData\Local\Temp\ccEgig1L.s:44     .text.lcd_delay_1ms:0000000000000018 .L0 
C:\Users\Duckb\AppData\Local\Temp\ccEgig1L.s:45     .text.lcd_delay_1ms:0000000000000018 .L0 
C:\Users\Duckb\AppData\Local\Temp\ccEgig1L.s:46     .text.lcd_delay_1ms:0000000000000018 .L0 
C:\Users\Duckb\AppData\Local\Temp\ccEgig1L.s:47     .text.lcd_delay_1ms:0000000000000018 .L0 
C:\Users\Duckb\AppData\Local\Temp\ccEgig1L.s:48     .text.lcd_delay_1ms:0000000000000018 .L0 
C:\Users\Duckb\AppData\Local\Temp\ccEgig1L.s:49     .text.lcd_delay_1ms:0000000000000018 .L0 
C:\Users\Duckb\AppData\Local\Temp\ccEgig1L.s:50     .text.lcd_delay_1ms:0000000000000018 .L0 
C:\Users\Duckb\AppData\Local\Temp\ccEgig1L.s:51     .text.lcd_delay_1ms:0000000000000018 .L0 
C:\Users\Duckb\AppData\Local\Temp\ccEgig1L.s:53     .text.lcd_delay_1ms:0000000000000018 .L0 
C:\Users\Duckb\AppData\Local\Temp\ccEgig1L.s:55     .text.lcd_delay_1ms:000000000000001a .L0 
C:\Users\Duckb\AppData\Local\Temp\ccEgig1L.s:62     .text.lcd_delay_1ms:0000000000000026 .L0 
C:\Users\Duckb\AppData\Local\Temp\ccEgig1L.s:63     .text.lcd_delay_1ms:0000000000000026 .L0 
C:\Users\Duckb\AppData\Local\Temp\ccEgig1L.s:64     .text.lcd_delay_1ms:0000000000000026 .L0 
C:\Users\Duckb\AppData\Local\Temp\ccEgig1L.s:70     .text.lcd_delay_1ms:0000000000000032 .L0 
C:\Users\Duckb\AppData\Local\Temp\ccEgig1L.s:74     .text.lcd_delay_1ms:000000000000003a .L0 
C:\Users\Duckb\AppData\Local\Temp\ccEgig1L.s:81     .text.lcd_delay_1ms:000000000000004a .L0 
C:\Users\Duckb\AppData\Local\Temp\ccEgig1L.s:82     .text.lcd_delay_1ms:000000000000004a .L0 
C:\Users\Duckb\AppData\Local\Temp\ccEgig1L.s:83     .text.lcd_delay_1ms:000000000000004a .L0 
C:\Users\Duckb\AppData\Local\Temp\ccEgig1L.s:87     .text.lcd_delay_1ms:0000000000000054 .L0 
C:\Users\Duckb\AppData\Local\Temp\ccEgig1L.s:93     .text.lcd_delay_1ms:000000000000005c .L0 
C:\Users\Duckb\AppData\Local\Temp\ccEgig1L.s:98     .text.lcd_delay_1ms:0000000000000068 .L0 
C:\Users\Duckb\AppData\Local\Temp\ccEgig1L.s:100    .text.lcd_delay_1ms:000000000000006c .L0 
C:\Users\Duckb\AppData\Local\Temp\ccEgig1L.s:102    .text.lcd_delay_1ms:000000000000006e .L0 
C:\Users\Duckb\AppData\Local\Temp\ccEgig1L.s:110    .text.lcd_delay_1ms:0000000000000084 .L0 
C:\Users\Duckb\AppData\Local\Temp\ccEgig1L.s:112    .text.lcd_delay_1ms:0000000000000086 .L0 
C:\Users\Duckb\AppData\Local\Temp\ccEgig1L.s:114    .text.lcd_delay_1ms:0000000000000088 .L0 
C:\Users\Duckb\AppData\Local\Temp\ccEgig1L.s:123    .text.lcd_delay_1ms:00000000000000a0 .L0 
C:\Users\Duckb\AppData\Local\Temp\ccEgig1L.s:131    .text.lcd_delay_1ms:00000000000000b4 .L0 
C:\Users\Duckb\AppData\Local\Temp\ccEgig1L.s:132    .text.lcd_delay_1ms:00000000000000b6 .L0 
C:\Users\Duckb\AppData\Local\Temp\ccEgig1L.s:134    .text.lcd_delay_1ms:00000000000000b8 .L0 
C:\Users\Duckb\AppData\Local\Temp\ccEgig1L.s:137    .text.lcd_delay_1ms:00000000000000ba .L0 
C:\Users\Duckb\AppData\Local\Temp\ccEgig1L.s:139    .text.lcd_delay_1ms:00000000000000bc .L0 
C:\Users\Duckb\AppData\Local\Temp\ccEgig1L.s:141    .text.lcd_delay_1ms:00000000000000be .L0 
C:\Users\Duckb\AppData\Local\Temp\ccEgig1L.s:143    .text.lcd_delay_1ms:00000000000000c0 .L0 
C:\Users\Duckb\AppData\Local\Temp\ccEgig1L.s:145    .text.lcd_delay_1ms:00000000000000c2 .L0 
C:\Users\Duckb\AppData\Local\Temp\ccEgig1L.s:147    .text.lcd_delay_1ms:00000000000000c4 .L0 
C:\Users\Duckb\AppData\Local\Temp\ccEgig1L.s:150    .text.lcd_delay_1ms:00000000000000c6 .L0 
C:\Users\Duckb\AppData\Local\Temp\ccEgig1L.s:152    .text.lcd_delay_1ms:00000000000000c8 .L0 
C:\Users\Duckb\AppData\Local\Temp\ccEgig1L.s:154    .text.lcd_delay_1ms:00000000000000ca .L0 
C:\Users\Duckb\AppData\Local\Temp\ccEgig1L.s:157    .text.lcd_delay_1ms:00000000000000cc .L0 
C:\Users\Duckb\AppData\Local\Temp\ccEgig1L.s:159    .text.lcd_delay_1ms:00000000000000ce .L0 
C:\Users\Duckb\AppData\Local\Temp\ccEgig1L.s:166    .text.LCD_WR_Queue:0000000000000000 LCD_WR_Queue
C:\Users\Duckb\AppData\Local\Temp\ccEgig1L.s:169    .text.LCD_WR_Queue:0000000000000000 .L0 
C:\Users\Duckb\AppData\Local\Temp\ccEgig1L.s:170    .text.LCD_WR_Queue:0000000000000000 .L0 
C:\Users\Duckb\AppData\Local\Temp\ccEgig1L.s:171    .text.LCD_WR_Queue:0000000000000000 .L0 
GAS LISTING C:\Users\Duckb\AppData\Local\Temp\ccEgig1L.s 			page 129


C:\Users\Duckb\AppData\Local\Temp\ccEgig1L.s:172    .text.LCD_WR_Queue:0000000000000000 .L0 
C:\Users\Duckb\AppData\Local\Temp\ccEgig1L.s:174    .text.LCD_WR_Queue:0000000000000002 .L0 
C:\Users\Duckb\AppData\Local\Temp\ccEgig1L.s:177    .text.LCD_WR_Queue:0000000000000004 .L0 
C:\Users\Duckb\AppData\Local\Temp\ccEgig1L.s:178    .text.LCD_WR_Queue:0000000000000008 .L0 
C:\Users\Duckb\AppData\Local\Temp\ccEgig1L.s:180    .text.LCD_WR_Queue:0000000000000008 .L0 
C:\Users\Duckb\AppData\Local\Temp\ccEgig1L.s:182    .text.LCD_WR_Queue:000000000000000c .L0 
C:\Users\Duckb\AppData\Local\Temp\ccEgig1L.s:185    .text.LCD_WR_Queue:0000000000000014 .L0 
C:\Users\Duckb\AppData\Local\Temp\ccEgig1L.s:187    .text.LCD_WR_Queue:0000000000000018 .L0 
C:\Users\Duckb\AppData\Local\Temp\ccEgig1L.s:188    .text.LCD_WR_Queue:0000000000000018 .L0 
C:\Users\Duckb\AppData\Local\Temp\ccEgig1L.s:190    .text.LCD_WR_Queue:0000000000000018 .L0 
C:\Users\Duckb\AppData\Local\Temp\ccEgig1L.s:192    .text.LCD_WR_Queue:000000000000001c .L0 
C:\Users\Duckb\AppData\Local\Temp\ccEgig1L.s:193    .text.LCD_WR_Queue:000000000000001c .L0 
C:\Users\Duckb\AppData\Local\Temp\ccEgig1L.s:199    .text.LCD_WR_Queue:000000000000002e .L0 
C:\Users\Duckb\AppData\Local\Temp\ccEgig1L.s:203    .text.LCD_WR_Queue:0000000000000030 .L0 
C:\Users\Duckb\AppData\Local\Temp\ccEgig1L.s:209    .text.LCD_WR_Queue:0000000000000042 .L0 
C:\Users\Duckb\AppData\Local\Temp\ccEgig1L.s:210    .text.LCD_WR_Queue:0000000000000042 .L0 
C:\Users\Duckb\AppData\Local\Temp\ccEgig1L.s:211    .text.LCD_WR_Queue:0000000000000042 .L0 
C:\Users\Duckb\AppData\Local\Temp\ccEgig1L.s:217    .text.LCD_WR_Queue:0000000000000050 .L0 
C:\Users\Duckb\AppData\Local\Temp\ccEgig1L.s:221    .text.LCD_WR_Queue:000000000000005a .L0 
C:\Users\Duckb\AppData\Local\Temp\ccEgig1L.s:224    .text.LCD_WR_Queue:0000000000000060 .L0 
C:\Users\Duckb\AppData\Local\Temp\ccEgig1L.s:226    .text.LCD_WR_Queue:0000000000000064 .L0 
C:\Users\Duckb\AppData\Local\Temp\ccEgig1L.s:230    .text.LCD_WR_Queue:000000000000006c .L0 
C:\Users\Duckb\AppData\Local\Temp\ccEgig1L.s:231    .text.LCD_WR_Queue:000000000000006c .L0 
C:\Users\Duckb\AppData\Local\Temp\ccEgig1L.s:233    .text.LCD_WR_Queue:000000000000006e .L0 
C:\Users\Duckb\AppData\Local\Temp\ccEgig1L.s:236    .text.LCD_WR_Queue:0000000000000076 .L0 
C:\Users\Duckb\AppData\Local\Temp\ccEgig1L.s:238    .text.LCD_WR_Queue:000000000000007a .L0 
C:\Users\Duckb\AppData\Local\Temp\ccEgig1L.s:241    .text.LCD_WR_Queue:000000000000007e .L0 
C:\Users\Duckb\AppData\Local\Temp\ccEgig1L.s:243    .text.LCD_WR_Queue:0000000000000082 .L0 
C:\Users\Duckb\AppData\Local\Temp\ccEgig1L.s:245    .text.LCD_WR_Queue:0000000000000084 .L0 
C:\Users\Duckb\AppData\Local\Temp\ccEgig1L.s:248    .text.LCD_WR_Queue:000000000000008c .L0 
C:\Users\Duckb\AppData\Local\Temp\ccEgig1L.s:249    .text.LCD_WR_Queue:000000000000008c .L0 
C:\Users\Duckb\AppData\Local\Temp\ccEgig1L.s:257    .text.LCD_WR_Queue:0000000000000098 .L0 
C:\Users\Duckb\AppData\Local\Temp\ccEgig1L.s:258    .text.LCD_WR_Queue:000000000000009a .L0 
C:\Users\Duckb\AppData\Local\Temp\ccEgig1L.s:259    .text.LCD_WR_Queue:000000000000009a .L0 
C:\Users\Duckb\AppData\Local\Temp\ccEgig1L.s:261    .text.LCD_WR_Queue:000000000000009c .L0 
C:\Users\Duckb\AppData\Local\Temp\ccEgig1L.s:263    .text.LCD_WR_Queue:000000000000009e .L0 
C:\Users\Duckb\AppData\Local\Temp\ccEgig1L.s:266    .text.LCD_WR_Queue:00000000000000a0 .L0 
C:\Users\Duckb\AppData\Local\Temp\ccEgig1L.s:270    .text.LCD_WR_Queue:00000000000000a2 .L0 
C:\Users\Duckb\AppData\Local\Temp\ccEgig1L.s:274    .text.LCD_WR_Queue:00000000000000a2 .L0 
C:\Users\Duckb\AppData\Local\Temp\ccEgig1L.s:281    .text.LCD_WR_Queue:00000000000000ac .L0 
C:\Users\Duckb\AppData\Local\Temp\ccEgig1L.s:282    .text.LCD_WR_Queue:00000000000000ac .L0 
C:\Users\Duckb\AppData\Local\Temp\ccEgig1L.s:283    .text.LCD_WR_Queue:00000000000000ae .L0 
C:\Users\Duckb\AppData\Local\Temp\ccEgig1L.s:285    .text.LCD_WR_Queue:00000000000000b0 .L0 
C:\Users\Duckb\AppData\Local\Temp\ccEgig1L.s:287    .text.LCD_WR_Queue:00000000000000b2 .L0 
C:\Users\Duckb\AppData\Local\Temp\ccEgig1L.s:289    .text.LCD_WR_Queue:00000000000000b2 .L0 
C:\Users\Duckb\AppData\Local\Temp\ccEgig1L.s:291    .text.LCD_WR_Queue:00000000000000b4 .L0 
C:\Users\Duckb\AppData\Local\Temp\ccEgig1L.s:292    .text.LCD_WR_Queue:00000000000000b4 .L0 
C:\Users\Duckb\AppData\Local\Temp\ccEgig1L.s:294    .text.LCD_WR_Queue:00000000000000b8 .L0 
C:\Users\Duckb\AppData\Local\Temp\ccEgig1L.s:296    .text.LCD_WR_Queue:00000000000000ba .L0 
C:\Users\Duckb\AppData\Local\Temp\ccEgig1L.s:298    .text.LCD_WR_Queue:00000000000000ba .L0 
C:\Users\Duckb\AppData\Local\Temp\ccEgig1L.s:300    .text.LCD_WR_Queue:00000000000000c2 .L0 
C:\Users\Duckb\AppData\Local\Temp\ccEgig1L.s:307    .text.LCD_Wait_On_Queue:0000000000000000 LCD_Wait_On_Queue
C:\Users\Duckb\AppData\Local\Temp\ccEgig1L.s:310    .text.LCD_Wait_On_Queue:0000000000000000 .L0 
C:\Users\Duckb\AppData\Local\Temp\ccEgig1L.s:311    .text.LCD_Wait_On_Queue:0000000000000000 .L0 
C:\Users\Duckb\AppData\Local\Temp\ccEgig1L.s:312    .text.LCD_Wait_On_Queue:0000000000000000 .L0 
C:\Users\Duckb\AppData\Local\Temp\ccEgig1L.s:313    .text.LCD_Wait_On_Queue:0000000000000000 .L0 
C:\Users\Duckb\AppData\Local\Temp\ccEgig1L.s:315    .text.LCD_Wait_On_Queue:0000000000000002 .L0 
GAS LISTING C:\Users\Duckb\AppData\Local\Temp\ccEgig1L.s 			page 130


C:\Users\Duckb\AppData\Local\Temp\ccEgig1L.s:319    .text.LCD_Wait_On_Queue:0000000000000008 .L0 
C:\Users\Duckb\AppData\Local\Temp\ccEgig1L.s:320    .text.LCD_Wait_On_Queue:0000000000000008 .L0 
C:\Users\Duckb\AppData\Local\Temp\ccEgig1L.s:321    .text.LCD_Wait_On_Queue:0000000000000008 .L0 
C:\Users\Duckb\AppData\Local\Temp\ccEgig1L.s:323    .text.LCD_Wait_On_Queue:0000000000000008 .L0 
C:\Users\Duckb\AppData\Local\Temp\ccEgig1L.s:327    .text.LCD_Wait_On_Queue:0000000000000010 .L0 
C:\Users\Duckb\AppData\Local\Temp\ccEgig1L.s:331    .text.LCD_Wait_On_Queue:000000000000001c .L0 
C:\Users\Duckb\AppData\Local\Temp\ccEgig1L.s:332    .text.LCD_Wait_On_Queue:000000000000001e .L0 
C:\Users\Duckb\AppData\Local\Temp\ccEgig1L.s:333    .text.LCD_Wait_On_Queue:000000000000001e .L0 
C:\Users\Duckb\AppData\Local\Temp\ccEgig1L.s:335    .text.LCD_Wait_On_Queue:0000000000000020 .L0 
C:\Users\Duckb\AppData\Local\Temp\ccEgig1L.s:337    .text.LCD_Wait_On_Queue:0000000000000022 .L0 
C:\Users\Duckb\AppData\Local\Temp\ccEgig1L.s:340    .text.LCD_Wait_On_Queue:0000000000000024 .L0 
C:\Users\Duckb\AppData\Local\Temp\ccEgig1L.s:344    .text.LCD_Wait_On_Queue:0000000000000026 .L0 
C:\Users\Duckb\AppData\Local\Temp\ccEgig1L.s:346    .text.LCD_Wait_On_Queue:0000000000000026 .L0 
C:\Users\Duckb\AppData\Local\Temp\ccEgig1L.s:349    .text.LCD_Wait_On_Queue:0000000000000030 .L0 
C:\Users\Duckb\AppData\Local\Temp\ccEgig1L.s:356    .text.LCD_Write_Bus:0000000000000000 LCD_Write_Bus
C:\Users\Duckb\AppData\Local\Temp\ccEgig1L.s:359    .text.LCD_Write_Bus:0000000000000000 .L0 
C:\Users\Duckb\AppData\Local\Temp\ccEgig1L.s:361    .text.LCD_Write_Bus:0000000000000000 .L0 
C:\Users\Duckb\AppData\Local\Temp\ccEgig1L.s:362    .text.LCD_Write_Bus:0000000000000000 .L0 
C:\Users\Duckb\AppData\Local\Temp\ccEgig1L.s:363    .text.LCD_Write_Bus:0000000000000000 .L0 
C:\Users\Duckb\AppData\Local\Temp\ccEgig1L.s:365    .text.LCD_Write_Bus:0000000000000002 .L0 
C:\Users\Duckb\AppData\Local\Temp\ccEgig1L.s:370    .text.LCD_Write_Bus:000000000000000a .L0 
C:\Users\Duckb\AppData\Local\Temp\ccEgig1L.s:371    .text.LCD_Write_Bus:000000000000000a .L0 
C:\Users\Duckb\AppData\Local\Temp\ccEgig1L.s:372    .text.LCD_Write_Bus:000000000000000a .L0 
C:\Users\Duckb\AppData\Local\Temp\ccEgig1L.s:373    .text.LCD_Write_Bus:000000000000000a .L0 
C:\Users\Duckb\AppData\Local\Temp\ccEgig1L.s:375    .text.LCD_Write_Bus:000000000000000a .L0 
C:\Users\Duckb\AppData\Local\Temp\ccEgig1L.s:377    .text.LCD_Write_Bus:000000000000000e .L0 
C:\Users\Duckb\AppData\Local\Temp\ccEgig1L.s:379    .text.LCD_Write_Bus:0000000000000012 .L0 
C:\Users\Duckb\AppData\Local\Temp\ccEgig1L.s:383    .text.LCD_Write_Bus:0000000000000016 .L0 
C:\Users\Duckb\AppData\Local\Temp\ccEgig1L.s:386    .text.LCD_Write_Bus:000000000000001c .L0 
C:\Users\Duckb\AppData\Local\Temp\ccEgig1L.s:388    .text.LCD_Write_Bus:0000000000000020 .L0 
C:\Users\Duckb\AppData\Local\Temp\ccEgig1L.s:390    .text.LCD_Write_Bus:0000000000000024 .L0 
C:\Users\Duckb\AppData\Local\Temp\ccEgig1L.s:392    .text.LCD_Write_Bus:0000000000000028 .L0 
C:\Users\Duckb\AppData\Local\Temp\ccEgig1L.s:394    .text.LCD_Write_Bus:000000000000002c .L0 
C:\Users\Duckb\AppData\Local\Temp\ccEgig1L.s:395    .text.LCD_Write_Bus:000000000000002c .L0 
C:\Users\Duckb\AppData\Local\Temp\ccEgig1L.s:398    .text.LCD_Write_Bus:0000000000000034 .L0 
C:\Users\Duckb\AppData\Local\Temp\ccEgig1L.s:399    .text.LCD_Write_Bus:0000000000000036 .L0 
C:\Users\Duckb\AppData\Local\Temp\ccEgig1L.s:400    .text.LCD_Write_Bus:0000000000000036 .L0 
C:\Users\Duckb\AppData\Local\Temp\ccEgig1L.s:402    .text.LCD_Write_Bus:0000000000000038 .L0 
C:\Users\Duckb\AppData\Local\Temp\ccEgig1L.s:404    .text.LCD_Write_Bus:0000000000000038 .L0 
C:\Users\Duckb\AppData\Local\Temp\ccEgig1L.s:408    .text.LCD_Write_Bus:0000000000000040 .L0 
C:\Users\Duckb\AppData\Local\Temp\ccEgig1L.s:409    .text.LCD_Write_Bus:0000000000000040 .L0 
C:\Users\Duckb\AppData\Local\Temp\ccEgig1L.s:411    .text.LCD_Write_Bus:0000000000000042 .L0 
C:\Users\Duckb\AppData\Local\Temp\ccEgig1L.s:412    .text.LCD_Write_Bus:0000000000000044 .L0 
C:\Users\Duckb\AppData\Local\Temp\ccEgig1L.s:414    .text.LCD_Write_Bus:0000000000000046 .L0 
C:\Users\Duckb\AppData\Local\Temp\ccEgig1L.s:417    .text.LCD_Write_Bus:0000000000000048 .L0 
C:\Users\Duckb\AppData\Local\Temp\ccEgig1L.s:421    .text.LCD_Write_Bus:000000000000004a .L0 
C:\Users\Duckb\AppData\Local\Temp\ccEgig1L.s:424    .text.LCD_Write_Bus:000000000000004c .L0 
C:\Users\Duckb\AppData\Local\Temp\ccEgig1L.s:428    .text.LCD_Write_Bus:0000000000000058 .L0 
C:\Users\Duckb\AppData\Local\Temp\ccEgig1L.s:435    .text.LCD_Writ_Bus:0000000000000000 LCD_Writ_Bus
C:\Users\Duckb\AppData\Local\Temp\ccEgig1L.s:438    .text.LCD_Writ_Bus:0000000000000000 .L0 
C:\Users\Duckb\AppData\Local\Temp\ccEgig1L.s:440    .text.LCD_Writ_Bus:0000000000000000 .L0 
C:\Users\Duckb\AppData\Local\Temp\ccEgig1L.s:441    .text.LCD_Writ_Bus:0000000000000000 .L0 
C:\Users\Duckb\AppData\Local\Temp\ccEgig1L.s:442    .text.LCD_Writ_Bus:0000000000000000 .L0 
C:\Users\Duckb\AppData\Local\Temp\ccEgig1L.s:444    .text.LCD_Writ_Bus:0000000000000002 .L0 
C:\Users\Duckb\AppData\Local\Temp\ccEgig1L.s:448    .text.LCD_Writ_Bus:0000000000000006 .L0 
C:\Users\Duckb\AppData\Local\Temp\ccEgig1L.s:449    .text.LCD_Writ_Bus:0000000000000008 .L0 
C:\Users\Duckb\AppData\Local\Temp\ccEgig1L.s:450    .text.LCD_Writ_Bus:0000000000000008 .L0 
GAS LISTING C:\Users\Duckb\AppData\Local\Temp\ccEgig1L.s 			page 131


C:\Users\Duckb\AppData\Local\Temp\ccEgig1L.s:452    .text.LCD_Writ_Bus:0000000000000008 .L0 
C:\Users\Duckb\AppData\Local\Temp\ccEgig1L.s:454    .text.LCD_Writ_Bus:000000000000000a .L0 
C:\Users\Duckb\AppData\Local\Temp\ccEgig1L.s:456    .text.LCD_Writ_Bus:000000000000000e .L0 
C:\Users\Duckb\AppData\Local\Temp\ccEgig1L.s:459    .text.LCD_Writ_Bus:0000000000000012 .L0 
C:\Users\Duckb\AppData\Local\Temp\ccEgig1L.s:461    .text.LCD_Writ_Bus:0000000000000016 .L0 
C:\Users\Duckb\AppData\Local\Temp\ccEgig1L.s:462    .text.LCD_Writ_Bus:0000000000000016 .L0 
C:\Users\Duckb\AppData\Local\Temp\ccEgig1L.s:464    .text.LCD_Writ_Bus:0000000000000016 .L0 
C:\Users\Duckb\AppData\Local\Temp\ccEgig1L.s:466    .text.LCD_Writ_Bus:000000000000001a .L0 
C:\Users\Duckb\AppData\Local\Temp\ccEgig1L.s:470    .text.LCD_Writ_Bus:0000000000000022 .L0 
C:\Users\Duckb\AppData\Local\Temp\ccEgig1L.s:471    .text.LCD_Writ_Bus:0000000000000022 .L0 
C:\Users\Duckb\AppData\Local\Temp\ccEgig1L.s:472    .text.LCD_Writ_Bus:0000000000000022 .L0 
C:\Users\Duckb\AppData\Local\Temp\ccEgig1L.s:477    .text.LCD_Writ_Bus:000000000000002e .L0 
C:\Users\Duckb\AppData\Local\Temp\ccEgig1L.s:479    .text.LCD_Writ_Bus:0000000000000030 .L0 
C:\Users\Duckb\AppData\Local\Temp\ccEgig1L.s:482    .text.LCD_Writ_Bus:0000000000000036 .L0 
C:\Users\Duckb\AppData\Local\Temp\ccEgig1L.s:484    .text.LCD_Writ_Bus:000000000000003a .L0 
C:\Users\Duckb\AppData\Local\Temp\ccEgig1L.s:487    .text.LCD_Writ_Bus:0000000000000042 .L0 
C:\Users\Duckb\AppData\Local\Temp\ccEgig1L.s:488    .text.LCD_Writ_Bus:0000000000000042 .L0 
C:\Users\Duckb\AppData\Local\Temp\ccEgig1L.s:491    .text.LCD_Writ_Bus:0000000000000046 .L0 
C:\Users\Duckb\AppData\Local\Temp\ccEgig1L.s:492    .text.LCD_Writ_Bus:0000000000000046 .L0 
C:\Users\Duckb\AppData\Local\Temp\ccEgig1L.s:497    .text.LCD_Writ_Bus:0000000000000052 .L0 
C:\Users\Duckb\AppData\Local\Temp\ccEgig1L.s:499    .text.LCD_Writ_Bus:0000000000000054 .L0 
C:\Users\Duckb\AppData\Local\Temp\ccEgig1L.s:503    .text.LCD_Writ_Bus:0000000000000060 .L0 
C:\Users\Duckb\AppData\Local\Temp\ccEgig1L.s:504    .text.LCD_Writ_Bus:0000000000000060 .L0 
C:\Users\Duckb\AppData\Local\Temp\ccEgig1L.s:505    .text.LCD_Writ_Bus:0000000000000062 .L0 
C:\Users\Duckb\AppData\Local\Temp\ccEgig1L.s:507    .text.LCD_Writ_Bus:0000000000000064 .L0 
C:\Users\Duckb\AppData\Local\Temp\ccEgig1L.s:509    .text.LCD_Writ_Bus:0000000000000066 .L0 
C:\Users\Duckb\AppData\Local\Temp\ccEgig1L.s:511    .text.LCD_Writ_Bus:0000000000000068 .L0 
C:\Users\Duckb\AppData\Local\Temp\ccEgig1L.s:513    .text.LCD_Writ_Bus:0000000000000068 .L0 
C:\Users\Duckb\AppData\Local\Temp\ccEgig1L.s:515    .text.LCD_Writ_Bus:000000000000006a .L0 
C:\Users\Duckb\AppData\Local\Temp\ccEgig1L.s:516    .text.LCD_Writ_Bus:000000000000006a .L0 
C:\Users\Duckb\AppData\Local\Temp\ccEgig1L.s:518    .text.LCD_Writ_Bus:000000000000006e .L0 
C:\Users\Duckb\AppData\Local\Temp\ccEgig1L.s:520    .text.LCD_Writ_Bus:0000000000000070 .L0 
C:\Users\Duckb\AppData\Local\Temp\ccEgig1L.s:522    .text.LCD_Writ_Bus:0000000000000070 .L0 
C:\Users\Duckb\AppData\Local\Temp\ccEgig1L.s:524    .text.LCD_Writ_Bus:0000000000000078 .L0 
C:\Users\Duckb\AppData\Local\Temp\ccEgig1L.s:531    .text.LCD_WR_DATA8:0000000000000000 LCD_WR_DATA8
C:\Users\Duckb\AppData\Local\Temp\ccEgig1L.s:534    .text.LCD_WR_DATA8:0000000000000000 .L0 
C:\Users\Duckb\AppData\Local\Temp\ccEgig1L.s:536    .text.LCD_WR_DATA8:0000000000000000 .L0 
C:\Users\Duckb\AppData\Local\Temp\ccEgig1L.s:537    .text.LCD_WR_DATA8:0000000000000000 .L0 
C:\Users\Duckb\AppData\Local\Temp\ccEgig1L.s:541    .text.LCD_WR_DATA8:000000000000000c .L0 
C:\Users\Duckb\AppData\Local\Temp\ccEgig1L.s:548    .text.LCD_WR_DATA:0000000000000000 LCD_WR_DATA
C:\Users\Duckb\AppData\Local\Temp\ccEgig1L.s:551    .text.LCD_WR_DATA:0000000000000000 .L0 
C:\Users\Duckb\AppData\Local\Temp\ccEgig1L.s:553    .text.LCD_WR_DATA:0000000000000000 .L0 
C:\Users\Duckb\AppData\Local\Temp\ccEgig1L.s:554    .text.LCD_WR_DATA:0000000000000000 .L0 
C:\Users\Duckb\AppData\Local\Temp\ccEgig1L.s:555    .text.LCD_WR_DATA:0000000000000000 .L0 
C:\Users\Duckb\AppData\Local\Temp\ccEgig1L.s:557    .text.LCD_WR_DATA:0000000000000002 .L0 
C:\Users\Duckb\AppData\Local\Temp\ccEgig1L.s:559    .text.LCD_WR_DATA:0000000000000004 .L0 
C:\Users\Duckb\AppData\Local\Temp\ccEgig1L.s:562    .text.LCD_WR_DATA:0000000000000006 .L0 
C:\Users\Duckb\AppData\Local\Temp\ccEgig1L.s:565    .text.LCD_WR_DATA:0000000000000008 .L0 
C:\Users\Duckb\AppData\Local\Temp\ccEgig1L.s:567    .text.LCD_WR_DATA:000000000000000c .L0 
C:\Users\Duckb\AppData\Local\Temp\ccEgig1L.s:568    .text.LCD_WR_DATA:000000000000000e .L0 
C:\Users\Duckb\AppData\Local\Temp\ccEgig1L.s:570    .text.LCD_WR_DATA:000000000000000e .L0 
C:\Users\Duckb\AppData\Local\Temp\ccEgig1L.s:573    .text.LCD_WR_DATA:0000000000000016 .L0 
C:\Users\Duckb\AppData\Local\Temp\ccEgig1L.s:574    .text.LCD_WR_DATA:0000000000000016 .L0 
C:\Users\Duckb\AppData\Local\Temp\ccEgig1L.s:576    .text.LCD_WR_DATA:000000000000001a .L0 
C:\Users\Duckb\AppData\Local\Temp\ccEgig1L.s:577    .text.LCD_WR_DATA:000000000000001c .L0 
C:\Users\Duckb\AppData\Local\Temp\ccEgig1L.s:580    .text.LCD_WR_DATA:000000000000001e .L0 
C:\Users\Duckb\AppData\Local\Temp\ccEgig1L.s:582    .text.LCD_WR_DATA:000000000000001e .L0 
GAS LISTING C:\Users\Duckb\AppData\Local\Temp\ccEgig1L.s 			page 132


C:\Users\Duckb\AppData\Local\Temp\ccEgig1L.s:584    .text.LCD_WR_DATA:0000000000000022 .L0 
C:\Users\Duckb\AppData\Local\Temp\ccEgig1L.s:586    .text.LCD_WR_DATA:0000000000000024 .L0 
C:\Users\Duckb\AppData\Local\Temp\ccEgig1L.s:588    .text.LCD_WR_DATA:0000000000000024 .L0 
C:\Users\Duckb\AppData\Local\Temp\ccEgig1L.s:590    .text.LCD_WR_DATA:000000000000002c .L0 
C:\Users\Duckb\AppData\Local\Temp\ccEgig1L.s:597    .text.LCD_WR_REG:0000000000000000 LCD_WR_REG
C:\Users\Duckb\AppData\Local\Temp\ccEgig1L.s:600    .text.LCD_WR_REG:0000000000000000 .L0 
C:\Users\Duckb\AppData\Local\Temp\ccEgig1L.s:602    .text.LCD_WR_REG:0000000000000000 .L0 
C:\Users\Duckb\AppData\Local\Temp\ccEgig1L.s:603    .text.LCD_WR_REG:0000000000000000 .L0 
C:\Users\Duckb\AppData\Local\Temp\ccEgig1L.s:605    .text.LCD_WR_REG:0000000000000008 .L0 
C:\Users\Duckb\AppData\Local\Temp\ccEgig1L.s:612    .text.LCD_Address_Set:0000000000000000 LCD_Address_Set
C:\Users\Duckb\AppData\Local\Temp\ccEgig1L.s:615    .text.LCD_Address_Set:0000000000000000 .L0 
C:\Users\Duckb\AppData\Local\Temp\ccEgig1L.s:617    .text.LCD_Address_Set:0000000000000000 .L0 
C:\Users\Duckb\AppData\Local\Temp\ccEgig1L.s:620    .text.LCD_Address_Set:0000000000000000 .L0 
C:\Users\Duckb\AppData\Local\Temp\ccEgig1L.s:623    .text.LCD_Address_Set:0000000000000000 .L0 
C:\Users\Duckb\AppData\Local\Temp\ccEgig1L.s:624    .text.LCD_Address_Set:0000000000000000 .L0 
C:\Users\Duckb\AppData\Local\Temp\ccEgig1L.s:626    .text.LCD_Address_Set:0000000000000002 .L0 
C:\Users\Duckb\AppData\Local\Temp\ccEgig1L.s:629    .text.LCD_Address_Set:0000000000000006 .L0 
C:\Users\Duckb\AppData\Local\Temp\ccEgig1L.s:630    .text.LCD_Address_Set:0000000000000006 .L0 
C:\Users\Duckb\AppData\Local\Temp\ccEgig1L.s:632    .text.LCD_Address_Set:0000000000000006 .L0 
C:\Users\Duckb\AppData\Local\Temp\ccEgig1L.s:634    .text.LCD_Address_Set:000000000000000a .L0 
C:\Users\Duckb\AppData\Local\Temp\ccEgig1L.s:638    .text.LCD_Address_Set:000000000000000c .L0 
C:\Users\Duckb\AppData\Local\Temp\ccEgig1L.s:643    .text.LCD_Address_Set:0000000000000010 .L0 
C:\Users\Duckb\AppData\Local\Temp\ccEgig1L.s:644    .text.LCD_Address_Set:0000000000000012 .L0 
C:\Users\Duckb\AppData\Local\Temp\ccEgig1L.s:646    .text.LCD_Address_Set:0000000000000012 .L0 
C:\Users\Duckb\AppData\Local\Temp\ccEgig1L.s:649    .text.LCD_Address_Set:0000000000000016 .L0 
C:\Users\Duckb\AppData\Local\Temp\ccEgig1L.s:651    .text.LCD_Address_Set:000000000000001a .L0 
C:\Users\Duckb\AppData\Local\Temp\ccEgig1L.s:655    .text.LCD_Address_Set:000000000000001c .L0 
C:\Users\Duckb\AppData\Local\Temp\ccEgig1L.s:660    .text.LCD_Address_Set:0000000000000024 .L0 
C:\Users\Duckb\AppData\Local\Temp\ccEgig1L.s:661    .text.LCD_Address_Set:0000000000000024 .L0 
C:\Users\Duckb\AppData\Local\Temp\ccEgig1L.s:663    .text.LCD_Address_Set:0000000000000028 .L0 
C:\Users\Duckb\AppData\Local\Temp\ccEgig1L.s:667    .text.LCD_Address_Set:0000000000000032 .L0 
C:\Users\Duckb\AppData\Local\Temp\ccEgig1L.s:669    .text.LCD_Address_Set:0000000000000034 .L0 
C:\Users\Duckb\AppData\Local\Temp\ccEgig1L.s:671    .text.LCD_Address_Set:0000000000000038 .L0 
C:\Users\Duckb\AppData\Local\Temp\ccEgig1L.s:677    .text.LCD_Address_Set:0000000000000042 .L0 
C:\Users\Duckb\AppData\Local\Temp\ccEgig1L.s:678    .text.LCD_Address_Set:0000000000000042 .L0 
C:\Users\Duckb\AppData\Local\Temp\ccEgig1L.s:684    .text.LCD_Address_Set:000000000000004e .L0 
C:\Users\Duckb\AppData\Local\Temp\ccEgig1L.s:686    .text.LCD_Address_Set:0000000000000050 .L0 
C:\Users\Duckb\AppData\Local\Temp\ccEgig1L.s:688    .text.LCD_Address_Set:0000000000000054 .L0 
C:\Users\Duckb\AppData\Local\Temp\ccEgig1L.s:692    .text.LCD_Address_Set:000000000000005e .L0 
C:\Users\Duckb\AppData\Local\Temp\ccEgig1L.s:693    .text.LCD_Address_Set:000000000000005e .L0 
C:\Users\Duckb\AppData\Local\Temp\ccEgig1L.s:695    .text.LCD_Address_Set:0000000000000062 .L0 
C:\Users\Duckb\AppData\Local\Temp\ccEgig1L.s:702    .text.LCD_Address_Set:000000000000006e .L0 
C:\Users\Duckb\AppData\Local\Temp\ccEgig1L.s:705    .text.LCD_Address_Set:000000000000006e .L0 
C:\Users\Duckb\AppData\Local\Temp\ccEgig1L.s:706    .text.LCD_Address_Set:000000000000006e .L0 
C:\Users\Duckb\AppData\Local\Temp\ccEgig1L.s:707    .text.LCD_Address_Set:0000000000000070 .L0 
C:\Users\Duckb\AppData\Local\Temp\ccEgig1L.s:709    .text.LCD_Address_Set:0000000000000072 .L0 
C:\Users\Duckb\AppData\Local\Temp\ccEgig1L.s:711    .text.LCD_Address_Set:0000000000000074 .L0 
C:\Users\Duckb\AppData\Local\Temp\ccEgig1L.s:716    .text.LCD_Address_Set:0000000000000074 .L0 
C:\Users\Duckb\AppData\Local\Temp\ccEgig1L.s:720    .text.LCD_Address_Set:0000000000000078 .L0 
C:\Users\Duckb\AppData\Local\Temp\ccEgig1L.s:722    .text.LCD_Address_Set:000000000000007a .L0 
C:\Users\Duckb\AppData\Local\Temp\ccEgig1L.s:727    .text.LCD_Address_Set:000000000000007a .L0 
C:\Users\Duckb\AppData\Local\Temp\ccEgig1L.s:731    .text.LCD_Address_Set:0000000000000082 .L0 
C:\Users\Duckb\AppData\Local\Temp\ccEgig1L.s:738    .text.spi_config:0000000000000000 spi_config
C:\Users\Duckb\AppData\Local\Temp\ccEgig1L.s:741    .text.spi_config:0000000000000000 .L0 
C:\Users\Duckb\AppData\Local\Temp\ccEgig1L.s:742    .text.spi_config:0000000000000000 .L0 
C:\Users\Duckb\AppData\Local\Temp\ccEgig1L.s:743    .text.spi_config:0000000000000000 .L0 
C:\Users\Duckb\AppData\Local\Temp\ccEgig1L.s:744    .text.spi_config:0000000000000000 .L0 
GAS LISTING C:\Users\Duckb\AppData\Local\Temp\ccEgig1L.s 			page 133


C:\Users\Duckb\AppData\Local\Temp\ccEgig1L.s:745    .text.spi_config:0000000000000000 .L0 
C:\Users\Duckb\AppData\Local\Temp\ccEgig1L.s:747    .text.spi_config:0000000000000002 .L0 
C:\Users\Duckb\AppData\Local\Temp\ccEgig1L.s:749    .text.spi_config:0000000000000002 .L0 
C:\Users\Duckb\AppData\Local\Temp\ccEgig1L.s:752    .text.spi_config:0000000000000008 .L0 
C:\Users\Duckb\AppData\Local\Temp\ccEgig1L.s:754    .text.spi_config:000000000000000c .L0 
C:\Users\Duckb\AppData\Local\Temp\ccEgig1L.s:755    .text.spi_config:000000000000000c .L0 
C:\Users\Duckb\AppData\Local\Temp\ccEgig1L.s:757    .text.spi_config:000000000000000c .L0 
C:\Users\Duckb\AppData\Local\Temp\ccEgig1L.s:760    .text.spi_config:0000000000000014 .L0 
C:\Users\Duckb\AppData\Local\Temp\ccEgig1L.s:764    .text.spi_config:000000000000001e .L0 
C:\Users\Duckb\AppData\Local\Temp\ccEgig1L.s:765    .text.spi_config:000000000000001e .L0 
C:\Users\Duckb\AppData\Local\Temp\ccEgig1L.s:768    .text.spi_config:0000000000000024 .L0 
C:\Users\Duckb\AppData\Local\Temp\ccEgig1L.s:770    .text.spi_config:0000000000000026 .L0 
C:\Users\Duckb\AppData\Local\Temp\ccEgig1L.s:772    .text.spi_config:000000000000002a .L0 
C:\Users\Duckb\AppData\Local\Temp\ccEgig1L.s:774    .text.spi_config:000000000000002c .L0 
C:\Users\Duckb\AppData\Local\Temp\ccEgig1L.s:777    .text.spi_config:0000000000000032 .L0 
C:\Users\Duckb\AppData\Local\Temp\ccEgig1L.s:779    .text.spi_config:0000000000000034 .L0 
C:\Users\Duckb\AppData\Local\Temp\ccEgig1L.s:781    .text.spi_config:0000000000000036 .L0 
C:\Users\Duckb\AppData\Local\Temp\ccEgig1L.s:783    .text.spi_config:000000000000003a .L0 
C:\Users\Duckb\AppData\Local\Temp\ccEgig1L.s:785    .text.spi_config:000000000000003c .L0 
C:\Users\Duckb\AppData\Local\Temp\ccEgig1L.s:787    .text.spi_config:000000000000003e .L0 
C:\Users\Duckb\AppData\Local\Temp\ccEgig1L.s:788    .text.spi_config:000000000000003e .L0 
C:\Users\Duckb\AppData\Local\Temp\ccEgig1L.s:789    .text.spi_config:000000000000003e .L0 
C:\Users\Duckb\AppData\Local\Temp\ccEgig1L.s:791    .text.spi_config:0000000000000040 .L0 
C:\Users\Duckb\AppData\Local\Temp\ccEgig1L.s:792    .text.spi_config:0000000000000040 .L0 
C:\Users\Duckb\AppData\Local\Temp\ccEgig1L.s:793    .text.spi_config:0000000000000040 .L0 
C:\Users\Duckb\AppData\Local\Temp\ccEgig1L.s:794    .text.spi_config:0000000000000040 .L0 
C:\Users\Duckb\AppData\Local\Temp\ccEgig1L.s:795    .text.spi_config:0000000000000040 .L0 
C:\Users\Duckb\AppData\Local\Temp\ccEgig1L.s:797    .text.spi_config:0000000000000042 .L0 
C:\Users\Duckb\AppData\Local\Temp\ccEgig1L.s:800    .text.spi_config:000000000000004a .L0 
C:\Users\Duckb\AppData\Local\Temp\ccEgig1L.s:805    .text.spi_config:0000000000000058 .L0 
C:\Users\Duckb\AppData\Local\Temp\ccEgig1L.s:809    .text.spi_config:0000000000000064 .L0 
C:\Users\Duckb\AppData\Local\Temp\ccEgig1L.s:810    .text.spi_config:0000000000000066 .L0 
C:\Users\Duckb\AppData\Local\Temp\ccEgig1L.s:812    .text.spi_config:0000000000000068 .L0 
C:\Users\Duckb\AppData\Local\Temp\ccEgig1L.s:815    .text.spi_config:000000000000006a .L0 
C:\Users\Duckb\AppData\Local\Temp\ccEgig1L.s:817    .text.spi_config:000000000000006c .L0 
C:\Users\Duckb\AppData\Local\Temp\ccEgig1L.s:824    .text.Lcd_SetType:0000000000000000 Lcd_SetType
C:\Users\Duckb\AppData\Local\Temp\ccEgig1L.s:827    .text.Lcd_SetType:0000000000000000 .L0 
C:\Users\Duckb\AppData\Local\Temp\ccEgig1L.s:829    .text.Lcd_SetType:0000000000000000 .L0 
C:\Users\Duckb\AppData\Local\Temp\ccEgig1L.s:830    .text.Lcd_SetType:0000000000000000 .L0 
C:\Users\Duckb\AppData\Local\Temp\ccEgig1L.s:831    .text.Lcd_SetType:0000000000000000 .L0 
C:\Users\Duckb\AppData\Local\Temp\ccEgig1L.s:833    .text.Lcd_SetType:0000000000000002 .L0 
C:\Users\Duckb\AppData\Local\Temp\ccEgig1L.s:834    .text.Lcd_SetType:0000000000000002 .L0 
C:\Users\Duckb\AppData\Local\Temp\ccEgig1L.s:835    .text.Lcd_SetType:0000000000000002 .L0 
C:\Users\Duckb\AppData\Local\Temp\ccEgig1L.s:836    .text.Lcd_SetType:0000000000000002 .L0 
C:\Users\Duckb\AppData\Local\Temp\ccEgig1L.s:837    .text.Lcd_SetType:0000000000000002 .L0 
C:\Users\Duckb\AppData\Local\Temp\ccEgig1L.s:844    .text.Lcd_SetType:000000000000000c .L0 
C:\Users\Duckb\AppData\Local\Temp\ccEgig1L.s:849    .text.Lcd_SetType:0000000000000010 .L0 
C:\Users\Duckb\AppData\Local\Temp\ccEgig1L.s:852    .text.Lcd_SetType:0000000000000012 .L0 
C:\Users\Duckb\AppData\Local\Temp\ccEgig1L.s:853    .text.Lcd_SetType:0000000000000012 .L0 
C:\Users\Duckb\AppData\Local\Temp\ccEgig1L.s:859    .text.Lcd_SetType:0000000000000018 .L0 
C:\Users\Duckb\AppData\Local\Temp\ccEgig1L.s:860    .text.Lcd_SetType:0000000000000018 .L0 
C:\Users\Duckb\AppData\Local\Temp\ccEgig1L.s:861    .text.Lcd_SetType:0000000000000018 .L0 
C:\Users\Duckb\AppData\Local\Temp\ccEgig1L.s:862    .text.Lcd_SetType:0000000000000018 .L0 
C:\Users\Duckb\AppData\Local\Temp\ccEgig1L.s:863    .text.Lcd_SetType:0000000000000018 .L0 
C:\Users\Duckb\AppData\Local\Temp\ccEgig1L.s:869    .text.Lcd_SetType:0000000000000026 .L0 
C:\Users\Duckb\AppData\Local\Temp\ccEgig1L.s:876    .text.Lcd_Init:0000000000000000 Lcd_Init
C:\Users\Duckb\AppData\Local\Temp\ccEgig1L.s:879    .text.Lcd_Init:0000000000000000 .L0 
GAS LISTING C:\Users\Duckb\AppData\Local\Temp\ccEgig1L.s 			page 134


C:\Users\Duckb\AppData\Local\Temp\ccEgig1L.s:880    .text.Lcd_Init:0000000000000000 .L0 
C:\Users\Duckb\AppData\Local\Temp\ccEgig1L.s:881    .text.Lcd_Init:0000000000000000 .L0 
C:\Users\Duckb\AppData\Local\Temp\ccEgig1L.s:882    .text.Lcd_Init:0000000000000000 .L0 
C:\Users\Duckb\AppData\Local\Temp\ccEgig1L.s:884    .text.Lcd_Init:0000000000000004 .L0 
C:\Users\Duckb\AppData\Local\Temp\ccEgig1L.s:886    .text.Lcd_Init:0000000000000008 .L0 
C:\Users\Duckb\AppData\Local\Temp\ccEgig1L.s:888    .text.Lcd_Init:000000000000000a .L0 
C:\Users\Duckb\AppData\Local\Temp\ccEgig1L.s:891    .text.Lcd_Init:000000000000000e .L0 
C:\Users\Duckb\AppData\Local\Temp\ccEgig1L.s:892    .text.Lcd_Init:000000000000000e .L0 
C:\Users\Duckb\AppData\Local\Temp\ccEgig1L.s:895    .text.Lcd_Init:0000000000000012 .L0 
C:\Users\Duckb\AppData\Local\Temp\ccEgig1L.s:897    .text.Lcd_Init:0000000000000014 .L0 
C:\Users\Duckb\AppData\Local\Temp\ccEgig1L.s:902    .text.Lcd_Init:000000000000001e .L0 
C:\Users\Duckb\AppData\Local\Temp\ccEgig1L.s:906    .text.Lcd_Init:000000000000002a .L0 
C:\Users\Duckb\AppData\Local\Temp\ccEgig1L.s:910    .text.Lcd_Init:0000000000000036 .L0 
C:\Users\Duckb\AppData\Local\Temp\ccEgig1L.s:914    .text.Lcd_Init:0000000000000042 .L0 
C:\Users\Duckb\AppData\Local\Temp\ccEgig1L.s:918    .text.Lcd_Init:000000000000004e .L0 
C:\Users\Duckb\AppData\Local\Temp\ccEgig1L.s:926    .text.Lcd_Init:0000000000000064 .L0 
C:\Users\Duckb\AppData\Local\Temp\ccEgig1L.s:933    .text.Lcd_Init:0000000000000076 .L0 
C:\Users\Duckb\AppData\Local\Temp\ccEgig1L.s:936    .text.Lcd_Init:000000000000007e .L0 
C:\Users\Duckb\AppData\Local\Temp\ccEgig1L.s:941    .text.Lcd_Init:000000000000008c .L0 
C:\Users\Duckb\AppData\Local\Temp\ccEgig1L.s:944    .text.Lcd_Init:0000000000000094 .L0 
C:\Users\Duckb\AppData\Local\Temp\ccEgig1L.s:950    .text.Lcd_Init:00000000000000a0 .L0 
C:\Users\Duckb\AppData\Local\Temp\ccEgig1L.s:951    .text.Lcd_Init:00000000000000a0 .L0 
C:\Users\Duckb\AppData\Local\Temp\ccEgig1L.s:957    .text.Lcd_Init:00000000000000aa .L0 
C:\Users\Duckb\AppData\Local\Temp\ccEgig1L.s:960    .text.Lcd_Init:00000000000000b2 .L0 
C:\Users\Duckb\AppData\Local\Temp\ccEgig1L.s:966    .text.Lcd_Init:00000000000000be .L0 
C:\Users\Duckb\AppData\Local\Temp\ccEgig1L.s:967    .text.Lcd_Init:00000000000000be .L0 
C:\Users\Duckb\AppData\Local\Temp\ccEgig1L.s:973    .text.Lcd_Init:00000000000000c8 .L0 
C:\Users\Duckb\AppData\Local\Temp\ccEgig1L.s:976    .text.Lcd_Init:00000000000000d0 .L0 
C:\Users\Duckb\AppData\Local\Temp\ccEgig1L.s:980    .text.Lcd_Init:00000000000000dc .L0 
C:\Users\Duckb\AppData\Local\Temp\ccEgig1L.s:981    .text.Lcd_Init:00000000000000dc .L0 
C:\Users\Duckb\AppData\Local\Temp\ccEgig1L.s:985    .text.Lcd_Init:00000000000000e0 .L0 
C:\Users\Duckb\AppData\Local\Temp\ccEgig1L.s:989    .text.Lcd_Init:00000000000000e4 .L0 
C:\Users\Duckb\AppData\Local\Temp\ccEgig1L.s:994    .text.Lcd_Init:00000000000000e6 .L0 
C:\Users\Duckb\AppData\Local\Temp\ccEgig1L.s:995    .text.Lcd_Init:00000000000000e6 .L0 
C:\Users\Duckb\AppData\Local\Temp\ccEgig1L.s:1005   .text.Lcd_Init:00000000000000f2 .L0 
C:\Users\Duckb\AppData\Local\Temp\ccEgig1L.s:1006   .text.Lcd_Init:00000000000000f2 .L0 
C:\Users\Duckb\AppData\Local\Temp\ccEgig1L.s:1014   .text.Lcd_Init:00000000000000fe .L0 
C:\Users\Duckb\AppData\Local\Temp\ccEgig1L.s:1015   .text.Lcd_Init:00000000000000fe .L0 
C:\Users\Duckb\AppData\Local\Temp\ccEgig1L.s:1023   .text.Lcd_Init:000000000000010a .L0 
C:\Users\Duckb\AppData\Local\Temp\ccEgig1L.s:1024   .text.Lcd_Init:000000000000010a .L0 
C:\Users\Duckb\AppData\Local\Temp\ccEgig1L.s:1032   .text.Lcd_Init:0000000000000116 .L0 
C:\Users\Duckb\AppData\Local\Temp\ccEgig1L.s:1033   .text.Lcd_Init:0000000000000116 .L0 
C:\Users\Duckb\AppData\Local\Temp\ccEgig1L.s:1041   .text.Lcd_Init:0000000000000122 .L0 
C:\Users\Duckb\AppData\Local\Temp\ccEgig1L.s:1042   .text.Lcd_Init:0000000000000122 .L0 
C:\Users\Duckb\AppData\Local\Temp\ccEgig1L.s:1050   .text.Lcd_Init:000000000000012e .L0 
C:\Users\Duckb\AppData\Local\Temp\ccEgig1L.s:1051   .text.Lcd_Init:000000000000012e .L0 
C:\Users\Duckb\AppData\Local\Temp\ccEgig1L.s:1059   .text.Lcd_Init:000000000000013a .L0 
C:\Users\Duckb\AppData\Local\Temp\ccEgig1L.s:1060   .text.Lcd_Init:000000000000013a .L0 
C:\Users\Duckb\AppData\Local\Temp\ccEgig1L.s:1068   .text.Lcd_Init:0000000000000146 .L0 
C:\Users\Duckb\AppData\Local\Temp\ccEgig1L.s:1069   .text.Lcd_Init:0000000000000146 .L0 
C:\Users\Duckb\AppData\Local\Temp\ccEgig1L.s:1077   .text.Lcd_Init:0000000000000152 .L0 
C:\Users\Duckb\AppData\Local\Temp\ccEgig1L.s:1078   .text.Lcd_Init:0000000000000152 .L0 
C:\Users\Duckb\AppData\Local\Temp\ccEgig1L.s:1086   .text.Lcd_Init:000000000000015e .L0 
C:\Users\Duckb\AppData\Local\Temp\ccEgig1L.s:1087   .text.Lcd_Init:000000000000015e .L0 
C:\Users\Duckb\AppData\Local\Temp\ccEgig1L.s:1095   .text.Lcd_Init:000000000000016a .L0 
C:\Users\Duckb\AppData\Local\Temp\ccEgig1L.s:1096   .text.Lcd_Init:000000000000016a .L0 
C:\Users\Duckb\AppData\Local\Temp\ccEgig1L.s:1104   .text.Lcd_Init:0000000000000176 .L0 
GAS LISTING C:\Users\Duckb\AppData\Local\Temp\ccEgig1L.s 			page 135


C:\Users\Duckb\AppData\Local\Temp\ccEgig1L.s:1105   .text.Lcd_Init:0000000000000176 .L0 
C:\Users\Duckb\AppData\Local\Temp\ccEgig1L.s:1113   .text.Lcd_Init:0000000000000182 .L0 
C:\Users\Duckb\AppData\Local\Temp\ccEgig1L.s:1114   .text.Lcd_Init:0000000000000182 .L0 
C:\Users\Duckb\AppData\Local\Temp\ccEgig1L.s:1122   .text.Lcd_Init:000000000000018e .L0 
C:\Users\Duckb\AppData\Local\Temp\ccEgig1L.s:1123   .text.Lcd_Init:000000000000018e .L0 
C:\Users\Duckb\AppData\Local\Temp\ccEgig1L.s:1131   .text.Lcd_Init:000000000000019a .L0 
C:\Users\Duckb\AppData\Local\Temp\ccEgig1L.s:1132   .text.Lcd_Init:000000000000019a .L0 
C:\Users\Duckb\AppData\Local\Temp\ccEgig1L.s:1140   .text.Lcd_Init:00000000000001a6 .L0 
C:\Users\Duckb\AppData\Local\Temp\ccEgig1L.s:1141   .text.Lcd_Init:00000000000001a6 .L0 
C:\Users\Duckb\AppData\Local\Temp\ccEgig1L.s:1149   .text.Lcd_Init:00000000000001b2 .L0 
C:\Users\Duckb\AppData\Local\Temp\ccEgig1L.s:1150   .text.Lcd_Init:00000000000001b2 .L0 
C:\Users\Duckb\AppData\Local\Temp\ccEgig1L.s:1158   .text.Lcd_Init:00000000000001be .L0 
C:\Users\Duckb\AppData\Local\Temp\ccEgig1L.s:1159   .text.Lcd_Init:00000000000001be .L0 
C:\Users\Duckb\AppData\Local\Temp\ccEgig1L.s:1167   .text.Lcd_Init:00000000000001ca .L0 
C:\Users\Duckb\AppData\Local\Temp\ccEgig1L.s:1168   .text.Lcd_Init:00000000000001ca .L0 
C:\Users\Duckb\AppData\Local\Temp\ccEgig1L.s:1176   .text.Lcd_Init:00000000000001d6 .L0 
C:\Users\Duckb\AppData\Local\Temp\ccEgig1L.s:1177   .text.Lcd_Init:00000000000001d6 .L0 
C:\Users\Duckb\AppData\Local\Temp\ccEgig1L.s:1185   .text.Lcd_Init:00000000000001e2 .L0 
C:\Users\Duckb\AppData\Local\Temp\ccEgig1L.s:1186   .text.Lcd_Init:00000000000001e2 .L0 
C:\Users\Duckb\AppData\Local\Temp\ccEgig1L.s:1194   .text.Lcd_Init:00000000000001ee .L0 
C:\Users\Duckb\AppData\Local\Temp\ccEgig1L.s:1195   .text.Lcd_Init:00000000000001ee .L0 
C:\Users\Duckb\AppData\Local\Temp\ccEgig1L.s:1203   .text.Lcd_Init:00000000000001fa .L0 
C:\Users\Duckb\AppData\Local\Temp\ccEgig1L.s:1204   .text.Lcd_Init:00000000000001fa .L0 
C:\Users\Duckb\AppData\Local\Temp\ccEgig1L.s:1212   .text.Lcd_Init:0000000000000206 .L0 
C:\Users\Duckb\AppData\Local\Temp\ccEgig1L.s:1213   .text.Lcd_Init:0000000000000206 .L0 
C:\Users\Duckb\AppData\Local\Temp\ccEgig1L.s:1221   .text.Lcd_Init:0000000000000212 .L0 
C:\Users\Duckb\AppData\Local\Temp\ccEgig1L.s:1222   .text.Lcd_Init:0000000000000212 .L0 
C:\Users\Duckb\AppData\Local\Temp\ccEgig1L.s:1230   .text.Lcd_Init:000000000000021e .L0 
C:\Users\Duckb\AppData\Local\Temp\ccEgig1L.s:1231   .text.Lcd_Init:000000000000021e .L0 
C:\Users\Duckb\AppData\Local\Temp\ccEgig1L.s:1239   .text.Lcd_Init:000000000000022a .L0 
C:\Users\Duckb\AppData\Local\Temp\ccEgig1L.s:1240   .text.Lcd_Init:000000000000022a .L0 
C:\Users\Duckb\AppData\Local\Temp\ccEgig1L.s:1248   .text.Lcd_Init:0000000000000236 .L0 
C:\Users\Duckb\AppData\Local\Temp\ccEgig1L.s:1249   .text.Lcd_Init:0000000000000236 .L0 
C:\Users\Duckb\AppData\Local\Temp\ccEgig1L.s:1257   .text.Lcd_Init:0000000000000242 .L0 
C:\Users\Duckb\AppData\Local\Temp\ccEgig1L.s:1258   .text.Lcd_Init:0000000000000242 .L0 
C:\Users\Duckb\AppData\Local\Temp\ccEgig1L.s:1266   .text.Lcd_Init:000000000000024e .L0 
C:\Users\Duckb\AppData\Local\Temp\ccEgig1L.s:1267   .text.Lcd_Init:000000000000024e .L0 
C:\Users\Duckb\AppData\Local\Temp\ccEgig1L.s:1275   .text.Lcd_Init:000000000000025a .L0 
C:\Users\Duckb\AppData\Local\Temp\ccEgig1L.s:1276   .text.Lcd_Init:000000000000025a .L0 
C:\Users\Duckb\AppData\Local\Temp\ccEgig1L.s:1284   .text.Lcd_Init:0000000000000266 .L0 
C:\Users\Duckb\AppData\Local\Temp\ccEgig1L.s:1285   .text.Lcd_Init:0000000000000266 .L0 
C:\Users\Duckb\AppData\Local\Temp\ccEgig1L.s:1293   .text.Lcd_Init:0000000000000272 .L0 
C:\Users\Duckb\AppData\Local\Temp\ccEgig1L.s:1294   .text.Lcd_Init:0000000000000272 .L0 
C:\Users\Duckb\AppData\Local\Temp\ccEgig1L.s:1302   .text.Lcd_Init:000000000000027e .L0 
C:\Users\Duckb\AppData\Local\Temp\ccEgig1L.s:1303   .text.Lcd_Init:000000000000027e .L0 
C:\Users\Duckb\AppData\Local\Temp\ccEgig1L.s:1311   .text.Lcd_Init:000000000000028a .L0 
C:\Users\Duckb\AppData\Local\Temp\ccEgig1L.s:1312   .text.Lcd_Init:000000000000028a .L0 
C:\Users\Duckb\AppData\Local\Temp\ccEgig1L.s:1320   .text.Lcd_Init:0000000000000296 .L0 
C:\Users\Duckb\AppData\Local\Temp\ccEgig1L.s:1321   .text.Lcd_Init:0000000000000296 .L0 
C:\Users\Duckb\AppData\Local\Temp\ccEgig1L.s:1329   .text.Lcd_Init:00000000000002a2 .L0 
C:\Users\Duckb\AppData\Local\Temp\ccEgig1L.s:1330   .text.Lcd_Init:00000000000002a2 .L0 
C:\Users\Duckb\AppData\Local\Temp\ccEgig1L.s:1338   .text.Lcd_Init:00000000000002ae .L0 
C:\Users\Duckb\AppData\Local\Temp\ccEgig1L.s:1339   .text.Lcd_Init:00000000000002ae .L0 
C:\Users\Duckb\AppData\Local\Temp\ccEgig1L.s:1347   .text.Lcd_Init:00000000000002ba .L0 
C:\Users\Duckb\AppData\Local\Temp\ccEgig1L.s:1348   .text.Lcd_Init:00000000000002ba .L0 
C:\Users\Duckb\AppData\Local\Temp\ccEgig1L.s:1356   .text.Lcd_Init:00000000000002c6 .L0 
C:\Users\Duckb\AppData\Local\Temp\ccEgig1L.s:1357   .text.Lcd_Init:00000000000002c6 .L0 
GAS LISTING C:\Users\Duckb\AppData\Local\Temp\ccEgig1L.s 			page 136


C:\Users\Duckb\AppData\Local\Temp\ccEgig1L.s:1365   .text.Lcd_Init:00000000000002d2 .L0 
C:\Users\Duckb\AppData\Local\Temp\ccEgig1L.s:1366   .text.Lcd_Init:00000000000002d2 .L0 
C:\Users\Duckb\AppData\Local\Temp\ccEgig1L.s:1374   .text.Lcd_Init:00000000000002de .L0 
C:\Users\Duckb\AppData\Local\Temp\ccEgig1L.s:1375   .text.Lcd_Init:00000000000002de .L0 
C:\Users\Duckb\AppData\Local\Temp\ccEgig1L.s:1383   .text.Lcd_Init:00000000000002ea .L0 
C:\Users\Duckb\AppData\Local\Temp\ccEgig1L.s:1384   .text.Lcd_Init:00000000000002ea .L0 
C:\Users\Duckb\AppData\Local\Temp\ccEgig1L.s:1392   .text.Lcd_Init:00000000000002f6 .L0 
C:\Users\Duckb\AppData\Local\Temp\ccEgig1L.s:1393   .text.Lcd_Init:00000000000002f6 .L0 
C:\Users\Duckb\AppData\Local\Temp\ccEgig1L.s:1401   .text.Lcd_Init:0000000000000302 .L0 
C:\Users\Duckb\AppData\Local\Temp\ccEgig1L.s:1402   .text.Lcd_Init:0000000000000302 .L0 
C:\Users\Duckb\AppData\Local\Temp\ccEgig1L.s:1410   .text.Lcd_Init:000000000000030e .L0 
C:\Users\Duckb\AppData\Local\Temp\ccEgig1L.s:1411   .text.Lcd_Init:000000000000030e .L0 
C:\Users\Duckb\AppData\Local\Temp\ccEgig1L.s:1419   .text.Lcd_Init:000000000000031a .L0 
C:\Users\Duckb\AppData\Local\Temp\ccEgig1L.s:1420   .text.Lcd_Init:000000000000031a .L0 
C:\Users\Duckb\AppData\Local\Temp\ccEgig1L.s:1428   .text.Lcd_Init:0000000000000326 .L0 
C:\Users\Duckb\AppData\Local\Temp\ccEgig1L.s:1429   .text.Lcd_Init:0000000000000326 .L0 
C:\Users\Duckb\AppData\Local\Temp\ccEgig1L.s:1437   .text.Lcd_Init:0000000000000332 .L0 
C:\Users\Duckb\AppData\Local\Temp\ccEgig1L.s:1438   .text.Lcd_Init:0000000000000332 .L0 
C:\Users\Duckb\AppData\Local\Temp\ccEgig1L.s:1446   .text.Lcd_Init:000000000000033e .L0 
C:\Users\Duckb\AppData\Local\Temp\ccEgig1L.s:1447   .text.Lcd_Init:000000000000033e .L0 
C:\Users\Duckb\AppData\Local\Temp\ccEgig1L.s:1455   .text.Lcd_Init:000000000000034a .L0 
C:\Users\Duckb\AppData\Local\Temp\ccEgig1L.s:1456   .text.Lcd_Init:000000000000034a .L0 
C:\Users\Duckb\AppData\Local\Temp\ccEgig1L.s:1464   .text.Lcd_Init:0000000000000356 .L0 
C:\Users\Duckb\AppData\Local\Temp\ccEgig1L.s:1465   .text.Lcd_Init:0000000000000356 .L0 
C:\Users\Duckb\AppData\Local\Temp\ccEgig1L.s:1473   .text.Lcd_Init:0000000000000362 .L0 
C:\Users\Duckb\AppData\Local\Temp\ccEgig1L.s:1474   .text.Lcd_Init:0000000000000362 .L0 
C:\Users\Duckb\AppData\Local\Temp\ccEgig1L.s:1482   .text.Lcd_Init:000000000000036e .L0 
C:\Users\Duckb\AppData\Local\Temp\ccEgig1L.s:1483   .text.Lcd_Init:000000000000036e .L0 
C:\Users\Duckb\AppData\Local\Temp\ccEgig1L.s:1491   .text.Lcd_Init:000000000000037a .L0 
C:\Users\Duckb\AppData\Local\Temp\ccEgig1L.s:1492   .text.Lcd_Init:000000000000037a .L0 
C:\Users\Duckb\AppData\Local\Temp\ccEgig1L.s:1500   .text.Lcd_Init:0000000000000386 .L0 
C:\Users\Duckb\AppData\Local\Temp\ccEgig1L.s:1501   .text.Lcd_Init:0000000000000386 .L0 
C:\Users\Duckb\AppData\Local\Temp\ccEgig1L.s:1509   .text.Lcd_Init:0000000000000392 .L0 
C:\Users\Duckb\AppData\Local\Temp\ccEgig1L.s:1510   .text.Lcd_Init:0000000000000392 .L0 
C:\Users\Duckb\AppData\Local\Temp\ccEgig1L.s:1518   .text.Lcd_Init:000000000000039e .L0 
C:\Users\Duckb\AppData\Local\Temp\ccEgig1L.s:1519   .text.Lcd_Init:000000000000039e .L0 
C:\Users\Duckb\AppData\Local\Temp\ccEgig1L.s:1527   .text.Lcd_Init:00000000000003aa .L0 
C:\Users\Duckb\AppData\Local\Temp\ccEgig1L.s:1528   .text.Lcd_Init:00000000000003aa .L0 
C:\Users\Duckb\AppData\Local\Temp\ccEgig1L.s:1536   .text.Lcd_Init:00000000000003b6 .L0 
C:\Users\Duckb\AppData\Local\Temp\ccEgig1L.s:1537   .text.Lcd_Init:00000000000003b6 .L0 
C:\Users\Duckb\AppData\Local\Temp\ccEgig1L.s:1545   .text.Lcd_Init:00000000000003c2 .L0 
C:\Users\Duckb\AppData\Local\Temp\ccEgig1L.s:1546   .text.Lcd_Init:00000000000003c2 .L0 
C:\Users\Duckb\AppData\Local\Temp\ccEgig1L.s:1554   .text.Lcd_Init:00000000000003ce .L0 
C:\Users\Duckb\AppData\Local\Temp\ccEgig1L.s:1555   .text.Lcd_Init:00000000000003ce .L0 
C:\Users\Duckb\AppData\Local\Temp\ccEgig1L.s:1563   .text.Lcd_Init:00000000000003da .L0 
C:\Users\Duckb\AppData\Local\Temp\ccEgig1L.s:1564   .text.Lcd_Init:00000000000003da .L0 
C:\Users\Duckb\AppData\Local\Temp\ccEgig1L.s:1572   .text.Lcd_Init:00000000000003e6 .L0 
C:\Users\Duckb\AppData\Local\Temp\ccEgig1L.s:1573   .text.Lcd_Init:00000000000003e6 .L0 
C:\Users\Duckb\AppData\Local\Temp\ccEgig1L.s:1581   .text.Lcd_Init:00000000000003f2 .L0 
C:\Users\Duckb\AppData\Local\Temp\ccEgig1L.s:1582   .text.Lcd_Init:00000000000003f2 .L0 
C:\Users\Duckb\AppData\Local\Temp\ccEgig1L.s:1590   .text.Lcd_Init:00000000000003fe .L0 
C:\Users\Duckb\AppData\Local\Temp\ccEgig1L.s:1591   .text.Lcd_Init:00000000000003fe .L0 
C:\Users\Duckb\AppData\Local\Temp\ccEgig1L.s:1599   .text.Lcd_Init:000000000000040a .L0 
C:\Users\Duckb\AppData\Local\Temp\ccEgig1L.s:1600   .text.Lcd_Init:000000000000040a .L0 
C:\Users\Duckb\AppData\Local\Temp\ccEgig1L.s:1608   .text.Lcd_Init:0000000000000416 .L0 
C:\Users\Duckb\AppData\Local\Temp\ccEgig1L.s:1609   .text.Lcd_Init:0000000000000416 .L0 
C:\Users\Duckb\AppData\Local\Temp\ccEgig1L.s:1617   .text.Lcd_Init:0000000000000422 .L0 
GAS LISTING C:\Users\Duckb\AppData\Local\Temp\ccEgig1L.s 			page 137


C:\Users\Duckb\AppData\Local\Temp\ccEgig1L.s:1618   .text.Lcd_Init:0000000000000422 .L0 
C:\Users\Duckb\AppData\Local\Temp\ccEgig1L.s:1626   .text.Lcd_Init:000000000000042e .L0 
C:\Users\Duckb\AppData\Local\Temp\ccEgig1L.s:1627   .text.Lcd_Init:000000000000042e .L0 
C:\Users\Duckb\AppData\Local\Temp\ccEgig1L.s:1635   .text.Lcd_Init:000000000000043a .L0 
C:\Users\Duckb\AppData\Local\Temp\ccEgig1L.s:1636   .text.Lcd_Init:000000000000043a .L0 
C:\Users\Duckb\AppData\Local\Temp\ccEgig1L.s:1644   .text.Lcd_Init:0000000000000446 .L0 
C:\Users\Duckb\AppData\Local\Temp\ccEgig1L.s:1645   .text.Lcd_Init:0000000000000446 .L0 
C:\Users\Duckb\AppData\Local\Temp\ccEgig1L.s:1653   .text.Lcd_Init:0000000000000452 .L0 
C:\Users\Duckb\AppData\Local\Temp\ccEgig1L.s:1656   .text.Lcd_Init:0000000000000452 .L0 
C:\Users\Duckb\AppData\Local\Temp\ccEgig1L.s:1657   .text.Lcd_Init:0000000000000452 .L0 
C:\Users\Duckb\AppData\Local\Temp\ccEgig1L.s:1658   .text.Lcd_Init:0000000000000454 .L0 
C:\Users\Duckb\AppData\Local\Temp\ccEgig1L.s:1660   .text.Lcd_Init:0000000000000456 .L0 
C:\Users\Duckb\AppData\Local\Temp\ccEgig1L.s:1664   .text.Lcd_Init:0000000000000456 .L0 
C:\Users\Duckb\AppData\Local\Temp\ccEgig1L.s:1668   .text.Lcd_Init:000000000000045a .L0 
C:\Users\Duckb\AppData\Local\Temp\ccEgig1L.s:1670   .text.Lcd_Init:000000000000045c .L0 
C:\Users\Duckb\AppData\Local\Temp\ccEgig1L.s:1674   .text.Lcd_Init:000000000000045c .L0 
C:\Users\Duckb\AppData\Local\Temp\ccEgig1L.s:1678   .text.Lcd_Init:0000000000000464 .L0 
C:\Users\Duckb\AppData\Local\Temp\ccEgig1L.s:1685   .text.LCD_Clear:0000000000000000 LCD_Clear
C:\Users\Duckb\AppData\Local\Temp\ccEgig1L.s:1688   .text.LCD_Clear:0000000000000000 .L0 
C:\Users\Duckb\AppData\Local\Temp\ccEgig1L.s:1690   .text.LCD_Clear:0000000000000000 .L0 
C:\Users\Duckb\AppData\Local\Temp\ccEgig1L.s:1691   .text.LCD_Clear:0000000000000000 .L0 
C:\Users\Duckb\AppData\Local\Temp\ccEgig1L.s:1692   .text.LCD_Clear:0000000000000000 .L0 
C:\Users\Duckb\AppData\Local\Temp\ccEgig1L.s:1693   .text.LCD_Clear:0000000000000000 .L0 
C:\Users\Duckb\AppData\Local\Temp\ccEgig1L.s:1695   .text.LCD_Clear:0000000000000002 .L0 
C:\Users\Duckb\AppData\Local\Temp\ccEgig1L.s:1698   .text.LCD_Clear:0000000000000004 .L0 
C:\Users\Duckb\AppData\Local\Temp\ccEgig1L.s:1699   .text.LCD_Clear:0000000000000008 .L0 
C:\Users\Duckb\AppData\Local\Temp\ccEgig1L.s:1701   .text.LCD_Clear:0000000000000008 .L0 
C:\Users\Duckb\AppData\Local\Temp\ccEgig1L.s:1703   .text.LCD_Clear:000000000000000a .L0 
C:\Users\Duckb\AppData\Local\Temp\ccEgig1L.s:1708   .text.LCD_Clear:0000000000000012 .L0 
C:\Users\Duckb\AppData\Local\Temp\ccEgig1L.s:1711   .text.LCD_Clear:0000000000000018 .L0 
C:\Users\Duckb\AppData\Local\Temp\ccEgig1L.s:1712   .text.LCD_Clear:0000000000000018 .L0 
C:\Users\Duckb\AppData\Local\Temp\ccEgig1L.s:1713   .text.LCD_Clear:0000000000000018 .L0 
C:\Users\Duckb\AppData\Local\Temp\ccEgig1L.s:1715   .text.LCD_Clear:0000000000000018 .L0 
C:\Users\Duckb\AppData\Local\Temp\ccEgig1L.s:1720   .text.LCD_Clear:0000000000000024 .L0 
C:\Users\Duckb\AppData\Local\Temp\ccEgig1L.s:1721   .text.LCD_Clear:0000000000000024 .L0 
C:\Users\Duckb\AppData\Local\Temp\ccEgig1L.s:1725   .text.LCD_Clear:0000000000000028 .L0 
C:\Users\Duckb\AppData\Local\Temp\ccEgig1L.s:1731   .text.LCD_Clear:0000000000000034 .L0 
C:\Users\Duckb\AppData\Local\Temp\ccEgig1L.s:1736   .text.LCD_Clear:0000000000000038 .L0 
C:\Users\Duckb\AppData\Local\Temp\ccEgig1L.s:1738   .text.LCD_Clear:000000000000003a .L0 
C:\Users\Duckb\AppData\Local\Temp\ccEgig1L.s:1739   .text.LCD_Clear:000000000000003c .L0 
C:\Users\Duckb\AppData\Local\Temp\ccEgig1L.s:1741   .text.LCD_Clear:000000000000003e .L0 
C:\Users\Duckb\AppData\Local\Temp\ccEgig1L.s:1743   .text.LCD_Clear:0000000000000040 .L0 
C:\Users\Duckb\AppData\Local\Temp\ccEgig1L.s:1746   .text.LCD_Clear:0000000000000042 .L0 
C:\Users\Duckb\AppData\Local\Temp\ccEgig1L.s:1750   .text.LCD_Clear:0000000000000044 .L0 
C:\Users\Duckb\AppData\Local\Temp\ccEgig1L.s:1752   .text.LCD_Clear:0000000000000046 .L0 
C:\Users\Duckb\AppData\Local\Temp\ccEgig1L.s:1759   .text.LCD_ShowChinese:0000000000000000 LCD_ShowChinese
C:\Users\Duckb\AppData\Local\Temp\ccEgig1L.s:1762   .text.LCD_ShowChinese:0000000000000000 .L0 
C:\Users\Duckb\AppData\Local\Temp\ccEgig1L.s:1764   .text.LCD_ShowChinese:0000000000000000 .L0 
C:\Users\Duckb\AppData\Local\Temp\ccEgig1L.s:1765   .text.LCD_ShowChinese:0000000000000000 .L0 
C:\Users\Duckb\AppData\Local\Temp\ccEgig1L.s:1766   .text.LCD_ShowChinese:0000000000000000 .L0 
C:\Users\Duckb\AppData\Local\Temp\ccEgig1L.s:1767   .text.LCD_ShowChinese:0000000000000000 .L0 
C:\Users\Duckb\AppData\Local\Temp\ccEgig1L.s:1768   .text.LCD_ShowChinese:0000000000000000 .L0 
C:\Users\Duckb\AppData\Local\Temp\ccEgig1L.s:1769   .text.LCD_ShowChinese:0000000000000000 .L0 
C:\Users\Duckb\AppData\Local\Temp\ccEgig1L.s:1771   .text.LCD_ShowChinese:0000000000000002 .L0 
C:\Users\Duckb\AppData\Local\Temp\ccEgig1L.s:1779   .text.LCD_ShowChinese:0000000000000010 .L0 
C:\Users\Duckb\AppData\Local\Temp\ccEgig1L.s:1780   .text.LCD_ShowChinese:0000000000000010 .L0 
C:\Users\Duckb\AppData\Local\Temp\ccEgig1L.s:1781   .text.LCD_ShowChinese:0000000000000010 .L0 
GAS LISTING C:\Users\Duckb\AppData\Local\Temp\ccEgig1L.s 			page 138


C:\Users\Duckb\AppData\Local\Temp\ccEgig1L.s:1782   .text.LCD_ShowChinese:0000000000000010 .L0 
C:\Users\Duckb\AppData\Local\Temp\ccEgig1L.s:1783   .text.LCD_ShowChinese:0000000000000010 .L0 
C:\Users\Duckb\AppData\Local\Temp\ccEgig1L.s:1784   .text.LCD_ShowChinese:0000000000000010 .L0 
C:\Users\Duckb\AppData\Local\Temp\ccEgig1L.s:1785   .text.LCD_ShowChinese:0000000000000010 .L0 
C:\Users\Duckb\AppData\Local\Temp\ccEgig1L.s:1787   .text.LCD_ShowChinese:0000000000000010 .L0 
C:\Users\Duckb\AppData\Local\Temp\ccEgig1L.s:1789   .text.LCD_ShowChinese:0000000000000014 .L0 
C:\Users\Duckb\AppData\Local\Temp\ccEgig1L.s:1793   .text.LCD_ShowChinese:000000000000001a .L0 
C:\Users\Duckb\AppData\Local\Temp\ccEgig1L.s:1795   .text.LCD_ShowChinese:000000000000001e .L0 
C:\Users\Duckb\AppData\Local\Temp\ccEgig1L.s:1800   .text.LCD_ShowChinese:0000000000000026 .L0 
C:\Users\Duckb\AppData\Local\Temp\ccEgig1L.s:1807   .text.LCD_ShowChinese:0000000000000032 .L0 
C:\Users\Duckb\AppData\Local\Temp\ccEgig1L.s:1809   .text.LCD_ShowChinese:0000000000000036 .L0 
C:\Users\Duckb\AppData\Local\Temp\ccEgig1L.s:1812   .text.LCD_ShowChinese:000000000000003e .L0 
                            *COM*:0000000000000004 BACK_COLOR
C:\Users\Duckb\AppData\Local\Temp\ccEgig1L.s:1813   .text.LCD_ShowChinese:000000000000003e .L0 
C:\Users\Duckb\AppData\Local\Temp\ccEgig1L.s:1815   .text.LCD_ShowChinese:0000000000000042 .L0 
C:\Users\Duckb\AppData\Local\Temp\ccEgig1L.s:1817   .text.LCD_ShowChinese:0000000000000044 .L0 
C:\Users\Duckb\AppData\Local\Temp\ccEgig1L.s:1820   .text.LCD_ShowChinese:0000000000000046 .L0 
C:\Users\Duckb\AppData\Local\Temp\ccEgig1L.s:1821   .text.LCD_ShowChinese:0000000000000046 .L0 
C:\Users\Duckb\AppData\Local\Temp\ccEgig1L.s:1825   .text.LCD_ShowChinese:000000000000004e .L0 
C:\Users\Duckb\AppData\Local\Temp\ccEgig1L.s:1828   .text.LCD_ShowChinese:0000000000000050 .L0 
C:\Users\Duckb\AppData\Local\Temp\ccEgig1L.s:1831   .text.LCD_ShowChinese:0000000000000052 .L0 
C:\Users\Duckb\AppData\Local\Temp\ccEgig1L.s:1833   .text.LCD_ShowChinese:0000000000000056 .L0 
C:\Users\Duckb\AppData\Local\Temp\ccEgig1L.s:1834   .text.LCD_ShowChinese:0000000000000058 .L0 
C:\Users\Duckb\AppData\Local\Temp\ccEgig1L.s:1835   .text.LCD_ShowChinese:0000000000000058 .L0 
C:\Users\Duckb\AppData\Local\Temp\ccEgig1L.s:1837   .text.LCD_ShowChinese:000000000000005a .L0 
C:\Users\Duckb\AppData\Local\Temp\ccEgig1L.s:1839   .text.LCD_ShowChinese:000000000000005c .L0 
C:\Users\Duckb\AppData\Local\Temp\ccEgig1L.s:1842   .text.LCD_ShowChinese:000000000000005e .L0 
C:\Users\Duckb\AppData\Local\Temp\ccEgig1L.s:1845   .text.LCD_ShowChinese:0000000000000060 .L0 
C:\Users\Duckb\AppData\Local\Temp\ccEgig1L.s:1847   .text.LCD_ShowChinese:0000000000000062 .L0 
C:\Users\Duckb\AppData\Local\Temp\ccEgig1L.s:1849   .text.LCD_ShowChinese:0000000000000064 .L0 
C:\Users\Duckb\AppData\Local\Temp\ccEgig1L.s:1852   .text.LCD_ShowChinese:0000000000000066 .L0 
C:\Users\Duckb\AppData\Local\Temp\ccEgig1L.s:1857   .text.LCD_ShowChinese:0000000000000068 .L0 
C:\Users\Duckb\AppData\Local\Temp\ccEgig1L.s:1867   .text.LCD_ShowChinese:0000000000000074 .L0 
C:\Users\Duckb\AppData\Local\Temp\ccEgig1L.s:1868   .text.LCD_ShowChinese:0000000000000074 .L0 
C:\Users\Duckb\AppData\Local\Temp\ccEgig1L.s:1870   .text.LCD_ShowChinese:0000000000000078 .L0 
C:\Users\Duckb\AppData\Local\Temp\ccEgig1L.s:1872   .text.LCD_ShowChinese:000000000000007a .L0 
C:\Users\Duckb\AppData\Local\Temp\ccEgig1L.s:1875   .text.LCD_ShowChinese:0000000000000080 .L0 
C:\Users\Duckb\AppData\Local\Temp\ccEgig1L.s:1878   .text.LCD_ShowChinese:0000000000000082 .L0 
C:\Users\Duckb\AppData\Local\Temp\ccEgig1L.s:1886   .text.LCD_ShowChinese:0000000000000090 .L0 
C:\Users\Duckb\AppData\Local\Temp\ccEgig1L.s:1888   .text.LCD_ShowChinese:0000000000000094 .L0 
C:\Users\Duckb\AppData\Local\Temp\ccEgig1L.s:1889   .text.LCD_ShowChinese:0000000000000094 .L0 
C:\Users\Duckb\AppData\Local\Temp\ccEgig1L.s:1892   .text.LCD_ShowChinese:0000000000000098 .L0 
C:\Users\Duckb\AppData\Local\Temp\ccEgig1L.s:1899   .text.LCD_DrawPoint:0000000000000000 LCD_DrawPoint
C:\Users\Duckb\AppData\Local\Temp\ccEgig1L.s:1902   .text.LCD_DrawPoint:0000000000000000 .L0 
C:\Users\Duckb\AppData\Local\Temp\ccEgig1L.s:1904   .text.LCD_DrawPoint:0000000000000000 .L0 
C:\Users\Duckb\AppData\Local\Temp\ccEgig1L.s:1905   .text.LCD_DrawPoint:0000000000000000 .L0 
C:\Users\Duckb\AppData\Local\Temp\ccEgig1L.s:1906   .text.LCD_DrawPoint:0000000000000000 .L0 
C:\Users\Duckb\AppData\Local\Temp\ccEgig1L.s:1908   .text.LCD_DrawPoint:0000000000000002 .L0 
C:\Users\Duckb\AppData\Local\Temp\ccEgig1L.s:1911   .text.LCD_DrawPoint:0000000000000004 .L0 
C:\Users\Duckb\AppData\Local\Temp\ccEgig1L.s:1912   .text.LCD_DrawPoint:0000000000000006 .L0 
C:\Users\Duckb\AppData\Local\Temp\ccEgig1L.s:1914   .text.LCD_DrawPoint:0000000000000006 .L0 
C:\Users\Duckb\AppData\Local\Temp\ccEgig1L.s:1916   .text.LCD_DrawPoint:0000000000000008 .L0 
C:\Users\Duckb\AppData\Local\Temp\ccEgig1L.s:1919   .text.LCD_DrawPoint:000000000000000a .L0 
C:\Users\Duckb\AppData\Local\Temp\ccEgig1L.s:1920   .text.LCD_DrawPoint:000000000000000c .L0 
C:\Users\Duckb\AppData\Local\Temp\ccEgig1L.s:1922   .text.LCD_DrawPoint:000000000000000c .L0 
C:\Users\Duckb\AppData\Local\Temp\ccEgig1L.s:1925   .text.LCD_DrawPoint:0000000000000014 .L0 
C:\Users\Duckb\AppData\Local\Temp\ccEgig1L.s:1927   .text.LCD_DrawPoint:0000000000000016 .L0 
GAS LISTING C:\Users\Duckb\AppData\Local\Temp\ccEgig1L.s 			page 139


C:\Users\Duckb\AppData\Local\Temp\ccEgig1L.s:1928   .text.LCD_DrawPoint:0000000000000018 .L0 
C:\Users\Duckb\AppData\Local\Temp\ccEgig1L.s:1931   .text.LCD_DrawPoint:000000000000001a .L0 
C:\Users\Duckb\AppData\Local\Temp\ccEgig1L.s:1934   .text.LCD_DrawPoint:000000000000001c .L0 
C:\Users\Duckb\AppData\Local\Temp\ccEgig1L.s:1936   .text.LCD_DrawPoint:000000000000001c .L0 
C:\Users\Duckb\AppData\Local\Temp\ccEgig1L.s:1938   .text.LCD_DrawPoint:0000000000000024 .L0 
C:\Users\Duckb\AppData\Local\Temp\ccEgig1L.s:1945   .text.LCD_Fill:0000000000000000 LCD_Fill
C:\Users\Duckb\AppData\Local\Temp\ccEgig1L.s:1948   .text.LCD_Fill:0000000000000000 .L0 
C:\Users\Duckb\AppData\Local\Temp\ccEgig1L.s:1950   .text.LCD_Fill:0000000000000000 .L0 
C:\Users\Duckb\AppData\Local\Temp\ccEgig1L.s:1951   .text.LCD_Fill:0000000000000000 .L0 
C:\Users\Duckb\AppData\Local\Temp\ccEgig1L.s:1952   .text.LCD_Fill:0000000000000000 .L0 
C:\Users\Duckb\AppData\Local\Temp\ccEgig1L.s:1953   .text.LCD_Fill:0000000000000000 .L0 
C:\Users\Duckb\AppData\Local\Temp\ccEgig1L.s:1955   .text.LCD_Fill:0000000000000002 .L0 
C:\Users\Duckb\AppData\Local\Temp\ccEgig1L.s:1963   .text.LCD_Fill:0000000000000010 .L0 
C:\Users\Duckb\AppData\Local\Temp\ccEgig1L.s:1964   .text.LCD_Fill:0000000000000010 .L0 
C:\Users\Duckb\AppData\Local\Temp\ccEgig1L.s:1965   .text.LCD_Fill:0000000000000010 .L0 
C:\Users\Duckb\AppData\Local\Temp\ccEgig1L.s:1966   .text.LCD_Fill:0000000000000010 .L0 
C:\Users\Duckb\AppData\Local\Temp\ccEgig1L.s:1967   .text.LCD_Fill:0000000000000010 .L0 
C:\Users\Duckb\AppData\Local\Temp\ccEgig1L.s:1968   .text.LCD_Fill:0000000000000010 .L0 
C:\Users\Duckb\AppData\Local\Temp\ccEgig1L.s:1969   .text.LCD_Fill:0000000000000010 .L0 
C:\Users\Duckb\AppData\Local\Temp\ccEgig1L.s:1971   .text.LCD_Fill:0000000000000010 .L0 
C:\Users\Duckb\AppData\Local\Temp\ccEgig1L.s:1977   .text.LCD_Fill:000000000000001a .L0 
C:\Users\Duckb\AppData\Local\Temp\ccEgig1L.s:1981   .text.LCD_Fill:0000000000000022 .L0 
C:\Users\Duckb\AppData\Local\Temp\ccEgig1L.s:1982   .text.LCD_Fill:0000000000000022 .L0 
C:\Users\Duckb\AppData\Local\Temp\ccEgig1L.s:1984   .text.LCD_Fill:0000000000000026 .L0 
C:\Users\Duckb\AppData\Local\Temp\ccEgig1L.s:1985   .text.LCD_Fill:0000000000000028 .L0 
C:\Users\Duckb\AppData\Local\Temp\ccEgig1L.s:1986   .text.LCD_Fill:0000000000000028 .L0 
C:\Users\Duckb\AppData\Local\Temp\ccEgig1L.s:1988   .text.LCD_Fill:000000000000002a .L0 
C:\Users\Duckb\AppData\Local\Temp\ccEgig1L.s:1991   .text.LCD_Fill:000000000000002c .L0 
C:\Users\Duckb\AppData\Local\Temp\ccEgig1L.s:1993   .text.LCD_Fill:000000000000002e .L0 
C:\Users\Duckb\AppData\Local\Temp\ccEgig1L.s:1996   .text.LCD_Fill:0000000000000030 .L0 
C:\Users\Duckb\AppData\Local\Temp\ccEgig1L.s:1999   .text.LCD_Fill:0000000000000032 .L0 
C:\Users\Duckb\AppData\Local\Temp\ccEgig1L.s:2002   .text.LCD_Fill:0000000000000034 .L0 
C:\Users\Duckb\AppData\Local\Temp\ccEgig1L.s:2006   .text.LCD_Fill:0000000000000036 .L0 
C:\Users\Duckb\AppData\Local\Temp\ccEgig1L.s:2011   .text.LCD_Fill:0000000000000038 .L0 
C:\Users\Duckb\AppData\Local\Temp\ccEgig1L.s:2013   .text.LCD_Fill:0000000000000038 .L0 
C:\Users\Duckb\AppData\Local\Temp\ccEgig1L.s:2017   .text.LCD_Fill:0000000000000042 .L0 
C:\Users\Duckb\AppData\Local\Temp\ccEgig1L.s:2021   .text.LCD_Fill:0000000000000044 .L0 
C:\Users\Duckb\AppData\Local\Temp\ccEgig1L.s:2023   .text.LCD_Fill:0000000000000048 .L0 
C:\Users\Duckb\AppData\Local\Temp\ccEgig1L.s:2029   .text.LCD_Fill:000000000000004c .L0 
C:\Users\Duckb\AppData\Local\Temp\ccEgig1L.s:2031   .text.LCD_Fill:0000000000000050 .L0 
C:\Users\Duckb\AppData\Local\Temp\ccEgig1L.s:2038   .text.LCD_DrawPoint_big:0000000000000000 LCD_DrawPoint_big
C:\Users\Duckb\AppData\Local\Temp\ccEgig1L.s:2041   .text.LCD_DrawPoint_big:0000000000000000 .L0 
C:\Users\Duckb\AppData\Local\Temp\ccEgig1L.s:2043   .text.LCD_DrawPoint_big:0000000000000000 .L0 
C:\Users\Duckb\AppData\Local\Temp\ccEgig1L.s:2044   .text.LCD_DrawPoint_big:0000000000000000 .L0 
C:\Users\Duckb\AppData\Local\Temp\ccEgig1L.s:2054   .text.LCD_DrawPoint_big:0000000000000016 .L0 
C:\Users\Duckb\AppData\Local\Temp\ccEgig1L.s:2061   .text.LCD_DrawLine:0000000000000000 LCD_DrawLine
C:\Users\Duckb\AppData\Local\Temp\ccEgig1L.s:2064   .text.LCD_DrawLine:0000000000000000 .L0 
C:\Users\Duckb\AppData\Local\Temp\ccEgig1L.s:2066   .text.LCD_DrawLine:0000000000000000 .L0 
C:\Users\Duckb\AppData\Local\Temp\ccEgig1L.s:2067   .text.LCD_DrawLine:0000000000000000 .L0 
C:\Users\Duckb\AppData\Local\Temp\ccEgig1L.s:2068   .text.LCD_DrawLine:0000000000000000 .L0 
C:\Users\Duckb\AppData\Local\Temp\ccEgig1L.s:2069   .text.LCD_DrawLine:0000000000000000 .L0 
C:\Users\Duckb\AppData\Local\Temp\ccEgig1L.s:2070   .text.LCD_DrawLine:0000000000000000 .L0 
C:\Users\Duckb\AppData\Local\Temp\ccEgig1L.s:2071   .text.LCD_DrawLine:0000000000000000 .L0 
C:\Users\Duckb\AppData\Local\Temp\ccEgig1L.s:2073   .text.LCD_DrawLine:0000000000000002 .L0 
C:\Users\Duckb\AppData\Local\Temp\ccEgig1L.s:2086   .text.LCD_DrawLine:000000000000001a .L0 
C:\Users\Duckb\AppData\Local\Temp\ccEgig1L.s:2087   .text.LCD_DrawLine:000000000000001a .L0 
C:\Users\Duckb\AppData\Local\Temp\ccEgig1L.s:2088   .text.LCD_DrawLine:000000000000001a .L0 
GAS LISTING C:\Users\Duckb\AppData\Local\Temp\ccEgig1L.s 			page 140


C:\Users\Duckb\AppData\Local\Temp\ccEgig1L.s:2089   .text.LCD_DrawLine:000000000000001a .L0 
C:\Users\Duckb\AppData\Local\Temp\ccEgig1L.s:2090   .text.LCD_DrawLine:000000000000001a .L0 
C:\Users\Duckb\AppData\Local\Temp\ccEgig1L.s:2091   .text.LCD_DrawLine:000000000000001a .L0 
C:\Users\Duckb\AppData\Local\Temp\ccEgig1L.s:2092   .text.LCD_DrawLine:000000000000001a .L0 
C:\Users\Duckb\AppData\Local\Temp\ccEgig1L.s:2093   .text.LCD_DrawLine:000000000000001a .L0 
C:\Users\Duckb\AppData\Local\Temp\ccEgig1L.s:2094   .text.LCD_DrawLine:000000000000001a .L0 
C:\Users\Duckb\AppData\Local\Temp\ccEgig1L.s:2095   .text.LCD_DrawLine:000000000000001a .L0 
C:\Users\Duckb\AppData\Local\Temp\ccEgig1L.s:2096   .text.LCD_DrawLine:000000000000001a .L0 
C:\Users\Duckb\AppData\Local\Temp\ccEgig1L.s:2097   .text.LCD_DrawLine:000000000000001a .L0 
C:\Users\Duckb\AppData\Local\Temp\ccEgig1L.s:2099   .text.LCD_DrawLine:000000000000001a .L0 
C:\Users\Duckb\AppData\Local\Temp\ccEgig1L.s:2102   .text.LCD_DrawLine:000000000000001e .L0 
C:\Users\Duckb\AppData\Local\Temp\ccEgig1L.s:2103   .text.LCD_DrawLine:000000000000001e .L0 
C:\Users\Duckb\AppData\Local\Temp\ccEgig1L.s:2106   .text.LCD_DrawLine:0000000000000022 .L0 
C:\Users\Duckb\AppData\Local\Temp\ccEgig1L.s:2107   .text.LCD_DrawLine:0000000000000022 .L0 
C:\Users\Duckb\AppData\Local\Temp\ccEgig1L.s:2110   .text.LCD_DrawLine:0000000000000024 .L0 
C:\Users\Duckb\AppData\Local\Temp\ccEgig1L.s:2111   .text.LCD_DrawLine:0000000000000024 .L0 
C:\Users\Duckb\AppData\Local\Temp\ccEgig1L.s:2114   .text.LCD_DrawLine:0000000000000026 .L0 
C:\Users\Duckb\AppData\Local\Temp\ccEgig1L.s:2115   .text.LCD_DrawLine:0000000000000026 .L0 
C:\Users\Duckb\AppData\Local\Temp\ccEgig1L.s:2117   .text.LCD_DrawLine:0000000000000028 .L0 
C:\Users\Duckb\AppData\Local\Temp\ccEgig1L.s:2119   .text.LCD_DrawLine:000000000000002c .L0 
C:\Users\Duckb\AppData\Local\Temp\ccEgig1L.s:2120   .text.LCD_DrawLine:000000000000002c .L0 
C:\Users\Duckb\AppData\Local\Temp\ccEgig1L.s:2122   .text.LCD_DrawLine:000000000000002e .L0 
C:\Users\Duckb\AppData\Local\Temp\ccEgig1L.s:2125   .text.LCD_DrawLine:0000000000000030 .L0 
C:\Users\Duckb\AppData\Local\Temp\ccEgig1L.s:2126   .text.LCD_DrawLine:0000000000000030 .L0 
C:\Users\Duckb\AppData\Local\Temp\ccEgig1L.s:2127   .text.LCD_DrawLine:0000000000000030 .L0 
C:\Users\Duckb\AppData\Local\Temp\ccEgig1L.s:2130   .text.LCD_DrawLine:0000000000000034 .L0 
C:\Users\Duckb\AppData\Local\Temp\ccEgig1L.s:2134   .text.LCD_DrawLine:0000000000000036 .L0 
C:\Users\Duckb\AppData\Local\Temp\ccEgig1L.s:2135   .text.LCD_DrawLine:0000000000000036 .L0 
C:\Users\Duckb\AppData\Local\Temp\ccEgig1L.s:2137   .text.LCD_DrawLine:0000000000000038 .L0 
C:\Users\Duckb\AppData\Local\Temp\ccEgig1L.s:2139   .text.LCD_DrawLine:000000000000003c .L0 
C:\Users\Duckb\AppData\Local\Temp\ccEgig1L.s:2140   .text.LCD_DrawLine:000000000000003c .L0 
C:\Users\Duckb\AppData\Local\Temp\ccEgig1L.s:2142   .text.LCD_DrawLine:000000000000003e .L0 
C:\Users\Duckb\AppData\Local\Temp\ccEgig1L.s:2145   .text.LCD_DrawLine:0000000000000040 .L0 
C:\Users\Duckb\AppData\Local\Temp\ccEgig1L.s:2146   .text.LCD_DrawLine:0000000000000040 .L0 
C:\Users\Duckb\AppData\Local\Temp\ccEgig1L.s:2147   .text.LCD_DrawLine:0000000000000040 .L0 
C:\Users\Duckb\AppData\Local\Temp\ccEgig1L.s:2150   .text.LCD_DrawLine:0000000000000044 .L0 
C:\Users\Duckb\AppData\Local\Temp\ccEgig1L.s:2154   .text.LCD_DrawLine:0000000000000046 .L0 
C:\Users\Duckb\AppData\Local\Temp\ccEgig1L.s:2160   .text.LCD_DrawLine:000000000000004e .L0 
C:\Users\Duckb\AppData\Local\Temp\ccEgig1L.s:2161   .text.LCD_DrawLine:000000000000004e .L0 
C:\Users\Duckb\AppData\Local\Temp\ccEgig1L.s:2163   .text.LCD_DrawLine:0000000000000050 .L0 
C:\Users\Duckb\AppData\Local\Temp\ccEgig1L.s:2165   .text.LCD_DrawLine:0000000000000052 .L0 
C:\Users\Duckb\AppData\Local\Temp\ccEgig1L.s:2167   .text.LCD_DrawLine:0000000000000054 .L0 
C:\Users\Duckb\AppData\Local\Temp\ccEgig1L.s:2171   .text.LCD_DrawLine:0000000000000058 .L0 
C:\Users\Duckb\AppData\Local\Temp\ccEgig1L.s:2176   .text.LCD_DrawLine:0000000000000060 .L0 
C:\Users\Duckb\AppData\Local\Temp\ccEgig1L.s:2179   .text.LCD_DrawLine:0000000000000062 .L0 
C:\Users\Duckb\AppData\Local\Temp\ccEgig1L.s:2182   .text.LCD_DrawLine:000000000000006a .L0 
C:\Users\Duckb\AppData\Local\Temp\ccEgig1L.s:2183   .text.LCD_DrawLine:000000000000006a .L0 
C:\Users\Duckb\AppData\Local\Temp\ccEgig1L.s:2184   .text.LCD_DrawLine:000000000000006a .L0 
C:\Users\Duckb\AppData\Local\Temp\ccEgig1L.s:2187   .text.LCD_DrawLine:000000000000006c .L0 
C:\Users\Duckb\AppData\Local\Temp\ccEgig1L.s:2188   .text.LCD_DrawLine:000000000000006c .L0 
C:\Users\Duckb\AppData\Local\Temp\ccEgig1L.s:2191   .text.LCD_DrawLine:0000000000000072 .L0 
C:\Users\Duckb\AppData\Local\Temp\ccEgig1L.s:2192   .text.LCD_DrawLine:0000000000000072 .L0 
C:\Users\Duckb\AppData\Local\Temp\ccEgig1L.s:2195   .text.LCD_DrawLine:0000000000000076 .L0 
C:\Users\Duckb\AppData\Local\Temp\ccEgig1L.s:2196   .text.LCD_DrawLine:0000000000000076 .L0 
C:\Users\Duckb\AppData\Local\Temp\ccEgig1L.s:2200   .text.LCD_DrawLine:0000000000000078 .L0 
C:\Users\Duckb\AppData\Local\Temp\ccEgig1L.s:2201   .text.LCD_DrawLine:0000000000000078 .L0 
C:\Users\Duckb\AppData\Local\Temp\ccEgig1L.s:2203   .text.LCD_DrawLine:000000000000007c .L0 
GAS LISTING C:\Users\Duckb\AppData\Local\Temp\ccEgig1L.s 			page 141


C:\Users\Duckb\AppData\Local\Temp\ccEgig1L.s:2204   .text.LCD_DrawLine:000000000000007c .L0 
C:\Users\Duckb\AppData\Local\Temp\ccEgig1L.s:2207   .text.LCD_DrawLine:0000000000000080 .L0 
C:\Users\Duckb\AppData\Local\Temp\ccEgig1L.s:2208   .text.LCD_DrawLine:0000000000000080 .L0 
C:\Users\Duckb\AppData\Local\Temp\ccEgig1L.s:2212   .text.LCD_DrawLine:0000000000000082 .L0 
C:\Users\Duckb\AppData\Local\Temp\ccEgig1L.s:2215   .text.LCD_DrawLine:0000000000000084 .L0 
C:\Users\Duckb\AppData\Local\Temp\ccEgig1L.s:2217   .text.LCD_DrawLine:0000000000000088 .L0 
C:\Users\Duckb\AppData\Local\Temp\ccEgig1L.s:2218   .text.LCD_DrawLine:000000000000008a .L0 
C:\Users\Duckb\AppData\Local\Temp\ccEgig1L.s:2220   .text.LCD_DrawLine:000000000000008c .L0 
C:\Users\Duckb\AppData\Local\Temp\ccEgig1L.s:2223   .text.LCD_DrawLine:000000000000008e .L0 
C:\Users\Duckb\AppData\Local\Temp\ccEgig1L.s:2226   .text.LCD_DrawLine:0000000000000090 .L0 
C:\Users\Duckb\AppData\Local\Temp\ccEgig1L.s:2229   .text.LCD_DrawLine:0000000000000092 .L0 
C:\Users\Duckb\AppData\Local\Temp\ccEgig1L.s:2232   .text.LCD_DrawLine:0000000000000094 .L0 
C:\Users\Duckb\AppData\Local\Temp\ccEgig1L.s:2235   .text.LCD_DrawLine:0000000000000096 .L0 
C:\Users\Duckb\AppData\Local\Temp\ccEgig1L.s:2238   .text.LCD_DrawLine:0000000000000098 .L0 
C:\Users\Duckb\AppData\Local\Temp\ccEgig1L.s:2241   .text.LCD_DrawLine:000000000000009a .L0 
C:\Users\Duckb\AppData\Local\Temp\ccEgig1L.s:2244   .text.LCD_DrawLine:000000000000009c .L0 
C:\Users\Duckb\AppData\Local\Temp\ccEgig1L.s:2247   .text.LCD_DrawLine:000000000000009e .L0 
C:\Users\Duckb\AppData\Local\Temp\ccEgig1L.s:2250   .text.LCD_DrawLine:00000000000000a0 .L0 
C:\Users\Duckb\AppData\Local\Temp\ccEgig1L.s:2254   .text.LCD_DrawLine:00000000000000a2 .L0 
C:\Users\Duckb\AppData\Local\Temp\ccEgig1L.s:2256   .text.LCD_DrawLine:00000000000000a4 .L0 
C:\Users\Duckb\AppData\Local\Temp\ccEgig1L.s:2263   .text.LCD_DrawRectangle:0000000000000000 LCD_DrawRectangle
C:\Users\Duckb\AppData\Local\Temp\ccEgig1L.s:2266   .text.LCD_DrawRectangle:0000000000000000 .L0 
C:\Users\Duckb\AppData\Local\Temp\ccEgig1L.s:2268   .text.LCD_DrawRectangle:0000000000000000 .L0 
C:\Users\Duckb\AppData\Local\Temp\ccEgig1L.s:2269   .text.LCD_DrawRectangle:0000000000000000 .L0 
C:\Users\Duckb\AppData\Local\Temp\ccEgig1L.s:2270   .text.LCD_DrawRectangle:0000000000000000 .L0 
C:\Users\Duckb\AppData\Local\Temp\ccEgig1L.s:2272   .text.LCD_DrawRectangle:0000000000000002 .L0 
C:\Users\Duckb\AppData\Local\Temp\ccEgig1L.s:2274   .text.LCD_DrawRectangle:0000000000000004 .L0 
C:\Users\Duckb\AppData\Local\Temp\ccEgig1L.s:2277   .text.LCD_DrawRectangle:0000000000000006 .L0 
C:\Users\Duckb\AppData\Local\Temp\ccEgig1L.s:2280   .text.LCD_DrawRectangle:0000000000000008 .L0 
C:\Users\Duckb\AppData\Local\Temp\ccEgig1L.s:2285   .text.LCD_DrawRectangle:0000000000000012 .L0 
C:\Users\Duckb\AppData\Local\Temp\ccEgig1L.s:2286   .text.LCD_DrawRectangle:0000000000000012 .L0 
C:\Users\Duckb\AppData\Local\Temp\ccEgig1L.s:2287   .text.LCD_DrawRectangle:0000000000000012 .L0 
C:\Users\Duckb\AppData\Local\Temp\ccEgig1L.s:2288   .text.LCD_DrawRectangle:0000000000000012 .L0 
C:\Users\Duckb\AppData\Local\Temp\ccEgig1L.s:2289   .text.LCD_DrawRectangle:0000000000000012 .L0 
C:\Users\Duckb\AppData\Local\Temp\ccEgig1L.s:2291   .text.LCD_DrawRectangle:0000000000000012 .L0 
C:\Users\Duckb\AppData\Local\Temp\ccEgig1L.s:2296   .text.LCD_DrawRectangle:000000000000001a .L0 
C:\Users\Duckb\AppData\Local\Temp\ccEgig1L.s:2299   .text.LCD_DrawRectangle:0000000000000022 .L0 
C:\Users\Duckb\AppData\Local\Temp\ccEgig1L.s:2307   .text.LCD_DrawRectangle:0000000000000034 .L0 
C:\Users\Duckb\AppData\Local\Temp\ccEgig1L.s:2315   .text.LCD_DrawRectangle:0000000000000046 .L0 
C:\Users\Duckb\AppData\Local\Temp\ccEgig1L.s:2317   .text.LCD_DrawRectangle:0000000000000048 .L0 
C:\Users\Duckb\AppData\Local\Temp\ccEgig1L.s:2318   .text.LCD_DrawRectangle:000000000000004a .L0 
C:\Users\Duckb\AppData\Local\Temp\ccEgig1L.s:2321   .text.LCD_DrawRectangle:000000000000004c .L0 
C:\Users\Duckb\AppData\Local\Temp\ccEgig1L.s:2323   .text.LCD_DrawRectangle:000000000000004e .L0 
C:\Users\Duckb\AppData\Local\Temp\ccEgig1L.s:2326   .text.LCD_DrawRectangle:000000000000004e .L0 
C:\Users\Duckb\AppData\Local\Temp\ccEgig1L.s:2329   .text.LCD_DrawRectangle:0000000000000052 .L0 
C:\Users\Duckb\AppData\Local\Temp\ccEgig1L.s:2330   .text.LCD_DrawRectangle:0000000000000054 .L0 
C:\Users\Duckb\AppData\Local\Temp\ccEgig1L.s:2333   .text.LCD_DrawRectangle:0000000000000054 .L0 
C:\Users\Duckb\AppData\Local\Temp\ccEgig1L.s:2336   .text.LCD_DrawRectangle:0000000000000058 .L0 
C:\Users\Duckb\AppData\Local\Temp\ccEgig1L.s:2337   .text.LCD_DrawRectangle:000000000000005a .L0 
C:\Users\Duckb\AppData\Local\Temp\ccEgig1L.s:2340   .text.LCD_DrawRectangle:000000000000005c .L0 
C:\Users\Duckb\AppData\Local\Temp\ccEgig1L.s:2344   .text.LCD_DrawRectangle:000000000000005e .L0 
C:\Users\Duckb\AppData\Local\Temp\ccEgig1L.s:2346   .text.LCD_DrawRectangle:000000000000005e .L0 
C:\Users\Duckb\AppData\Local\Temp\ccEgig1L.s:2348   .text.LCD_DrawRectangle:0000000000000066 .L0 
C:\Users\Duckb\AppData\Local\Temp\ccEgig1L.s:2355   .text.Draw_Circle:0000000000000000 Draw_Circle
C:\Users\Duckb\AppData\Local\Temp\ccEgig1L.s:2358   .text.Draw_Circle:0000000000000000 .L0 
C:\Users\Duckb\AppData\Local\Temp\ccEgig1L.s:2360   .text.Draw_Circle:0000000000000000 .L0 
C:\Users\Duckb\AppData\Local\Temp\ccEgig1L.s:2361   .text.Draw_Circle:0000000000000000 .L0 
GAS LISTING C:\Users\Duckb\AppData\Local\Temp\ccEgig1L.s 			page 142


C:\Users\Duckb\AppData\Local\Temp\ccEgig1L.s:2362   .text.Draw_Circle:0000000000000000 .L0 
C:\Users\Duckb\AppData\Local\Temp\ccEgig1L.s:2363   .text.Draw_Circle:0000000000000000 .L0 
C:\Users\Duckb\AppData\Local\Temp\ccEgig1L.s:2364   .text.Draw_Circle:0000000000000000 .L0 
C:\Users\Duckb\AppData\Local\Temp\ccEgig1L.s:2366   .text.Draw_Circle:0000000000000004 .L0 
C:\Users\Duckb\AppData\Local\Temp\ccEgig1L.s:2368   .text.Draw_Circle:0000000000000006 .L0 
C:\Users\Duckb\AppData\Local\Temp\ccEgig1L.s:2382   .text.Draw_Circle:0000000000000020 .L0 
C:\Users\Duckb\AppData\Local\Temp\ccEgig1L.s:2383   .text.Draw_Circle:0000000000000020 .L0 
C:\Users\Duckb\AppData\Local\Temp\ccEgig1L.s:2384   .text.Draw_Circle:0000000000000020 .L0 
C:\Users\Duckb\AppData\Local\Temp\ccEgig1L.s:2385   .text.Draw_Circle:0000000000000020 .L0 
C:\Users\Duckb\AppData\Local\Temp\ccEgig1L.s:2386   .text.Draw_Circle:0000000000000020 .L0 
C:\Users\Duckb\AppData\Local\Temp\ccEgig1L.s:2387   .text.Draw_Circle:0000000000000020 .L0 
C:\Users\Duckb\AppData\Local\Temp\ccEgig1L.s:2388   .text.Draw_Circle:0000000000000020 .L0 
C:\Users\Duckb\AppData\Local\Temp\ccEgig1L.s:2389   .text.Draw_Circle:0000000000000020 .L0 
C:\Users\Duckb\AppData\Local\Temp\ccEgig1L.s:2390   .text.Draw_Circle:0000000000000020 .L0 
C:\Users\Duckb\AppData\Local\Temp\ccEgig1L.s:2391   .text.Draw_Circle:0000000000000020 .L0 
C:\Users\Duckb\AppData\Local\Temp\ccEgig1L.s:2392   .text.Draw_Circle:0000000000000020 .L0 
C:\Users\Duckb\AppData\Local\Temp\ccEgig1L.s:2393   .text.Draw_Circle:0000000000000020 .L0 
C:\Users\Duckb\AppData\Local\Temp\ccEgig1L.s:2394   .text.Draw_Circle:0000000000000020 .L0 
C:\Users\Duckb\AppData\Local\Temp\ccEgig1L.s:2396   .text.Draw_Circle:0000000000000020 .L0 
C:\Users\Duckb\AppData\Local\Temp\ccEgig1L.s:2400   .text.Draw_Circle:0000000000000026 .L0 
C:\Users\Duckb\AppData\Local\Temp\ccEgig1L.s:2403   .text.Draw_Circle:0000000000000028 .L0 
C:\Users\Duckb\AppData\Local\Temp\ccEgig1L.s:2404   .text.Draw_Circle:0000000000000028 .L0 
C:\Users\Duckb\AppData\Local\Temp\ccEgig1L.s:2409   .text.Draw_Circle:000000000000002e .L0 
C:\Users\Duckb\AppData\Local\Temp\ccEgig1L.s:2416   .text.Draw_Circle:000000000000003a .L0 
C:\Users\Duckb\AppData\Local\Temp\ccEgig1L.s:2417   .text.Draw_Circle:000000000000003a .L0 
C:\Users\Duckb\AppData\Local\Temp\ccEgig1L.s:2419   .text.Draw_Circle:000000000000003e .L0 
C:\Users\Duckb\AppData\Local\Temp\ccEgig1L.s:2422   .text.Draw_Circle:0000000000000046 .L0 
C:\Users\Duckb\AppData\Local\Temp\ccEgig1L.s:2428   .text.Draw_Circle:0000000000000054 .L0 
C:\Users\Duckb\AppData\Local\Temp\ccEgig1L.s:2436   .text.Draw_Circle:000000000000006a .L0 
C:\Users\Duckb\AppData\Local\Temp\ccEgig1L.s:2444   .text.Draw_Circle:0000000000000080 .L0 
C:\Users\Duckb\AppData\Local\Temp\ccEgig1L.s:2451   .text.Draw_Circle:0000000000000090 .L0 
C:\Users\Duckb\AppData\Local\Temp\ccEgig1L.s:2458   .text.Draw_Circle:00000000000000a0 .L0 
C:\Users\Duckb\AppData\Local\Temp\ccEgig1L.s:2464   .text.Draw_Circle:00000000000000ae .L0 
C:\Users\Duckb\AppData\Local\Temp\ccEgig1L.s:2470   .text.Draw_Circle:00000000000000bc .L0 
C:\Users\Duckb\AppData\Local\Temp\ccEgig1L.s:2471   .text.Draw_Circle:00000000000000bc .L0 
C:\Users\Duckb\AppData\Local\Temp\ccEgig1L.s:2474   .text.Draw_Circle:00000000000000be .L0 
C:\Users\Duckb\AppData\Local\Temp\ccEgig1L.s:2475   .text.Draw_Circle:00000000000000be .L0 
C:\Users\Duckb\AppData\Local\Temp\ccEgig1L.s:2477   .text.Draw_Circle:00000000000000c2 .L0 
C:\Users\Duckb\AppData\Local\Temp\ccEgig1L.s:2479   .text.Draw_Circle:00000000000000c4 .L0 
C:\Users\Duckb\AppData\Local\Temp\ccEgig1L.s:2481   .text.Draw_Circle:00000000000000c8 .L0 
C:\Users\Duckb\AppData\Local\Temp\ccEgig1L.s:2483   .text.Draw_Circle:00000000000000ca .L0 
C:\Users\Duckb\AppData\Local\Temp\ccEgig1L.s:2485   .text.Draw_Circle:00000000000000ce .L0 
C:\Users\Duckb\AppData\Local\Temp\ccEgig1L.s:2486   .text.Draw_Circle:00000000000000ce .L0 
C:\Users\Duckb\AppData\Local\Temp\ccEgig1L.s:2490   .text.Draw_Circle:00000000000000d0 .L0 
C:\Users\Duckb\AppData\Local\Temp\ccEgig1L.s:2492   .text.Draw_Circle:00000000000000d4 .L0 
C:\Users\Duckb\AppData\Local\Temp\ccEgig1L.s:2493   .text.Draw_Circle:00000000000000d6 .L0 
C:\Users\Duckb\AppData\Local\Temp\ccEgig1L.s:2495   .text.Draw_Circle:00000000000000d8 .L0 
C:\Users\Duckb\AppData\Local\Temp\ccEgig1L.s:2498   .text.Draw_Circle:00000000000000da .L0 
C:\Users\Duckb\AppData\Local\Temp\ccEgig1L.s:2501   .text.Draw_Circle:00000000000000dc .L0 
C:\Users\Duckb\AppData\Local\Temp\ccEgig1L.s:2504   .text.Draw_Circle:00000000000000de .L0 
C:\Users\Duckb\AppData\Local\Temp\ccEgig1L.s:2506   .text.Draw_Circle:00000000000000e0 .L0 
C:\Users\Duckb\AppData\Local\Temp\ccEgig1L.s:2508   .text.Draw_Circle:00000000000000e2 .L0 
C:\Users\Duckb\AppData\Local\Temp\ccEgig1L.s:2510   .text.Draw_Circle:00000000000000e4 .L0 
C:\Users\Duckb\AppData\Local\Temp\ccEgig1L.s:2512   .text.Draw_Circle:00000000000000e6 .L0 
C:\Users\Duckb\AppData\Local\Temp\ccEgig1L.s:2515   .text.Draw_Circle:00000000000000e8 .L0 
C:\Users\Duckb\AppData\Local\Temp\ccEgig1L.s:2518   .text.Draw_Circle:00000000000000ea .L0 
C:\Users\Duckb\AppData\Local\Temp\ccEgig1L.s:2520   .text.Draw_Circle:00000000000000ec .L0 
GAS LISTING C:\Users\Duckb\AppData\Local\Temp\ccEgig1L.s 			page 143


C:\Users\Duckb\AppData\Local\Temp\ccEgig1L.s:2522   .text.Draw_Circle:00000000000000ee .L0 
C:\Users\Duckb\AppData\Local\Temp\ccEgig1L.s:2525   .text.Draw_Circle:00000000000000f0 .L0 
C:\Users\Duckb\AppData\Local\Temp\ccEgig1L.s:2527   .text.Draw_Circle:00000000000000f2 .L0 
C:\Users\Duckb\AppData\Local\Temp\ccEgig1L.s:2534   .text.LCD_ShowChar:0000000000000000 LCD_ShowChar
C:\Users\Duckb\AppData\Local\Temp\ccEgig1L.s:2537   .text.LCD_ShowChar:0000000000000000 .L0 
C:\Users\Duckb\AppData\Local\Temp\ccEgig1L.s:2539   .text.LCD_ShowChar:0000000000000000 .L0 
C:\Users\Duckb\AppData\Local\Temp\ccEgig1L.s:2540   .text.LCD_ShowChar:0000000000000000 .L0 
C:\Users\Duckb\AppData\Local\Temp\ccEgig1L.s:2541   .text.LCD_ShowChar:0000000000000000 .L0 
C:\Users\Duckb\AppData\Local\Temp\ccEgig1L.s:2542   .text.LCD_ShowChar:0000000000000000 .L0 
C:\Users\Duckb\AppData\Local\Temp\ccEgig1L.s:2543   .text.LCD_ShowChar:0000000000000000 .L0 
C:\Users\Duckb\AppData\Local\Temp\ccEgig1L.s:2544   .text.LCD_ShowChar:0000000000000000 .L0 
C:\Users\Duckb\AppData\Local\Temp\ccEgig1L.s:2547   .text.LCD_ShowChar:0000000000000008 .L0 
C:\Users\Duckb\AppData\Local\Temp\ccEgig1L.s:2549   .text.LCD_ShowChar:000000000000000a .L0 
C:\Users\Duckb\AppData\Local\Temp\ccEgig1L.s:2559   .text.LCD_ShowChar:000000000000001c .L0 
C:\Users\Duckb\AppData\Local\Temp\ccEgig1L.s:2560   .text.LCD_ShowChar:000000000000001c .L0 
C:\Users\Duckb\AppData\Local\Temp\ccEgig1L.s:2561   .text.LCD_ShowChar:000000000000001c .L0 
C:\Users\Duckb\AppData\Local\Temp\ccEgig1L.s:2562   .text.LCD_ShowChar:000000000000001c .L0 
C:\Users\Duckb\AppData\Local\Temp\ccEgig1L.s:2563   .text.LCD_ShowChar:000000000000001c .L0 
C:\Users\Duckb\AppData\Local\Temp\ccEgig1L.s:2564   .text.LCD_ShowChar:000000000000001c .L0 
C:\Users\Duckb\AppData\Local\Temp\ccEgig1L.s:2565   .text.LCD_ShowChar:000000000000001c .L0 
C:\Users\Duckb\AppData\Local\Temp\ccEgig1L.s:2566   .text.LCD_ShowChar:000000000000001c .L0 
C:\Users\Duckb\AppData\Local\Temp\ccEgig1L.s:2567   .text.LCD_ShowChar:000000000000001c .L0 
C:\Users\Duckb\AppData\Local\Temp\ccEgig1L.s:2569   .text.LCD_ShowChar:000000000000001c .L0 
C:\Users\Duckb\AppData\Local\Temp\ccEgig1L.s:2576   .text.LCD_ShowChar:0000000000000028 .L0 
C:\Users\Duckb\AppData\Local\Temp\ccEgig1L.s:2580   .text.LCD_ShowChar:0000000000000030 .L0 
C:\Users\Duckb\AppData\Local\Temp\ccEgig1L.s:2590   .text.LCD_ShowChar:0000000000000044 .L0 
C:\Users\Duckb\AppData\Local\Temp\ccEgig1L.s:2591   .text.LCD_ShowChar:0000000000000044 .L0 
C:\Users\Duckb\AppData\Local\Temp\ccEgig1L.s:2595   .text.LCD_ShowChar:0000000000000050 .L0 
C:\Users\Duckb\AppData\Local\Temp\ccEgig1L.s:2596   .text.LCD_ShowChar:0000000000000050 .L0 
C:\Users\Duckb\AppData\Local\Temp\ccEgig1L.s:2600   .text.LCD_ShowChar:0000000000000056 .L0 
C:\Users\Duckb\AppData\Local\Temp\ccEgig1L.s:2602   .text.LCD_ShowChar:000000000000005a .L0 
C:\Users\Duckb\AppData\Local\Temp\ccEgig1L.s:2606   .text.LCD_ShowChar:000000000000005c .L0 
C:\Users\Duckb\AppData\Local\Temp\ccEgig1L.s:2607   .text.LCD_ShowChar:000000000000005c .L0 
C:\Users\Duckb\AppData\Local\Temp\ccEgig1L.s:2612   .text.LCD_ShowChar:0000000000000066 .L0 
C:\Users\Duckb\AppData\Local\Temp\ccEgig1L.s:2613   .text.LCD_ShowChar:0000000000000066 .L0 
C:\Users\Duckb\AppData\Local\Temp\ccEgig1L.s:2617   .text.LCD_ShowChar:0000000000000068 .L0 
C:\Users\Duckb\AppData\Local\Temp\ccEgig1L.s:2618   .text.LCD_ShowChar:0000000000000068 .L0 
C:\Users\Duckb\AppData\Local\Temp\ccEgig1L.s:2620   .text.LCD_ShowChar:000000000000006c .L0 
C:\Users\Duckb\AppData\Local\Temp\ccEgig1L.s:2622   .text.LCD_ShowChar:000000000000006e .L0 
C:\Users\Duckb\AppData\Local\Temp\ccEgig1L.s:2625   .text.LCD_ShowChar:0000000000000070 .L0 
C:\Users\Duckb\AppData\Local\Temp\ccEgig1L.s:2634   .text.LCD_ShowChar:0000000000000082 .L0 
C:\Users\Duckb\AppData\Local\Temp\ccEgig1L.s:2635   .text.LCD_ShowChar:0000000000000082 .L0 
C:\Users\Duckb\AppData\Local\Temp\ccEgig1L.s:2638   .text.LCD_ShowChar:0000000000000086 .L0 
C:\Users\Duckb\AppData\Local\Temp\ccEgig1L.s:2639   .text.LCD_ShowChar:0000000000000086 .L0 
C:\Users\Duckb\AppData\Local\Temp\ccEgig1L.s:2642   .text.LCD_ShowChar:0000000000000088 .L0 
C:\Users\Duckb\AppData\Local\Temp\ccEgig1L.s:2643   .text.LCD_ShowChar:0000000000000088 .L0 
C:\Users\Duckb\AppData\Local\Temp\ccEgig1L.s:2646   .text.LCD_ShowChar:000000000000008a .L0 
C:\Users\Duckb\AppData\Local\Temp\ccEgig1L.s:2652   .text.LCD_ShowChar:000000000000008e .L0 
C:\Users\Duckb\AppData\Local\Temp\ccEgig1L.s:2653   .text.LCD_ShowChar:0000000000000090 .L0 
C:\Users\Duckb\AppData\Local\Temp\ccEgig1L.s:2654   .text.LCD_ShowChar:0000000000000090 .L0 
C:\Users\Duckb\AppData\Local\Temp\ccEgig1L.s:2656   .text.LCD_ShowChar:0000000000000092 .L0 
C:\Users\Duckb\AppData\Local\Temp\ccEgig1L.s:2658   .text.LCD_ShowChar:0000000000000094 .L0 
C:\Users\Duckb\AppData\Local\Temp\ccEgig1L.s:2660   .text.LCD_ShowChar:0000000000000096 .L0 
C:\Users\Duckb\AppData\Local\Temp\ccEgig1L.s:2662   .text.LCD_ShowChar:0000000000000098 .L0 
C:\Users\Duckb\AppData\Local\Temp\ccEgig1L.s:2664   .text.LCD_ShowChar:000000000000009a .L0 
C:\Users\Duckb\AppData\Local\Temp\ccEgig1L.s:2666   .text.LCD_ShowChar:000000000000009c .L0 
C:\Users\Duckb\AppData\Local\Temp\ccEgig1L.s:2668   .text.LCD_ShowChar:000000000000009e .L0 
GAS LISTING C:\Users\Duckb\AppData\Local\Temp\ccEgig1L.s 			page 144


C:\Users\Duckb\AppData\Local\Temp\ccEgig1L.s:2670   .text.LCD_ShowChar:00000000000000a0 .L0 
C:\Users\Duckb\AppData\Local\Temp\ccEgig1L.s:2673   .text.LCD_ShowChar:00000000000000a2 .L0 
C:\Users\Duckb\AppData\Local\Temp\ccEgig1L.s:2678   .text.LCD_ShowChar:00000000000000a4 .L0 
C:\Users\Duckb\AppData\Local\Temp\ccEgig1L.s:2684   .text.LCD_ShowChar:00000000000000aa .L0 
C:\Users\Duckb\AppData\Local\Temp\ccEgig1L.s:2688   .text.LCD_ShowChar:00000000000000ac .L0 
C:\Users\Duckb\AppData\Local\Temp\ccEgig1L.s:2689   .text.LCD_ShowChar:00000000000000ac .L0 
C:\Users\Duckb\AppData\Local\Temp\ccEgig1L.s:2692   .text.LCD_ShowChar:00000000000000b0 .L0 
C:\Users\Duckb\AppData\Local\Temp\ccEgig1L.s:2693   .text.LCD_ShowChar:00000000000000b0 .L0 
C:\Users\Duckb\AppData\Local\Temp\ccEgig1L.s:2697   .text.LCD_ShowChar:00000000000000b2 .L0 
C:\Users\Duckb\AppData\Local\Temp\ccEgig1L.s:2698   .text.LCD_ShowChar:00000000000000b2 .L0 
C:\Users\Duckb\AppData\Local\Temp\ccEgig1L.s:2701   .text.LCD_ShowChar:00000000000000b8 .L0 
C:\Users\Duckb\AppData\Local\Temp\ccEgig1L.s:2708   .text.LCD_ShowChar:00000000000000c8 .L0 
C:\Users\Duckb\AppData\Local\Temp\ccEgig1L.s:2711   .text.LCD_ShowChar:00000000000000ca .L0 
C:\Users\Duckb\AppData\Local\Temp\ccEgig1L.s:2714   .text.LCD_ShowChar:00000000000000ce .L0 
C:\Users\Duckb\AppData\Local\Temp\ccEgig1L.s:2718   .text.LCD_ShowChar:00000000000000d6 .L0 
C:\Users\Duckb\AppData\Local\Temp\ccEgig1L.s:2723   .text.LCD_ShowChar:00000000000000dc .L0 
C:\Users\Duckb\AppData\Local\Temp\ccEgig1L.s:2724   .text.LCD_ShowChar:00000000000000dc .L0 
C:\Users\Duckb\AppData\Local\Temp\ccEgig1L.s:2725   .text.LCD_ShowChar:00000000000000dc .L0 
C:\Users\Duckb\AppData\Local\Temp\ccEgig1L.s:2726   .text.LCD_ShowChar:00000000000000dc .L0 
C:\Users\Duckb\AppData\Local\Temp\ccEgig1L.s:2727   .text.LCD_ShowChar:00000000000000dc .L0 
C:\Users\Duckb\AppData\Local\Temp\ccEgig1L.s:2728   .text.LCD_ShowChar:00000000000000dc .L0 
C:\Users\Duckb\AppData\Local\Temp\ccEgig1L.s:2729   .text.LCD_ShowChar:00000000000000dc .L0 
C:\Users\Duckb\AppData\Local\Temp\ccEgig1L.s:2730   .text.LCD_ShowChar:00000000000000dc .L0 
C:\Users\Duckb\AppData\Local\Temp\ccEgig1L.s:2731   .text.LCD_ShowChar:00000000000000dc .L0 
C:\Users\Duckb\AppData\Local\Temp\ccEgig1L.s:2732   .text.LCD_ShowChar:00000000000000dc .L0 
C:\Users\Duckb\AppData\Local\Temp\ccEgig1L.s:2736   .text.LCD_ShowChar:00000000000000de .L0 
C:\Users\Duckb\AppData\Local\Temp\ccEgig1L.s:2743   .text.LCD_DeleteChar:0000000000000000 LCD_DeleteChar
C:\Users\Duckb\AppData\Local\Temp\ccEgig1L.s:2746   .text.LCD_DeleteChar:0000000000000000 .L0 
C:\Users\Duckb\AppData\Local\Temp\ccEgig1L.s:2748   .text.LCD_DeleteChar:0000000000000000 .L0 
C:\Users\Duckb\AppData\Local\Temp\ccEgig1L.s:2749   .text.LCD_DeleteChar:0000000000000000 .L0 
C:\Users\Duckb\AppData\Local\Temp\ccEgig1L.s:2750   .text.LCD_DeleteChar:0000000000000000 .L0 
C:\Users\Duckb\AppData\Local\Temp\ccEgig1L.s:2752   .text.LCD_DeleteChar:0000000000000002 .L0 
C:\Users\Duckb\AppData\Local\Temp\ccEgig1L.s:2754   .text.LCD_DeleteChar:0000000000000004 .L0 
C:\Users\Duckb\AppData\Local\Temp\ccEgig1L.s:2756   .text.LCD_DeleteChar:0000000000000008 .L0 
C:\Users\Duckb\AppData\Local\Temp\ccEgig1L.s:2758   .text.LCD_DeleteChar:000000000000000a .L0 
C:\Users\Duckb\AppData\Local\Temp\ccEgig1L.s:2759   .text.LCD_DeleteChar:000000000000000a .L0 
C:\Users\Duckb\AppData\Local\Temp\ccEgig1L.s:2761   .text.LCD_DeleteChar:000000000000000c .L0 
C:\Users\Duckb\AppData\Local\Temp\ccEgig1L.s:2767   .text.LCD_DeleteChar:0000000000000016 .L0 
C:\Users\Duckb\AppData\Local\Temp\ccEgig1L.s:2768   .text.LCD_DeleteChar:0000000000000016 .L0 
C:\Users\Duckb\AppData\Local\Temp\ccEgig1L.s:2769   .text.LCD_DeleteChar:0000000000000016 .L0 
C:\Users\Duckb\AppData\Local\Temp\ccEgig1L.s:2770   .text.LCD_DeleteChar:0000000000000016 .L0 
C:\Users\Duckb\AppData\Local\Temp\ccEgig1L.s:2771   .text.LCD_DeleteChar:0000000000000016 .L0 
C:\Users\Duckb\AppData\Local\Temp\ccEgig1L.s:2773   .text.LCD_DeleteChar:0000000000000016 .L0 
C:\Users\Duckb\AppData\Local\Temp\ccEgig1L.s:2775   .text.LCD_DeleteChar:0000000000000018 .L0 
C:\Users\Duckb\AppData\Local\Temp\ccEgig1L.s:2776   .text.LCD_DeleteChar:0000000000000018 .L0 
C:\Users\Duckb\AppData\Local\Temp\ccEgig1L.s:2779   .text.LCD_DeleteChar:000000000000001c .L0 
C:\Users\Duckb\AppData\Local\Temp\ccEgig1L.s:2780   .text.LCD_DeleteChar:000000000000001c .L0 
C:\Users\Duckb\AppData\Local\Temp\ccEgig1L.s:2786   .text.LCD_DeleteChar:0000000000000026 .L0 
C:\Users\Duckb\AppData\Local\Temp\ccEgig1L.s:2795   .text.LCD_DeleteChar:000000000000002a .L0 
C:\Users\Duckb\AppData\Local\Temp\ccEgig1L.s:2801   .text.LCD_DeleteChar:0000000000000036 .L0 
C:\Users\Duckb\AppData\Local\Temp\ccEgig1L.s:2807   .text.LCD_DeleteChar:000000000000003c .L0 
C:\Users\Duckb\AppData\Local\Temp\ccEgig1L.s:2810   .text.LCD_DeleteChar:0000000000000040 .L0 
C:\Users\Duckb\AppData\Local\Temp\ccEgig1L.s:2813   .text.LCD_DeleteChar:0000000000000044 .L0 
C:\Users\Duckb\AppData\Local\Temp\ccEgig1L.s:2814   .text.LCD_DeleteChar:0000000000000046 .L0 
C:\Users\Duckb\AppData\Local\Temp\ccEgig1L.s:2815   .text.LCD_DeleteChar:0000000000000046 .L0 
C:\Users\Duckb\AppData\Local\Temp\ccEgig1L.s:2818   .text.LCD_DeleteChar:0000000000000048 .L0 
C:\Users\Duckb\AppData\Local\Temp\ccEgig1L.s:2820   .text.LCD_DeleteChar:000000000000004a .L0 
GAS LISTING C:\Users\Duckb\AppData\Local\Temp\ccEgig1L.s 			page 145


C:\Users\Duckb\AppData\Local\Temp\ccEgig1L.s:2823   .text.LCD_DeleteChar:000000000000004c .L0 
C:\Users\Duckb\AppData\Local\Temp\ccEgig1L.s:2825   .text.LCD_DeleteChar:000000000000004e .L0 
C:\Users\Duckb\AppData\Local\Temp\ccEgig1L.s:2828   .text.LCD_DeleteChar:000000000000004e .L0 
C:\Users\Duckb\AppData\Local\Temp\ccEgig1L.s:2830   .text.LCD_DeleteChar:0000000000000052 .L0 
C:\Users\Duckb\AppData\Local\Temp\ccEgig1L.s:2831   .text.LCD_DeleteChar:0000000000000052 .L0 
C:\Users\Duckb\AppData\Local\Temp\ccEgig1L.s:2833   .text.LCD_DeleteChar:0000000000000056 .L0 
C:\Users\Duckb\AppData\Local\Temp\ccEgig1L.s:2835   .text.LCD_DeleteChar:0000000000000058 .L0 
C:\Users\Duckb\AppData\Local\Temp\ccEgig1L.s:2837   .text.LCD_DeleteChar:0000000000000058 .L0 
C:\Users\Duckb\AppData\Local\Temp\ccEgig1L.s:2841   .text.LCD_DeleteChar:0000000000000060 .L0 
C:\Users\Duckb\AppData\Local\Temp\ccEgig1L.s:2843   .text.LCD_DeleteChar:0000000000000060 .L0 
C:\Users\Duckb\AppData\Local\Temp\ccEgig1L.s:2844   .text.LCD_DeleteChar:0000000000000060 .L0 
C:\Users\Duckb\AppData\Local\Temp\ccEgig1L.s:2848   .text.LCD_DeleteChar:0000000000000064 .L0 
C:\Users\Duckb\AppData\Local\Temp\ccEgig1L.s:2849   .text.LCD_DeleteChar:0000000000000064 .L0 
C:\Users\Duckb\AppData\Local\Temp\ccEgig1L.s:2850   .text.LCD_DeleteChar:0000000000000064 .L0 
C:\Users\Duckb\AppData\Local\Temp\ccEgig1L.s:2851   .text.LCD_DeleteChar:0000000000000064 .L0 
C:\Users\Duckb\AppData\Local\Temp\ccEgig1L.s:2852   .text.LCD_DeleteChar:0000000000000064 .L0 
C:\Users\Duckb\AppData\Local\Temp\ccEgig1L.s:2853   .text.LCD_DeleteChar:0000000000000064 .L0 
C:\Users\Duckb\AppData\Local\Temp\ccEgig1L.s:2855   .text.LCD_DeleteChar:0000000000000066 .L0 
C:\Users\Duckb\AppData\Local\Temp\ccEgig1L.s:2862   .text.LCD_ShowString:0000000000000000 LCD_ShowString
C:\Users\Duckb\AppData\Local\Temp\ccEgig1L.s:2865   .text.LCD_ShowString:0000000000000000 .L0 
C:\Users\Duckb\AppData\Local\Temp\ccEgig1L.s:2867   .text.LCD_ShowString:0000000000000000 .L0 
C:\Users\Duckb\AppData\Local\Temp\ccEgig1L.s:2868   .text.LCD_ShowString:0000000000000000 .L0 
C:\Users\Duckb\AppData\Local\Temp\ccEgig1L.s:2869   .text.LCD_ShowString:0000000000000000 .L0 
C:\Users\Duckb\AppData\Local\Temp\ccEgig1L.s:2871   .text.LCD_ShowString:0000000000000002 .L0 
C:\Users\Duckb\AppData\Local\Temp\ccEgig1L.s:2873   .text.LCD_ShowString:0000000000000004 .L0 
C:\Users\Duckb\AppData\Local\Temp\ccEgig1L.s:2875   .text.LCD_ShowString:0000000000000004 .L0 
C:\Users\Duckb\AppData\Local\Temp\ccEgig1L.s:2877   .text.LCD_ShowString:0000000000000006 .L0 
C:\Users\Duckb\AppData\Local\Temp\ccEgig1L.s:2884   .text.LCD_ShowString:0000000000000014 .L0 
C:\Users\Duckb\AppData\Local\Temp\ccEgig1L.s:2885   .text.LCD_ShowString:0000000000000014 .L0 
C:\Users\Duckb\AppData\Local\Temp\ccEgig1L.s:2886   .text.LCD_ShowString:0000000000000014 .L0 
C:\Users\Duckb\AppData\Local\Temp\ccEgig1L.s:2887   .text.LCD_ShowString:0000000000000014 .L0 
C:\Users\Duckb\AppData\Local\Temp\ccEgig1L.s:2888   .text.LCD_ShowString:0000000000000014 .L0 
C:\Users\Duckb\AppData\Local\Temp\ccEgig1L.s:2889   .text.LCD_ShowString:0000000000000014 .L0 
C:\Users\Duckb\AppData\Local\Temp\ccEgig1L.s:2890   .text.LCD_ShowString:0000000000000014 .L0 
C:\Users\Duckb\AppData\Local\Temp\ccEgig1L.s:2892   .text.LCD_ShowString:0000000000000014 .L0 
C:\Users\Duckb\AppData\Local\Temp\ccEgig1L.s:2897   .text.LCD_ShowString:000000000000001c .L0 
C:\Users\Duckb\AppData\Local\Temp\ccEgig1L.s:2899   .text.LCD_ShowString:0000000000000020 .L0 
C:\Users\Duckb\AppData\Local\Temp\ccEgig1L.s:2901   .text.LCD_ShowString:0000000000000024 .L0 
C:\Users\Duckb\AppData\Local\Temp\ccEgig1L.s:2905   .text.LCD_ShowString:0000000000000028 .L0 
C:\Users\Duckb\AppData\Local\Temp\ccEgig1L.s:2908   .text.LCD_ShowString:000000000000002e .L0 
C:\Users\Duckb\AppData\Local\Temp\ccEgig1L.s:2909   .text.LCD_ShowString:0000000000000030 .L0 
C:\Users\Duckb\AppData\Local\Temp\ccEgig1L.s:2910   .text.LCD_ShowString:0000000000000030 .L0 
C:\Users\Duckb\AppData\Local\Temp\ccEgig1L.s:2912   .text.LCD_ShowString:0000000000000032 .L0 
C:\Users\Duckb\AppData\Local\Temp\ccEgig1L.s:2915   .text.LCD_ShowString:0000000000000034 .L0 
C:\Users\Duckb\AppData\Local\Temp\ccEgig1L.s:2918   .text.LCD_ShowString:0000000000000036 .L0 
C:\Users\Duckb\AppData\Local\Temp\ccEgig1L.s:2921   .text.LCD_ShowString:0000000000000038 .L0 
C:\Users\Duckb\AppData\Local\Temp\ccEgig1L.s:2923   .text.LCD_ShowString:000000000000003a .L0 
C:\Users\Duckb\AppData\Local\Temp\ccEgig1L.s:2926   .text.LCD_ShowString:000000000000003c .L0 
C:\Users\Duckb\AppData\Local\Temp\ccEgig1L.s:2928   .text.LCD_ShowString:000000000000003e .L0 
C:\Users\Duckb\AppData\Local\Temp\ccEgig1L.s:2931   .text.LCD_ShowString:0000000000000040 .L0 
C:\Users\Duckb\AppData\Local\Temp\ccEgig1L.s:2936   .text.LCD_ShowString:0000000000000042 .L0 
C:\Users\Duckb\AppData\Local\Temp\ccEgig1L.s:2938   .text.LCD_ShowString:0000000000000042 .L0 
C:\Users\Duckb\AppData\Local\Temp\ccEgig1L.s:2939   .text.LCD_ShowString:0000000000000042 .L0 
C:\Users\Duckb\AppData\Local\Temp\ccEgig1L.s:2942   .text.LCD_ShowString:0000000000000046 .L0 
C:\Users\Duckb\AppData\Local\Temp\ccEgig1L.s:2943   .text.LCD_ShowString:0000000000000046 .L0 
C:\Users\Duckb\AppData\Local\Temp\ccEgig1L.s:2944   .text.LCD_ShowString:0000000000000046 .L0 
C:\Users\Duckb\AppData\Local\Temp\ccEgig1L.s:2947   .text.LCD_ShowString:0000000000000048 .L0 
GAS LISTING C:\Users\Duckb\AppData\Local\Temp\ccEgig1L.s 			page 146


C:\Users\Duckb\AppData\Local\Temp\ccEgig1L.s:2951   .text.LCD_ShowString:000000000000004a .L0 
C:\Users\Duckb\AppData\Local\Temp\ccEgig1L.s:2952   .text.LCD_ShowString:000000000000004a .L0 
C:\Users\Duckb\AppData\Local\Temp\ccEgig1L.s:2955   .text.LCD_ShowString:000000000000004e .L0 
C:\Users\Duckb\AppData\Local\Temp\ccEgig1L.s:2956   .text.LCD_ShowString:000000000000004e .L0 
C:\Users\Duckb\AppData\Local\Temp\ccEgig1L.s:2960   .text.LCD_ShowString:0000000000000058 .L0 
C:\Users\Duckb\AppData\Local\Temp\ccEgig1L.s:2962   .text.LCD_ShowString:000000000000005a .L0 
C:\Users\Duckb\AppData\Local\Temp\ccEgig1L.s:2966   .text.LCD_ShowString:000000000000005c .L0 
C:\Users\Duckb\AppData\Local\Temp\ccEgig1L.s:2974   .text.LCD_ShowString:0000000000000070 .L0 
C:\Users\Duckb\AppData\Local\Temp\ccEgig1L.s:2975   .text.LCD_ShowString:0000000000000070 .L0 
C:\Users\Duckb\AppData\Local\Temp\ccEgig1L.s:2978   .text.LCD_ShowString:0000000000000072 .L0 
C:\Users\Duckb\AppData\Local\Temp\ccEgig1L.s:2979   .text.LCD_ShowString:0000000000000072 .L0 
C:\Users\Duckb\AppData\Local\Temp\ccEgig1L.s:2982   .text.LCD_ShowString:0000000000000076 .L0 
C:\Users\Duckb\AppData\Local\Temp\ccEgig1L.s:2989   .text.LCD_ShowStr:0000000000000000 LCD_ShowStr
C:\Users\Duckb\AppData\Local\Temp\ccEgig1L.s:2992   .text.LCD_ShowStr:0000000000000000 .L0 
C:\Users\Duckb\AppData\Local\Temp\ccEgig1L.s:2994   .text.LCD_ShowStr:0000000000000000 .L0 
C:\Users\Duckb\AppData\Local\Temp\ccEgig1L.s:2995   .text.LCD_ShowStr:0000000000000000 .L0 
C:\Users\Duckb\AppData\Local\Temp\ccEgig1L.s:2996   .text.LCD_ShowStr:0000000000000000 .L0 
C:\Users\Duckb\AppData\Local\Temp\ccEgig1L.s:2998   .text.LCD_ShowStr:0000000000000002 .L0 
C:\Users\Duckb\AppData\Local\Temp\ccEgig1L.s:3007   .text.LCD_ShowStr:0000000000000012 .L0 
C:\Users\Duckb\AppData\Local\Temp\ccEgig1L.s:3008   .text.LCD_ShowStr:0000000000000012 .L0 
C:\Users\Duckb\AppData\Local\Temp\ccEgig1L.s:3009   .text.LCD_ShowStr:0000000000000012 .L0 
C:\Users\Duckb\AppData\Local\Temp\ccEgig1L.s:3010   .text.LCD_ShowStr:0000000000000012 .L0 
C:\Users\Duckb\AppData\Local\Temp\ccEgig1L.s:3011   .text.LCD_ShowStr:0000000000000012 .L0 
C:\Users\Duckb\AppData\Local\Temp\ccEgig1L.s:3012   .text.LCD_ShowStr:0000000000000012 .L0 
C:\Users\Duckb\AppData\Local\Temp\ccEgig1L.s:3013   .text.LCD_ShowStr:0000000000000012 .L0 
C:\Users\Duckb\AppData\Local\Temp\ccEgig1L.s:3014   .text.LCD_ShowStr:0000000000000012 .L0 
C:\Users\Duckb\AppData\Local\Temp\ccEgig1L.s:3016   .text.LCD_ShowStr:0000000000000012 .L0 
C:\Users\Duckb\AppData\Local\Temp\ccEgig1L.s:3022   .text.LCD_ShowStr:000000000000001c .L0 
C:\Users\Duckb\AppData\Local\Temp\ccEgig1L.s:3024   .text.LCD_ShowStr:0000000000000020 .L0 
C:\Users\Duckb\AppData\Local\Temp\ccEgig1L.s:3028   .text.LCD_ShowStr:0000000000000024 .L0 
C:\Users\Duckb\AppData\Local\Temp\ccEgig1L.s:3030   .text.LCD_ShowStr:0000000000000028 .L0 
C:\Users\Duckb\AppData\Local\Temp\ccEgig1L.s:3033   .text.LCD_ShowStr:000000000000002a .L0 
C:\Users\Duckb\AppData\Local\Temp\ccEgig1L.s:3034   .text.LCD_ShowStr:000000000000002c .L0 
C:\Users\Duckb\AppData\Local\Temp\ccEgig1L.s:3035   .text.LCD_ShowStr:000000000000002c .L0 
C:\Users\Duckb\AppData\Local\Temp\ccEgig1L.s:3037   .text.LCD_ShowStr:000000000000002e .L0 
C:\Users\Duckb\AppData\Local\Temp\ccEgig1L.s:3040   .text.LCD_ShowStr:0000000000000030 .L0 
C:\Users\Duckb\AppData\Local\Temp\ccEgig1L.s:3043   .text.LCD_ShowStr:0000000000000032 .L0 
C:\Users\Duckb\AppData\Local\Temp\ccEgig1L.s:3046   .text.LCD_ShowStr:0000000000000034 .L0 
C:\Users\Duckb\AppData\Local\Temp\ccEgig1L.s:3049   .text.LCD_ShowStr:0000000000000036 .L0 
C:\Users\Duckb\AppData\Local\Temp\ccEgig1L.s:3051   .text.LCD_ShowStr:0000000000000038 .L0 
C:\Users\Duckb\AppData\Local\Temp\ccEgig1L.s:3053   .text.LCD_ShowStr:000000000000003a .L0 
C:\Users\Duckb\AppData\Local\Temp\ccEgig1L.s:3056   .text.LCD_ShowStr:000000000000003c .L0 
C:\Users\Duckb\AppData\Local\Temp\ccEgig1L.s:3061   .text.LCD_ShowStr:000000000000003e .L0 
C:\Users\Duckb\AppData\Local\Temp\ccEgig1L.s:3063   .text.LCD_ShowStr:000000000000003e .L0 
C:\Users\Duckb\AppData\Local\Temp\ccEgig1L.s:3064   .text.LCD_ShowStr:000000000000003e .L0 
C:\Users\Duckb\AppData\Local\Temp\ccEgig1L.s:3067   .text.LCD_ShowStr:0000000000000042 .L0 
C:\Users\Duckb\AppData\Local\Temp\ccEgig1L.s:3068   .text.LCD_ShowStr:0000000000000042 .L0 
C:\Users\Duckb\AppData\Local\Temp\ccEgig1L.s:3069   .text.LCD_ShowStr:0000000000000042 .L0 
C:\Users\Duckb\AppData\Local\Temp\ccEgig1L.s:3072   .text.LCD_ShowStr:0000000000000044 .L0 
C:\Users\Duckb\AppData\Local\Temp\ccEgig1L.s:3076   .text.LCD_ShowStr:0000000000000046 .L0 
C:\Users\Duckb\AppData\Local\Temp\ccEgig1L.s:3077   .text.LCD_ShowStr:0000000000000046 .L0 
C:\Users\Duckb\AppData\Local\Temp\ccEgig1L.s:3079   .text.LCD_ShowStr:000000000000004a .L0 
C:\Users\Duckb\AppData\Local\Temp\ccEgig1L.s:3086   .text.LCD_ShowStr:000000000000005a .L0 
C:\Users\Duckb\AppData\Local\Temp\ccEgig1L.s:3087   .text.LCD_ShowStr:000000000000005a .L0 
C:\Users\Duckb\AppData\Local\Temp\ccEgig1L.s:3090   .text.LCD_ShowStr:000000000000005c .L0 
C:\Users\Duckb\AppData\Local\Temp\ccEgig1L.s:3091   .text.LCD_ShowStr:000000000000005c .L0 
C:\Users\Duckb\AppData\Local\Temp\ccEgig1L.s:3094   .text.LCD_ShowStr:0000000000000060 .L0 
GAS LISTING C:\Users\Duckb\AppData\Local\Temp\ccEgig1L.s 			page 147


C:\Users\Duckb\AppData\Local\Temp\ccEgig1L.s:3101   .text.mypow:0000000000000000 mypow
C:\Users\Duckb\AppData\Local\Temp\ccEgig1L.s:3104   .text.mypow:0000000000000000 .L0 
C:\Users\Duckb\AppData\Local\Temp\ccEgig1L.s:3106   .text.mypow:0000000000000000 .L0 
C:\Users\Duckb\AppData\Local\Temp\ccEgig1L.s:3107   .text.mypow:0000000000000000 .L0 
C:\Users\Duckb\AppData\Local\Temp\ccEgig1L.s:3108   .text.mypow:0000000000000000 .L0 
C:\Users\Duckb\AppData\Local\Temp\ccEgig1L.s:3109   .text.mypow:0000000000000000 .L0 
C:\Users\Duckb\AppData\Local\Temp\ccEgig1L.s:3111   .text.mypow:0000000000000002 .L0 
C:\Users\Duckb\AppData\Local\Temp\ccEgig1L.s:3115   .text.mypow:0000000000000006 .L0 
C:\Users\Duckb\AppData\Local\Temp\ccEgig1L.s:3120   .text.mypow:000000000000000c .L0 
C:\Users\Duckb\AppData\Local\Temp\ccEgig1L.s:3122   .text.mypow:0000000000000010 .L0 
C:\Users\Duckb\AppData\Local\Temp\ccEgig1L.s:3123   .text.mypow:0000000000000010 .L0 
C:\Users\Duckb\AppData\Local\Temp\ccEgig1L.s:3129   .text.mypow:0000000000000014 .L0 
C:\Users\Duckb\AppData\Local\Temp\ccEgig1L.s:3130   .text.mypow:0000000000000014 .L0 
C:\Users\Duckb\AppData\Local\Temp\ccEgig1L.s:3133   .text.mypow:000000000000001a .L0 
C:\Users\Duckb\AppData\Local\Temp\ccEgig1L.s:3140   .text.LCD_ShowNum:0000000000000000 LCD_ShowNum
C:\Users\Duckb\AppData\Local\Temp\ccEgig1L.s:3143   .text.LCD_ShowNum:0000000000000000 .L0 
C:\Users\Duckb\AppData\Local\Temp\ccEgig1L.s:3145   .text.LCD_ShowNum:0000000000000000 .L0 
C:\Users\Duckb\AppData\Local\Temp\ccEgig1L.s:3146   .text.LCD_ShowNum:0000000000000000 .L0 
C:\Users\Duckb\AppData\Local\Temp\ccEgig1L.s:3147   .text.LCD_ShowNum:0000000000000000 .L0 
C:\Users\Duckb\AppData\Local\Temp\ccEgig1L.s:3148   .text.LCD_ShowNum:0000000000000000 .L0 
C:\Users\Duckb\AppData\Local\Temp\ccEgig1L.s:3149   .text.LCD_ShowNum:0000000000000000 .L0 
C:\Users\Duckb\AppData\Local\Temp\ccEgig1L.s:3151   .text.LCD_ShowNum:0000000000000002 .L0 
C:\Users\Duckb\AppData\Local\Temp\ccEgig1L.s:3153   .text.LCD_ShowNum:0000000000000004 .L0 
C:\Users\Duckb\AppData\Local\Temp\ccEgig1L.s:3165   .text.LCD_ShowNum:000000000000001c .L0 
C:\Users\Duckb\AppData\Local\Temp\ccEgig1L.s:3166   .text.LCD_ShowNum:000000000000001c .L0 
C:\Users\Duckb\AppData\Local\Temp\ccEgig1L.s:3167   .text.LCD_ShowNum:000000000000001c .L0 
C:\Users\Duckb\AppData\Local\Temp\ccEgig1L.s:3168   .text.LCD_ShowNum:000000000000001c .L0 
C:\Users\Duckb\AppData\Local\Temp\ccEgig1L.s:3169   .text.LCD_ShowNum:000000000000001c .L0 
C:\Users\Duckb\AppData\Local\Temp\ccEgig1L.s:3170   .text.LCD_ShowNum:000000000000001c .L0 
C:\Users\Duckb\AppData\Local\Temp\ccEgig1L.s:3171   .text.LCD_ShowNum:000000000000001c .L0 
C:\Users\Duckb\AppData\Local\Temp\ccEgig1L.s:3172   .text.LCD_ShowNum:000000000000001c .L0 
C:\Users\Duckb\AppData\Local\Temp\ccEgig1L.s:3173   .text.LCD_ShowNum:000000000000001c .L0 
C:\Users\Duckb\AppData\Local\Temp\ccEgig1L.s:3174   .text.LCD_ShowNum:000000000000001c .L0 
C:\Users\Duckb\AppData\Local\Temp\ccEgig1L.s:3176   .text.LCD_ShowNum:000000000000001c .L0 
C:\Users\Duckb\AppData\Local\Temp\ccEgig1L.s:3182   .text.LCD_ShowNum:0000000000000028 .L0 
C:\Users\Duckb\AppData\Local\Temp\ccEgig1L.s:3184   .text.LCD_ShowNum:000000000000002a .L0 
C:\Users\Duckb\AppData\Local\Temp\ccEgig1L.s:3186   .text.LCD_ShowNum:000000000000002c .L0 
C:\Users\Duckb\AppData\Local\Temp\ccEgig1L.s:3190   .text.LCD_ShowNum:0000000000000030 .L0 
C:\Users\Duckb\AppData\Local\Temp\ccEgig1L.s:3196   .text.LCD_ShowNum:0000000000000032 .L0 
C:\Users\Duckb\AppData\Local\Temp\ccEgig1L.s:3198   .text.LCD_ShowNum:0000000000000036 .L0 
C:\Users\Duckb\AppData\Local\Temp\ccEgig1L.s:3199   .text.LCD_ShowNum:0000000000000038 .L0 
C:\Users\Duckb\AppData\Local\Temp\ccEgig1L.s:3200   .text.LCD_ShowNum:0000000000000038 .L0 
C:\Users\Duckb\AppData\Local\Temp\ccEgig1L.s:3202   .text.LCD_ShowNum:000000000000003a .L0 
C:\Users\Duckb\AppData\Local\Temp\ccEgig1L.s:3204   .text.LCD_ShowNum:000000000000003c .L0 
C:\Users\Duckb\AppData\Local\Temp\ccEgig1L.s:3206   .text.LCD_ShowNum:000000000000003e .L0 
C:\Users\Duckb\AppData\Local\Temp\ccEgig1L.s:3209   .text.LCD_ShowNum:0000000000000040 .L0 
C:\Users\Duckb\AppData\Local\Temp\ccEgig1L.s:3212   .text.LCD_ShowNum:0000000000000042 .L0 
C:\Users\Duckb\AppData\Local\Temp\ccEgig1L.s:3215   .text.LCD_ShowNum:0000000000000044 .L0 
C:\Users\Duckb\AppData\Local\Temp\ccEgig1L.s:3217   .text.LCD_ShowNum:0000000000000046 .L0 
C:\Users\Duckb\AppData\Local\Temp\ccEgig1L.s:3219   .text.LCD_ShowNum:0000000000000048 .L0 
C:\Users\Duckb\AppData\Local\Temp\ccEgig1L.s:3222   .text.LCD_ShowNum:000000000000004a .L0 
C:\Users\Duckb\AppData\Local\Temp\ccEgig1L.s:3225   .text.LCD_ShowNum:000000000000004c .L0 
C:\Users\Duckb\AppData\Local\Temp\ccEgig1L.s:3229   .text.LCD_ShowNum:000000000000004e .L0 
C:\Users\Duckb\AppData\Local\Temp\ccEgig1L.s:3234   .text.LCD_ShowNum:0000000000000050 .L0 
C:\Users\Duckb\AppData\Local\Temp\ccEgig1L.s:3238   .text.LCD_ShowNum:0000000000000050 .L0 
C:\Users\Duckb\AppData\Local\Temp\ccEgig1L.s:3239   .text.LCD_ShowNum:0000000000000050 .L0 
C:\Users\Duckb\AppData\Local\Temp\ccEgig1L.s:3243   .text.LCD_ShowNum:0000000000000054 .L0 
GAS LISTING C:\Users\Duckb\AppData\Local\Temp\ccEgig1L.s 			page 148


C:\Users\Duckb\AppData\Local\Temp\ccEgig1L.s:3248   .text.LCD_ShowNum:000000000000005a .L0 
C:\Users\Duckb\AppData\Local\Temp\ccEgig1L.s:3251   .text.LCD_ShowNum:000000000000005e .L0 
C:\Users\Duckb\AppData\Local\Temp\ccEgig1L.s:3256   .text.LCD_ShowNum:0000000000000064 .L0 
C:\Users\Duckb\AppData\Local\Temp\ccEgig1L.s:3258   .text.LCD_ShowNum:0000000000000068 .L0 
C:\Users\Duckb\AppData\Local\Temp\ccEgig1L.s:3260   .text.LCD_ShowNum:000000000000006c .L0 
C:\Users\Duckb\AppData\Local\Temp\ccEgig1L.s:3263   .text.LCD_ShowNum:0000000000000070 .L0 
C:\Users\Duckb\AppData\Local\Temp\ccEgig1L.s:3264   .text.LCD_ShowNum:0000000000000070 .L0 
C:\Users\Duckb\AppData\Local\Temp\ccEgig1L.s:3266   .text.LCD_ShowNum:0000000000000074 .L0 
C:\Users\Duckb\AppData\Local\Temp\ccEgig1L.s:3268   .text.LCD_ShowNum:0000000000000078 .L0 
C:\Users\Duckb\AppData\Local\Temp\ccEgig1L.s:3269   .text.LCD_ShowNum:0000000000000078 .L0 
C:\Users\Duckb\AppData\Local\Temp\ccEgig1L.s:3271   .text.LCD_ShowNum:000000000000007a .L0 
C:\Users\Duckb\AppData\Local\Temp\ccEgig1L.s:3277   .text.LCD_ShowNum:0000000000000082 .L0 
C:\Users\Duckb\AppData\Local\Temp\ccEgig1L.s:3291   .text.LCD_ShowNum:0000000000000098 .L0 
C:\Users\Duckb\AppData\Local\Temp\ccEgig1L.s:3301   .text.LCD_ShowNum:000000000000009e .L0 
C:\Users\Duckb\AppData\Local\Temp\ccEgig1L.s:3306   .text.LCD_ShowNum:00000000000000a8 .L0 
C:\Users\Duckb\AppData\Local\Temp\ccEgig1L.s:3315   .text.LCD_ShowNum1:0000000000000000 LCD_ShowNum1
C:\Users\Duckb\AppData\Local\Temp\ccEgig1L.s:3318   .text.LCD_ShowNum1:0000000000000000 .L0 
C:\Users\Duckb\AppData\Local\Temp\ccEgig1L.s:3320   .text.LCD_ShowNum1:0000000000000000 .L0 
C:\Users\Duckb\AppData\Local\Temp\ccEgig1L.s:3321   .text.LCD_ShowNum1:0000000000000000 .L0 
C:\Users\Duckb\AppData\Local\Temp\ccEgig1L.s:3322   .text.LCD_ShowNum1:0000000000000000 .L0 
C:\Users\Duckb\AppData\Local\Temp\ccEgig1L.s:3323   .text.LCD_ShowNum1:0000000000000000 .L0 
C:\Users\Duckb\AppData\Local\Temp\ccEgig1L.s:3324   .text.LCD_ShowNum1:0000000000000000 .L0 
C:\Users\Duckb\AppData\Local\Temp\ccEgig1L.s:3326   .text.LCD_ShowNum1:0000000000000002 .L0 
C:\Users\Duckb\AppData\Local\Temp\ccEgig1L.s:3328   .text.LCD_ShowNum1:0000000000000002 .L0 
C:\Users\Duckb\AppData\Local\Temp\ccEgig1L.s:3330   .text.LCD_ShowNum1:0000000000000006 .L0 
C:\Users\Duckb\AppData\Local\Temp\ccEgig1L.s:3331   .text.LCD_ShowNum1:0000000000000008 .L0 
C:\Users\Duckb\AppData\Local\Temp\ccEgig1L.s:3334   .text.LCD_ShowNum1:000000000000000a .L0 
C:\Users\Duckb\AppData\Local\Temp\ccEgig1L.s:3337   .text.LCD_ShowNum1:000000000000000e .L0 
C:\Users\Duckb\AppData\Local\Temp\ccEgig1L.s:3338   .text.LCD_ShowNum1:0000000000000010 .L0 
C:\Users\Duckb\AppData\Local\Temp\ccEgig1L.s:3341   .text.LCD_ShowNum1:0000000000000012 .L0 
C:\Users\Duckb\AppData\Local\Temp\ccEgig1L.s:3344   .text.LCD_ShowNum1:0000000000000014 .L0 
C:\Users\Duckb\AppData\Local\Temp\ccEgig1L.s:3351   .text.LCD_ShowNum1:0000000000000022 .L0 
C:\Users\Duckb\AppData\Local\Temp\ccEgig1L.s:3352   .text.LCD_ShowNum1:0000000000000022 .L0 
C:\Users\Duckb\AppData\Local\Temp\ccEgig1L.s:3353   .text.LCD_ShowNum1:0000000000000022 .L0 
C:\Users\Duckb\AppData\Local\Temp\ccEgig1L.s:3354   .text.LCD_ShowNum1:0000000000000022 .L0 
C:\Users\Duckb\AppData\Local\Temp\ccEgig1L.s:3355   .text.LCD_ShowNum1:0000000000000022 .L0 
C:\Users\Duckb\AppData\Local\Temp\ccEgig1L.s:3356   .text.LCD_ShowNum1:0000000000000022 .L0 
C:\Users\Duckb\AppData\Local\Temp\ccEgig1L.s:3357   .text.LCD_ShowNum1:0000000000000022 .L0 
C:\Users\Duckb\AppData\Local\Temp\ccEgig1L.s:3361   .text.LCD_ShowNum1:0000000000000028 .L0 
C:\Users\Duckb\AppData\Local\Temp\ccEgig1L.s:3363   .text.LCD_ShowNum1:0000000000000028 .L0 
C:\Users\Duckb\AppData\Local\Temp\ccEgig1L.s:3366   .text.LCD_ShowNum1:0000000000000030 .L0 
C:\Users\Duckb\AppData\Local\Temp\ccEgig1L.s:3371   .text.LCD_ShowNum1:000000000000003a .L0 
C:\Users\Duckb\AppData\Local\Temp\ccEgig1L.s:3372   .text.LCD_ShowNum1:000000000000003a .L0 
C:\Users\Duckb\AppData\Local\Temp\ccEgig1L.s:3376   .text.LCD_ShowNum1:000000000000003c .L0 
C:\Users\Duckb\AppData\Local\Temp\ccEgig1L.s:3378   .text.LCD_ShowNum1:0000000000000040 .L0 
C:\Users\Duckb\AppData\Local\Temp\ccEgig1L.s:3384   .text.LCD_ShowNum1:0000000000000042 .L0 
C:\Users\Duckb\AppData\Local\Temp\ccEgig1L.s:3386   .text.LCD_ShowNum1:0000000000000046 .L0 
C:\Users\Duckb\AppData\Local\Temp\ccEgig1L.s:3387   .text.LCD_ShowNum1:0000000000000048 .L0 
C:\Users\Duckb\AppData\Local\Temp\ccEgig1L.s:3388   .text.LCD_ShowNum1:0000000000000048 .L0 
C:\Users\Duckb\AppData\Local\Temp\ccEgig1L.s:3390   .text.LCD_ShowNum1:000000000000004a .L0 
C:\Users\Duckb\AppData\Local\Temp\ccEgig1L.s:3393   .text.LCD_ShowNum1:000000000000004c .L0 
C:\Users\Duckb\AppData\Local\Temp\ccEgig1L.s:3396   .text.LCD_ShowNum1:000000000000004e .L0 
C:\Users\Duckb\AppData\Local\Temp\ccEgig1L.s:3398   .text.LCD_ShowNum1:0000000000000050 .L0 
C:\Users\Duckb\AppData\Local\Temp\ccEgig1L.s:3401   .text.LCD_ShowNum1:0000000000000052 .L0 
C:\Users\Duckb\AppData\Local\Temp\ccEgig1L.s:3404   .text.LCD_ShowNum1:0000000000000054 .L0 
C:\Users\Duckb\AppData\Local\Temp\ccEgig1L.s:3407   .text.LCD_ShowNum1:0000000000000056 .L0 
C:\Users\Duckb\AppData\Local\Temp\ccEgig1L.s:3409   .text.LCD_ShowNum1:0000000000000058 .L0 
GAS LISTING C:\Users\Duckb\AppData\Local\Temp\ccEgig1L.s 			page 149


C:\Users\Duckb\AppData\Local\Temp\ccEgig1L.s:3412   .text.LCD_ShowNum1:000000000000005a .L0 
C:\Users\Duckb\AppData\Local\Temp\ccEgig1L.s:3415   .text.LCD_ShowNum1:000000000000005c .L0 
C:\Users\Duckb\AppData\Local\Temp\ccEgig1L.s:3420   .text.LCD_ShowNum1:000000000000005e .L0 
C:\Users\Duckb\AppData\Local\Temp\ccEgig1L.s:3422   .text.LCD_ShowNum1:000000000000005e .L0 
C:\Users\Duckb\AppData\Local\Temp\ccEgig1L.s:3423   .text.LCD_ShowNum1:000000000000005e .L0 
C:\Users\Duckb\AppData\Local\Temp\ccEgig1L.s:3430   .text.LCD_ShowNum1:000000000000006a .L0 
C:\Users\Duckb\AppData\Local\Temp\ccEgig1L.s:3431   .text.LCD_ShowNum1:000000000000006a .L0 
C:\Users\Duckb\AppData\Local\Temp\ccEgig1L.s:3432   .text.LCD_ShowNum1:000000000000006a .L0 
C:\Users\Duckb\AppData\Local\Temp\ccEgig1L.s:3436   .text.LCD_ShowNum1:000000000000006c .L0 
C:\Users\Duckb\AppData\Local\Temp\ccEgig1L.s:3441   .text.LCD_ShowNum1:0000000000000072 .L0 
C:\Users\Duckb\AppData\Local\Temp\ccEgig1L.s:3446   .text.LCD_ShowNum1:0000000000000076 .L0 
C:\Users\Duckb\AppData\Local\Temp\ccEgig1L.s:3447   .text.LCD_ShowNum1:0000000000000076 .L0 
C:\Users\Duckb\AppData\Local\Temp\ccEgig1L.s:3449   .text.LCD_ShowNum1:000000000000007a .L0 
C:\Users\Duckb\AppData\Local\Temp\ccEgig1L.s:3451   .text.LCD_ShowNum1:000000000000007e .L0 
C:\Users\Duckb\AppData\Local\Temp\ccEgig1L.s:3454   .text.LCD_ShowNum1:0000000000000082 .L0 
C:\Users\Duckb\AppData\Local\Temp\ccEgig1L.s:3455   .text.LCD_ShowNum1:0000000000000082 .L0 
C:\Users\Duckb\AppData\Local\Temp\ccEgig1L.s:3457   .text.LCD_ShowNum1:0000000000000086 .L0 
C:\Users\Duckb\AppData\Local\Temp\ccEgig1L.s:3461   .text.LCD_ShowNum1:000000000000008c .L0 
C:\Users\Duckb\AppData\Local\Temp\ccEgig1L.s:3467   .text.LCD_ShowNum1:0000000000000098 .L0 
C:\Users\Duckb\AppData\Local\Temp\ccEgig1L.s:3470   .text.LCD_ShowNum1:000000000000009a .L0 
C:\Users\Duckb\AppData\Local\Temp\ccEgig1L.s:3473   .text.LCD_ShowNum1:00000000000000a2 .L0 
C:\Users\Duckb\AppData\Local\Temp\ccEgig1L.s:3474   .text.LCD_ShowNum1:00000000000000a2 .L0 
C:\Users\Duckb\AppData\Local\Temp\ccEgig1L.s:3475   .text.LCD_ShowNum1:00000000000000a2 .L0 
C:\Users\Duckb\AppData\Local\Temp\ccEgig1L.s:3479   .text.LCD_ShowNum1:00000000000000a6 .L0 
C:\Users\Duckb\AppData\Local\Temp\ccEgig1L.s:3480   .text.LCD_ShowNum1:00000000000000a6 .L0 
C:\Users\Duckb\AppData\Local\Temp\ccEgig1L.s:3482   .text.LCD_ShowNum1:00000000000000aa .L0 
C:\Users\Duckb\AppData\Local\Temp\ccEgig1L.s:3488   .text.LCD_ShowNum1:00000000000000b6 .L0 
C:\Users\Duckb\AppData\Local\Temp\ccEgig1L.s:3491   .text.LCD_ShowNum1:00000000000000b8 .L0 
C:\Users\Duckb\AppData\Local\Temp\ccEgig1L.s:3494   .text.LCD_ShowNum1:00000000000000c0 .L0 
C:\Users\Duckb\AppData\Local\Temp\ccEgig1L.s:3502   .text.LCD_ShowNum1:00000000000000c6 .L0 
C:\Users\Duckb\AppData\Local\Temp\ccEgig1L.s:3503   .text.LCD_ShowNum1:00000000000000c6 .L0 
C:\Users\Duckb\AppData\Local\Temp\ccEgig1L.s:3508   .text.LCD_ShowNum1:00000000000000cc .L0 
C:\Users\Duckb\AppData\Local\Temp\ccEgig1L.s:3515   .text.LCD_ShowPicture:0000000000000000 LCD_ShowPicture
C:\Users\Duckb\AppData\Local\Temp\ccEgig1L.s:3518   .text.LCD_ShowPicture:0000000000000000 .L0 
C:\Users\Duckb\AppData\Local\Temp\ccEgig1L.s:3520   .text.LCD_ShowPicture:0000000000000000 .L0 
C:\Users\Duckb\AppData\Local\Temp\ccEgig1L.s:3521   .text.LCD_ShowPicture:0000000000000000 .L0 
C:\Users\Duckb\AppData\Local\Temp\ccEgig1L.s:3522   .text.LCD_ShowPicture:0000000000000000 .L0 
C:\Users\Duckb\AppData\Local\Temp\ccEgig1L.s:3523   .text.LCD_ShowPicture:0000000000000000 .L0 
C:\Users\Duckb\AppData\Local\Temp\ccEgig1L.s:3525   .text.LCD_ShowPicture:0000000000000002 .L0 
C:\Users\Duckb\AppData\Local\Temp\ccEgig1L.s:3528   .text.LCD_ShowPicture:0000000000000004 .L0 
C:\Users\Duckb\AppData\Local\Temp\ccEgig1L.s:3529   .text.LCD_ShowPicture:0000000000000008 .L0 
C:\Users\Duckb\AppData\Local\Temp\ccEgig1L.s:3531   .text.LCD_ShowPicture:0000000000000008 .L0 
C:\Users\Duckb\AppData\Local\Temp\ccEgig1L.s:3533   .text.LCD_ShowPicture:000000000000000c .L0 
C:\Users\Duckb\AppData\Local\Temp\ccEgig1L.s:3535   .text.LCD_ShowPicture:000000000000000e .L0 
C:\Users\Duckb\AppData\Local\Temp\ccEgig1L.s:3538   .text.LCD_ShowPicture:0000000000000014 .L0 
C:\Users\Duckb\AppData\Local\Temp\ccEgig1L.s:3541   .text.LCD_ShowPicture:000000000000001a .L0 
C:\Users\Duckb\AppData\Local\Temp\ccEgig1L.s:3542   .text.LCD_ShowPicture:000000000000001a .L0 
C:\Users\Duckb\AppData\Local\Temp\ccEgig1L.s:3543   .text.LCD_ShowPicture:000000000000001a .L0 
C:\Users\Duckb\AppData\Local\Temp\ccEgig1L.s:3545   .text.LCD_ShowPicture:000000000000001a .L0 
C:\Users\Duckb\AppData\Local\Temp\ccEgig1L.s:3547   .text.LCD_ShowPicture:000000000000001c .L0 
C:\Users\Duckb\AppData\Local\Temp\ccEgig1L.s:3549   .text.LCD_ShowPicture:000000000000001e .L0 
C:\Users\Duckb\AppData\Local\Temp\ccEgig1L.s:3552   .text.LCD_ShowPicture:0000000000000026 .L0 
C:\Users\Duckb\AppData\Local\Temp\ccEgig1L.s:3555   .text.LCD_ShowPicture:0000000000000028 .L0 
C:\Users\Duckb\AppData\Local\Temp\ccEgig1L.s:3557   .text.LCD_ShowPicture:0000000000000028 .L0 
C:\Users\Duckb\AppData\Local\Temp\ccEgig1L.s:3558   .text.LCD_ShowPicture:0000000000000028 .L0 
C:\Users\Duckb\AppData\Local\Temp\ccEgig1L.s:3560   .text.LCD_ShowPicture:000000000000002c .L0 
C:\Users\Duckb\AppData\Local\Temp\ccEgig1L.s:3561   .text.LCD_ShowPicture:000000000000002e .L0 
GAS LISTING C:\Users\Duckb\AppData\Local\Temp\ccEgig1L.s 			page 150


C:\Users\Duckb\AppData\Local\Temp\ccEgig1L.s:3562   .text.LCD_ShowPicture:000000000000002e .L0 
C:\Users\Duckb\AppData\Local\Temp\ccEgig1L.s:3564   .text.LCD_ShowPicture:0000000000000030 .L0 
C:\Users\Duckb\AppData\Local\Temp\ccEgig1L.s:3567   .text.LCD_ShowPicture:0000000000000032 .L0 
C:\Users\Duckb\AppData\Local\Temp\ccEgig1L.s:3570   .text.LCD_ShowPicture:0000000000000034 .L0 
C:\Users\Duckb\AppData\Local\Temp\ccEgig1L.s:3574   .text.LCD_ShowPicture:0000000000000036 .L0 
C:\Users\Duckb\AppData\Local\Temp\ccEgig1L.s:3579   .text.LCD_ShowPicture:0000000000000038 .L0 
C:\Users\Duckb\AppData\Local\Temp\ccEgig1L.s:3581   .text.LCD_ShowPicture:0000000000000038 .L0 
C:\Users\Duckb\AppData\Local\Temp\ccEgig1L.s:3584   .text.LCD_ShowPicture:0000000000000040 .L0 
C:\Users\Duckb\AppData\Local\Temp\ccEgig1L.s:3587   .text.LCD_ShowPicture:0000000000000042 .L0 
C:\Users\Duckb\AppData\Local\Temp\ccEgig1L.s:3590   .text.LCD_ShowPicture:000000000000004c .L0 
C:\Users\Duckb\AppData\Local\Temp\ccEgig1L.s:3606   .bss.queue:0000000000000000 queue
C:\Users\Duckb\AppData\Local\Temp\ccEgig1L.s:6038   .sbss.w:0000000000000000 w
C:\Users\Duckb\AppData\Local\Temp\ccEgig1L.s:6031   .sbss.r:0000000000000000 r
C:\Users\Duckb\AppData\Local\Temp\ccEgig1L.s:6024   .sbss.lcd_conf:0000000000000000 lcd_conf
C:\Users\Duckb\AppData\Local\Temp\ccEgig1L.s:3613   .data.Hzk16:0000000000000000 Hzk16
C:\Users\Duckb\AppData\Local\Temp\ccEgig1L.s:4493   .rodata.asc2_1608:0000000000000000 asc2_1608
C:\Users\Duckb\AppData\Local\Temp\ccEgig1L.s:3843   .data.Hzk32:0000000000000000 Hzk32
C:\Users\Duckb\AppData\Local\Temp\ccEgig1L.s:3603   .bss.queue:0000000000000000 .LANCHOR2
C:\Users\Duckb\AppData\Local\Temp\ccEgig1L.s:3610   .data.Hzk16:0000000000000000 .LANCHOR4
C:\Users\Duckb\AppData\Local\Temp\ccEgig1L.s:3840   .data.Hzk32:0000000000000000 .LANCHOR5
C:\Users\Duckb\AppData\Local\Temp\ccEgig1L.s:4490   .rodata.asc2_1608:0000000000000000 .LANCHOR6
C:\Users\Duckb\AppData\Local\Temp\ccEgig1L.s:6021   .sbss.lcd_conf:0000000000000000 .LANCHOR3
C:\Users\Duckb\AppData\Local\Temp\ccEgig1L.s:6028   .sbss.r:0000000000000000 .LANCHOR0
C:\Users\Duckb\AppData\Local\Temp\ccEgig1L.s:6035   .sbss.w:0000000000000000 .LANCHOR1
C:\Users\Duckb\AppData\Local\Temp\ccEgig1L.s:162    .text.lcd_delay_1ms:00000000000000ce .L0 
C:\Users\Duckb\AppData\Local\Temp\ccEgig1L.s:303    .text.LCD_WR_Queue:00000000000000c2 .L0 
C:\Users\Duckb\AppData\Local\Temp\ccEgig1L.s:352    .text.LCD_Wait_On_Queue:0000000000000030 .L0 
C:\Users\Duckb\AppData\Local\Temp\ccEgig1L.s:431    .text.LCD_Write_Bus:0000000000000058 .L0 
C:\Users\Duckb\AppData\Local\Temp\ccEgig1L.s:527    .text.LCD_Writ_Bus:0000000000000078 .L0 
C:\Users\Duckb\AppData\Local\Temp\ccEgig1L.s:544    .text.LCD_WR_DATA8:000000000000000c .L0 
C:\Users\Duckb\AppData\Local\Temp\ccEgig1L.s:593    .text.LCD_WR_DATA:000000000000002c .L0 
C:\Users\Duckb\AppData\Local\Temp\ccEgig1L.s:608    .text.LCD_WR_REG:0000000000000008 .L0 
C:\Users\Duckb\AppData\Local\Temp\ccEgig1L.s:734    .text.LCD_Address_Set:0000000000000082 .L0 
C:\Users\Duckb\AppData\Local\Temp\ccEgig1L.s:820    .text.spi_config:000000000000006c .L0 
C:\Users\Duckb\AppData\Local\Temp\ccEgig1L.s:872    .text.Lcd_SetType:0000000000000026 .L0 
C:\Users\Duckb\AppData\Local\Temp\ccEgig1L.s:1681   .text.Lcd_Init:0000000000000464 .L0 
C:\Users\Duckb\AppData\Local\Temp\ccEgig1L.s:1755   .text.LCD_Clear:0000000000000046 .L0 
C:\Users\Duckb\AppData\Local\Temp\ccEgig1L.s:1895   .text.LCD_ShowChinese:0000000000000098 .L0 
C:\Users\Duckb\AppData\Local\Temp\ccEgig1L.s:1941   .text.LCD_DrawPoint:0000000000000024 .L0 
C:\Users\Duckb\AppData\Local\Temp\ccEgig1L.s:2034   .text.LCD_Fill:0000000000000050 .L0 
C:\Users\Duckb\AppData\Local\Temp\ccEgig1L.s:2057   .text.LCD_DrawPoint_big:0000000000000016 .L0 
C:\Users\Duckb\AppData\Local\Temp\ccEgig1L.s:2259   .text.LCD_DrawLine:00000000000000a4 .L0 
C:\Users\Duckb\AppData\Local\Temp\ccEgig1L.s:2351   .text.LCD_DrawRectangle:0000000000000066 .L0 
C:\Users\Duckb\AppData\Local\Temp\ccEgig1L.s:2530   .text.Draw_Circle:00000000000000f2 .L0 
C:\Users\Duckb\AppData\Local\Temp\ccEgig1L.s:2739   .text.LCD_ShowChar:00000000000000de .L0 
C:\Users\Duckb\AppData\Local\Temp\ccEgig1L.s:2858   .text.LCD_DeleteChar:0000000000000066 .L0 
C:\Users\Duckb\AppData\Local\Temp\ccEgig1L.s:2985   .text.LCD_ShowString:0000000000000076 .L0 
C:\Users\Duckb\AppData\Local\Temp\ccEgig1L.s:3097   .text.LCD_ShowStr:0000000000000060 .L0 
C:\Users\Duckb\AppData\Local\Temp\ccEgig1L.s:3136   .text.mypow:000000000000001a .L0 
C:\Users\Duckb\AppData\Local\Temp\ccEgig1L.s:3311   .text.LCD_ShowNum:00000000000000a8 .L0 
C:\Users\Duckb\AppData\Local\Temp\ccEgig1L.s:3511   .text.LCD_ShowNum1:00000000000000cc .L0 
C:\Users\Duckb\AppData\Local\Temp\ccEgig1L.s:3601   .text.LCD_ShowPicture:000000000000004c .L0 
                     .debug_frame:0000000000000000 .L0 
C:\Users\Duckb\AppData\Local\Temp\ccEgig1L.s:6016   .rodata.lcd_delay_1ms.cst8:0000000000000000 .LC0
C:\Users\Duckb\AppData\Local\Temp\ccEgig1L.s:72     .text.lcd_delay_1ms:000000000000003a .L3
C:\Users\Duckb\AppData\Local\Temp\ccEgig1L.s:60     .text.lcd_delay_1ms:0000000000000026 .L2
C:\Users\Duckb\AppData\Local\Temp\ccEgig1L.s:79     .text.lcd_delay_1ms:000000000000004a .L4
GAS LISTING C:\Users\Duckb\AppData\Local\Temp\ccEgig1L.s 			page 151


C:\Users\Duckb\AppData\Local\Temp\ccEgig1L.s:277    .text.LCD_WR_Queue:00000000000000ac .L8
C:\Users\Duckb\AppData\Local\Temp\ccEgig1L.s:253    .text.LCD_WR_Queue:0000000000000098 .L7
C:\Users\Duckb\AppData\Local\Temp\ccEgig1L.s:268    .text.LCD_WR_Queue:00000000000000a2 .L10
C:\Users\Duckb\AppData\Local\Temp\ccEgig1L.s:228    .text.LCD_WR_Queue:000000000000006c .L11
C:\Users\Duckb\AppData\Local\Temp\ccEgig1L.s:342    .text.LCD_Wait_On_Queue:0000000000000026 .L18
C:\Users\Duckb\AppData\Local\Temp\ccEgig1L.s:325    .text.LCD_Wait_On_Queue:0000000000000010 .L17
C:\Users\Duckb\AppData\Local\Temp\ccEgig1L.s:419    .text.LCD_Write_Bus:000000000000004a .L22
C:\Users\Duckb\AppData\Local\Temp\ccEgig1L.s:381    .text.LCD_Write_Bus:0000000000000016 .L21
C:\Users\Duckb\AppData\Local\Temp\ccEgig1L.s:469    .text.LCD_Writ_Bus:0000000000000022 .L25
C:\Users\Duckb\AppData\Local\Temp\ccEgig1L.s:489    .text.LCD_Writ_Bus:0000000000000046 .L26
C:\Users\Duckb\AppData\Local\Temp\ccEgig1L.s:850    .text.Lcd_SetType:0000000000000012 .L41
C:\Users\Duckb\AppData\Local\Temp\ccEgig1L.s:845    .text.Lcd_SetType:0000000000000010 .L40
C:\Users\Duckb\AppData\Local\Temp\ccEgig1L.s:840    .text.Lcd_SetType:000000000000000c .L43
C:\Users\Duckb\AppData\Local\Temp\ccEgig1L.s:900    .text.Lcd_Init:000000000000001e .L45
C:\Users\Duckb\AppData\Local\Temp\ccEgig1L.s:997    .text.Lcd_Init:00000000000000ea .L49
C:\Users\Duckb\AppData\Local\Temp\ccEgig1L.s:1723   .text.LCD_Clear:0000000000000028 .L52
C:\Users\Duckb\AppData\Local\Temp\ccEgig1L.s:1719   .text.LCD_Clear:0000000000000024 .L51
C:\Users\Duckb\AppData\Local\Temp\ccEgig1L.s:1855   .text.LCD_ShowChinese:0000000000000068 .L62
C:\Users\Duckb\AppData\Local\Temp\ccEgig1L.s:1862   .text.LCD_ShowChinese:0000000000000072 .L63
C:\Users\Duckb\AppData\Local\Temp\ccEgig1L.s:1797   .text.LCD_ShowChinese:0000000000000026 .L57
C:\Users\Duckb\AppData\Local\Temp\ccEgig1L.s:1880   .text.LCD_ShowChinese:0000000000000086 .L66
C:\Users\Duckb\AppData\Local\Temp\ccEgig1L.s:1864   .text.LCD_ShowChinese:0000000000000074 .L61
C:\Users\Duckb\AppData\Local\Temp\ccEgig1L.s:1829   .text.LCD_ShowChinese:0000000000000052 .L58
C:\Users\Duckb\AppData\Local\Temp\ccEgig1L.s:2027   .text.LCD_Fill:000000000000004c .L73
C:\Users\Duckb\AppData\Local\Temp\ccEgig1L.s:2009   .text.LCD_Fill:0000000000000038 .L71
C:\Users\Duckb\AppData\Local\Temp\ccEgig1L.s:1980   .text.LCD_Fill:0000000000000022 .L70
C:\Users\Duckb\AppData\Local\Temp\ccEgig1L.s:2019   .text.LCD_Fill:0000000000000044 .L72
C:\Users\Duckb\AppData\Local\Temp\ccEgig1L.s:2132   .text.LCD_DrawLine:0000000000000036 .L77
C:\Users\Duckb\AppData\Local\Temp\ccEgig1L.s:2152   .text.LCD_DrawLine:0000000000000046 .L78
C:\Users\Duckb\AppData\Local\Temp\ccEgig1L.s:2157   .text.LCD_DrawLine:000000000000004e .L79
C:\Users\Duckb\AppData\Local\Temp\ccEgig1L.s:2198   .text.LCD_DrawLine:0000000000000078 .L80
C:\Users\Duckb\AppData\Local\Temp\ccEgig1L.s:2210   .text.LCD_DrawLine:0000000000000082 .L81
C:\Users\Duckb\AppData\Local\Temp\ccEgig1L.s:2169   .text.LCD_DrawLine:0000000000000058 .L82
C:\Users\Duckb\AppData\Local\Temp\ccEgig1L.s:2488   .text.Draw_Circle:00000000000000d0 .L94
C:\Users\Duckb\AppData\Local\Temp\ccEgig1L.s:2406   .text.Draw_Circle:000000000000002a .L95
C:\Users\Duckb\AppData\Local\Temp\ccEgig1L.s:2721   .text.LCD_ShowChar:00000000000000dc .L117
C:\Users\Duckb\AppData\Local\Temp\ccEgig1L.s:2648   .text.LCD_ShowChar:000000000000008e .L98
C:\Users\Duckb\AppData\Local\Temp\ccEgig1L.s:2676   .text.LCD_ShowChar:00000000000000a4 .L101
C:\Users\Duckb\AppData\Local\Temp\ccEgig1L.s:2627   .text.LCD_ShowChar:0000000000000074 .L120
C:\Users\Duckb\AppData\Local\Temp\ccEgig1L.s:2615   .text.LCD_ShowChar:0000000000000068 .L104
C:\Users\Duckb\AppData\Local\Temp\ccEgig1L.s:2604   .text.LCD_ShowChar:000000000000005c .L105
C:\Users\Duckb\AppData\Local\Temp\ccEgig1L.s:2706   .text.LCD_ShowChar:00000000000000c8 .L106
C:\Users\Duckb\AppData\Local\Temp\ccEgig1L.s:2695   .text.LCD_ShowChar:00000000000000b2 .L107
C:\Users\Duckb\AppData\Local\Temp\ccEgig1L.s:2686   .text.LCD_ShowChar:00000000000000ac .L108
C:\Users\Duckb\AppData\Local\Temp\ccEgig1L.s:2846   .text.LCD_DeleteChar:0000000000000064 .L121
C:\Users\Duckb\AppData\Local\Temp\ccEgig1L.s:2839   .text.LCD_DeleteChar:0000000000000060 .L123
C:\Users\Duckb\AppData\Local\Temp\ccEgig1L.s:2791   .text.LCD_DeleteChar:000000000000002a .L126
C:\Users\Duckb\AppData\Local\Temp\ccEgig1L.s:2788   .text.LCD_DeleteChar:0000000000000028 .L124
C:\Users\Duckb\AppData\Local\Temp\ccEgig1L.s:2781   .text.LCD_DeleteChar:0000000000000020 .L132
C:\Users\Duckb\AppData\Local\Temp\ccEgig1L.s:2934   .text.LCD_ShowString:0000000000000042 .L137
C:\Users\Duckb\AppData\Local\Temp\ccEgig1L.s:2949   .text.LCD_ShowString:000000000000004a .L135
C:\Users\Duckb\AppData\Local\Temp\ccEgig1L.s:2964   .text.LCD_ShowString:000000000000005c .L136
C:\Users\Duckb\AppData\Local\Temp\ccEgig1L.s:2903   .text.LCD_ShowString:0000000000000028 .L134
C:\Users\Duckb\AppData\Local\Temp\ccEgig1L.s:3059   .text.LCD_ShowStr:000000000000003e .L143
C:\Users\Duckb\AppData\Local\Temp\ccEgig1L.s:3074   .text.LCD_ShowStr:0000000000000046 .L141
C:\Users\Duckb\AppData\Local\Temp\ccEgig1L.s:3031   .text.LCD_ShowStr:000000000000002a .L139
C:\Users\Duckb\AppData\Local\Temp\ccEgig1L.s:3026   .text.LCD_ShowStr:0000000000000024 .L140
GAS LISTING C:\Users\Duckb\AppData\Local\Temp\ccEgig1L.s 			page 152


C:\Users\Duckb\AppData\Local\Temp\ccEgig1L.s:3127   .text.mypow:0000000000000014 .L147
C:\Users\Duckb\AppData\Local\Temp\ccEgig1L.s:3113   .text.mypow:0000000000000006 .L146
C:\Users\Duckb\AppData\Local\Temp\ccEgig1L.s:3286   .text.LCD_ShowNum:0000000000000096 .L155
C:\Users\Duckb\AppData\Local\Temp\ccEgig1L.s:3232   .text.LCD_ShowNum:0000000000000050 .L150
C:\Users\Duckb\AppData\Local\Temp\ccEgig1L.s:3299   .text.LCD_ShowNum:000000000000009e .L151
C:\Users\Duckb\AppData\Local\Temp\ccEgig1L.s:3294   .text.LCD_ShowNum:000000000000009c .L154
C:\Users\Duckb\AppData\Local\Temp\ccEgig1L.s:3192   .text.LCD_ShowNum:0000000000000032 .L149
C:\Users\Duckb\AppData\Local\Temp\ccEgig1L.s:3241   .text.LCD_ShowNum:0000000000000054 .L153
C:\Users\Duckb\AppData\Local\Temp\ccEgig1L.s:3275   .text.LCD_ShowNum:0000000000000082 .L157
C:\Users\Duckb\AppData\Local\Temp\ccEgig1L.s:4486   .rodata.LCD_ShowNum1.cst4:0000000000000000 .LC1
C:\Users\Duckb\AppData\Local\Temp\ccEgig1L.s:3418   .text.LCD_ShowNum1:000000000000005e .L163
C:\Users\Duckb\AppData\Local\Temp\ccEgig1L.s:3498   .text.LCD_ShowNum1:00000000000000c6 .L161
C:\Users\Duckb\AppData\Local\Temp\ccEgig1L.s:3477   .text.LCD_ShowNum1:00000000000000a6 .L162
C:\Users\Duckb\AppData\Local\Temp\ccEgig1L.s:3380   .text.LCD_ShowNum1:0000000000000042 .L159
C:\Users\Duckb\AppData\Local\Temp\ccEgig1L.s:3434   .text.LCD_ShowNum1:000000000000006c .L160
C:\Users\Duckb\AppData\Local\Temp\ccEgig1L.s:3577   .text.LCD_ShowPicture:0000000000000038 .L167
C:\Users\Duckb\AppData\Local\Temp\ccEgig1L.s:3556   .text.LCD_ShowPicture:0000000000000028 .L166
C:\Users\Duckb\AppData\Local\Temp\ccEgig1L.s:12369  .debug_abbrev:0000000000000000 .Ldebug_abbrev0
C:\Users\Duckb\AppData\Local\Temp\ccEgig1L.s:17346  .debug_str:0000000000000172 .LASF252
C:\Users\Duckb\AppData\Local\Temp\ccEgig1L.s:17562  .debug_str:000000000000067d .LASF253
C:\Users\Duckb\AppData\Local\Temp\ccEgig1L.s:17404  .debug_str:000000000000030f .LASF254
C:\Users\Duckb\AppData\Local\Temp\ccEgig1L.s:17154  .debug_ranges:0000000000000000 .Ldebug_ranges0
C:\Users\Duckb\AppData\Local\Temp\ccEgig1L.s:17272  .debug_line:0000000000000000 .Ldebug_line0
C:\Users\Duckb\AppData\Local\Temp\ccEgig1L.s:17556  .debug_str:000000000000065c .LASF0
C:\Users\Duckb\AppData\Local\Temp\ccEgig1L.s:17564  .debug_str:0000000000000683 .LASF1
C:\Users\Duckb\AppData\Local\Temp\ccEgig1L.s:17766  .debug_str:0000000000000a55 .LASF2
C:\Users\Duckb\AppData\Local\Temp\ccEgig1L.s:17522  .debug_str:00000000000005c3 .LASF3
C:\Users\Duckb\AppData\Local\Temp\ccEgig1L.s:17608  .debug_str:0000000000000756 .LASF4
C:\Users\Duckb\AppData\Local\Temp\ccEgig1L.s:17688  .debug_str:00000000000008fc .LASF6
C:\Users\Duckb\AppData\Local\Temp\ccEgig1L.s:17396  .debug_str:00000000000002ea .LASF5
C:\Users\Duckb\AppData\Local\Temp\ccEgig1L.s:17360  .debug_str:000000000000022e .LASF7
C:\Users\Duckb\AppData\Local\Temp\ccEgig1L.s:17408  .debug_str:0000000000000378 .LASF8
C:\Users\Duckb\AppData\Local\Temp\ccEgig1L.s:17702  .debug_str:0000000000000934 .LASF9
C:\Users\Duckb\AppData\Local\Temp\ccEgig1L.s:17372  .debug_str:000000000000026d .LASF10
C:\Users\Duckb\AppData\Local\Temp\ccEgig1L.s:17514  .debug_str:000000000000059b .LASF11
C:\Users\Duckb\AppData\Local\Temp\ccEgig1L.s:17470  .debug_str:0000000000000499 .LASF12
C:\Users\Duckb\AppData\Local\Temp\ccEgig1L.s:17466  .debug_str:0000000000000489 .LASF13
C:\Users\Duckb\AppData\Local\Temp\ccEgig1L.s:17636  .debug_str:00000000000007da .LASF14
C:\Users\Duckb\AppData\Local\Temp\ccEgig1L.s:17762  .debug_str:0000000000000a49 .LASF15
C:\Users\Duckb\AppData\Local\Temp\ccEgig1L.s:17622  .debug_str:0000000000000792 .LASF16
C:\Users\Duckb\AppData\Local\Temp\ccEgig1L.s:17276  .debug_str:0000000000000012 .LASF17
C:\Users\Duckb\AppData\Local\Temp\ccEgig1L.s:17358  .debug_str:0000000000000228 .LASF18
C:\Users\Duckb\AppData\Local\Temp\ccEgig1L.s:17624  .debug_str:000000000000079a .LASF19
C:\Users\Duckb\AppData\Local\Temp\ccEgig1L.s:17600  .debug_str:0000000000000735 .LASF20
C:\Users\Duckb\AppData\Local\Temp\ccEgig1L.s:17282  .debug_str:000000000000002b .LASF21
C:\Users\Duckb\AppData\Local\Temp\ccEgig1L.s:17676  .debug_str:00000000000008c3 .LASF22
C:\Users\Duckb\AppData\Local\Temp\ccEgig1L.s:17746  .debug_str:00000000000009f9 .LASF23
C:\Users\Duckb\AppData\Local\Temp\ccEgig1L.s:17492  .debug_str:0000000000000520 .LASF24
C:\Users\Duckb\AppData\Local\Temp\ccEgig1L.s:17668  .debug_str:0000000000000897 .LASF25
C:\Users\Duckb\AppData\Local\Temp\ccEgig1L.s:17500  .debug_str:0000000000000555 .LASF30
C:\Users\Duckb\AppData\Local\Temp\ccEgig1L.s:17692  .debug_str:0000000000000909 .LASF26
C:\Users\Duckb\AppData\Local\Temp\ccEgig1L.s:17502  .debug_str:000000000000055d .LASF27
C:\Users\Duckb\AppData\Local\Temp\ccEgig1L.s:17554  .debug_str:0000000000000656 .LASF28
C:\Users\Duckb\AppData\Local\Temp\ccEgig1L.s:17446  .debug_str:000000000000042c .LASF29
C:\Users\Duckb\AppData\Local\Temp\ccEgig1L.s:17308  .debug_str:00000000000000a4 .LASF31
C:\Users\Duckb\AppData\Local\Temp\ccEgig1L.s:17314  .debug_str:00000000000000c0 .LASF32
C:\Users\Duckb\AppData\Local\Temp\ccEgig1L.s:17788  .debug_str:0000000000000ad7 .LASF33
GAS LISTING C:\Users\Duckb\AppData\Local\Temp\ccEgig1L.s 			page 153


C:\Users\Duckb\AppData\Local\Temp\ccEgig1L.s:17770  .debug_str:0000000000000a6d .LASF34
C:\Users\Duckb\AppData\Local\Temp\ccEgig1L.s:17578  .debug_str:00000000000006cf .LASF35
C:\Users\Duckb\AppData\Local\Temp\ccEgig1L.s:17386  .debug_str:00000000000002b9 .LASF36
C:\Users\Duckb\AppData\Local\Temp\ccEgig1L.s:17716  .debug_str:000000000000096f .LASF37
C:\Users\Duckb\AppData\Local\Temp\ccEgig1L.s:17604  .debug_str:0000000000000746 .LASF38
C:\Users\Duckb\AppData\Local\Temp\ccEgig1L.s:17610  .debug_str:0000000000000762 .LASF39
C:\Users\Duckb\AppData\Local\Temp\ccEgig1L.s:17784  .debug_str:0000000000000ac1 .LASF40
C:\Users\Duckb\AppData\Local\Temp\ccEgig1L.s:17366  .debug_str:0000000000000245 .LASF41
C:\Users\Duckb\AppData\Local\Temp\ccEgig1L.s:17782  .debug_str:0000000000000ab9 .LASF42
C:\Users\Duckb\AppData\Local\Temp\ccEgig1L.s:17640  .debug_str:00000000000007fc .LASF43
C:\Users\Duckb\AppData\Local\Temp\ccEgig1L.s:17714  .debug_str:0000000000000966 .LASF44
C:\Users\Duckb\AppData\Local\Temp\ccEgig1L.s:17738  .debug_str:00000000000009d9 .LASF45
C:\Users\Duckb\AppData\Local\Temp\ccEgig1L.s:17594  .debug_str:0000000000000715 .LASF46
C:\Users\Duckb\AppData\Local\Temp\ccEgig1L.s:17734  .debug_str:00000000000009cd .LASF47
C:\Users\Duckb\AppData\Local\Temp\ccEgig1L.s:17426  .debug_str:00000000000003df .LASF48
C:\Users\Duckb\AppData\Local\Temp\ccEgig1L.s:17736  .debug_str:00000000000009d2 .LASF49
C:\Users\Duckb\AppData\Local\Temp\ccEgig1L.s:17650  .debug_str:0000000000000827 .LASF50
C:\Users\Duckb\AppData\Local\Temp\ccEgig1L.s:17378  .debug_str:000000000000028c .LASF51
C:\Users\Duckb\AppData\Local\Temp\ccEgig1L.s:17476  .debug_str:00000000000004ca .LASF52
C:\Users\Duckb\AppData\Local\Temp\ccEgig1L.s:17592  .debug_str:000000000000070e .LASF53
C:\Users\Duckb\AppData\Local\Temp\ccEgig1L.s:17362  .debug_str:0000000000000238 .LASF54
C:\Users\Duckb\AppData\Local\Temp\ccEgig1L.s:17728  .debug_str:00000000000009b4 .LASF55
C:\Users\Duckb\AppData\Local\Temp\ccEgig1L.s:17444  .debug_str:0000000000000424 .LASF56
C:\Users\Duckb\AppData\Local\Temp\ccEgig1L.s:17288  .debug_str:000000000000004f .LASF57
C:\Users\Duckb\AppData\Local\Temp\ccEgig1L.s:17296  .debug_str:000000000000006c .LASF58
C:\Users\Duckb\AppData\Local\Temp\ccEgig1L.s:17620  .debug_str:000000000000078c .LASF59
C:\Users\Duckb\AppData\Local\Temp\ccEgig1L.s:17428  .debug_str:00000000000003e4 .LASF60
C:\Users\Duckb\AppData\Local\Temp\ccEgig1L.s:17582  .debug_str:00000000000006de .LASF61
C:\Users\Duckb\AppData\Local\Temp\ccEgig1L.s:17312  .debug_str:00000000000000ba .LASF62
C:\Users\Duckb\AppData\Local\Temp\ccEgig1L.s:17646  .debug_str:0000000000000818 .LASF63
C:\Users\Duckb\AppData\Local\Temp\ccEgig1L.s:17454  .debug_str:0000000000000453 .LASF64
C:\Users\Duckb\AppData\Local\Temp\ccEgig1L.s:17694  .debug_str:000000000000090f .LASF65
C:\Users\Duckb\AppData\Local\Temp\ccEgig1L.s:17342  .debug_str:0000000000000157 .LASF66
C:\Users\Duckb\AppData\Local\Temp\ccEgig1L.s:17588  .debug_str:00000000000006fa .LASF67
C:\Users\Duckb\AppData\Local\Temp\ccEgig1L.s:17480  .debug_str:00000000000004dd .LASF68
C:\Users\Duckb\AppData\Local\Temp\ccEgig1L.s:17416  .debug_str:00000000000003ae .LASF69
C:\Users\Duckb\AppData\Local\Temp\ccEgig1L.s:17496  .debug_str:0000000000000542 .LASF70
C:\Users\Duckb\AppData\Local\Temp\ccEgig1L.s:17434  .debug_str:00000000000003ff .LASF71
C:\Users\Duckb\AppData\Local\Temp\ccEgig1L.s:17644  .debug_str:0000000000000810 .LASF72
C:\Users\Duckb\AppData\Local\Temp\ccEgig1L.s:17584  .debug_str:00000000000006e4 .LASF73
C:\Users\Duckb\AppData\Local\Temp\ccEgig1L.s:17732  .debug_str:00000000000009c8 .LASF74
C:\Users\Duckb\AppData\Local\Temp\ccEgig1L.s:17516  .debug_str:00000000000005a6 .LASF75
C:\Users\Duckb\AppData\Local\Temp\ccEgig1L.s:17414  .debug_str:0000000000000395 .LASF76
C:\Users\Duckb\AppData\Local\Temp\ccEgig1L.s:17744  .debug_str:00000000000009f1 .LASF77
C:\Users\Duckb\AppData\Local\Temp\ccEgig1L.s:17478  .debug_str:00000000000004d2 .LASF78
C:\Users\Duckb\AppData\Local\Temp\ccEgig1L.s:17506  .debug_str:000000000000056f .LASF79
C:\Users\Duckb\AppData\Local\Temp\ccEgig1L.s:17754  .debug_str:0000000000000a1c .LASF80
C:\Users\Duckb\AppData\Local\Temp\ccEgig1L.s:17376  .debug_str:0000000000000282 .LASF81
C:\Users\Duckb\AppData\Local\Temp\ccEgig1L.s:17468  .debug_str:0000000000000494 .LASF82
C:\Users\Duckb\AppData\Local\Temp\ccEgig1L.s:17546  .debug_str:000000000000063b .LASF83
C:\Users\Duckb\AppData\Local\Temp\ccEgig1L.s:17300  .debug_str:0000000000000080 .LASF84
C:\Users\Duckb\AppData\Local\Temp\ccEgig1L.s:17456  .debug_str:000000000000045b .LASF85
C:\Users\Duckb\AppData\Local\Temp\ccEgig1L.s:17580  .debug_str:00000000000006d9 .LASF86
C:\Users\Duckb\AppData\Local\Temp\ccEgig1L.s:17508  .debug_str:0000000000000579 .LASF87
C:\Users\Duckb\AppData\Local\Temp\ccEgig1L.s:17448  .debug_str:0000000000000431 .LASF88
C:\Users\Duckb\AppData\Local\Temp\ccEgig1L.s:17538  .debug_str:0000000000000616 .LASF89
C:\Users\Duckb\AppData\Local\Temp\ccEgig1L.s:17284  .debug_str:0000000000000033 .LASF90
GAS LISTING C:\Users\Duckb\AppData\Local\Temp\ccEgig1L.s 			page 154


C:\Users\Duckb\AppData\Local\Temp\ccEgig1L.s:17424  .debug_str:00000000000003da .LASF91
C:\Users\Duckb\AppData\Local\Temp\ccEgig1L.s:17670  .debug_str:00000000000008a0 .LASF92
C:\Users\Duckb\AppData\Local\Temp\ccEgig1L.s:17550  .debug_str:000000000000064b .LASF93
C:\Users\Duckb\AppData\Local\Temp\ccEgig1L.s:17536  .debug_str:000000000000060f .LASF94
C:\Users\Duckb\AppData\Local\Temp\ccEgig1L.s:17548  .debug_str:0000000000000645 .LASF95
C:\Users\Duckb\AppData\Local\Temp\ccEgig1L.s:17642  .debug_str:0000000000000808 .LASF96
C:\Users\Duckb\AppData\Local\Temp\ccEgig1L.s:17618  .debug_str:0000000000000786 .LASF97
C:\Users\Duckb\AppData\Local\Temp\ccEgig1L.s:17350  .debug_str:00000000000001ff .LASF98
C:\Users\Duckb\AppData\Local\Temp\ccEgig1L.s:17764  .debug_str:0000000000000a50 .LASF99
C:\Users\Duckb\AppData\Local\Temp\ccEgig1L.s:17394  .debug_str:00000000000002dd .LASF100
C:\Users\Duckb\AppData\Local\Temp\ccEgig1L.s:17656  .debug_str:0000000000000843 .LASF101
C:\Users\Duckb\AppData\Local\Temp\ccEgig1L.s:17298  .debug_str:0000000000000073 .LASF102
C:\Users\Duckb\AppData\Local\Temp\ccEgig1L.s:17382  .debug_str:000000000000029e .LASF103
C:\Users\Duckb\AppData\Local\Temp\ccEgig1L.s:17544  .debug_str:000000000000062c .LASF104
C:\Users\Duckb\AppData\Local\Temp\ccEgig1L.s:17590  .debug_str:0000000000000703 .LASF105
C:\Users\Duckb\AppData\Local\Temp\ccEgig1L.s:17678  .debug_str:00000000000008ce .LASF106
C:\Users\Duckb\AppData\Local\Temp\ccEgig1L.s:17700  .debug_str:0000000000000927 .LASF107
C:\Users\Duckb\AppData\Local\Temp\ccEgig1L.s:17626  .debug_str:00000000000007a1 .LASF108
C:\Users\Duckb\AppData\Local\Temp\ccEgig1L.s:17586  .debug_str:00000000000006ec .LASF109
C:\Users\Duckb\AppData\Local\Temp\ccEgig1L.s:17324  .debug_str:00000000000000f5 .LASF110
C:\Users\Duckb\AppData\Local\Temp\ccEgig1L.s:17498  .debug_str:0000000000000549 .LASF111
C:\Users\Duckb\AppData\Local\Temp\ccEgig1L.s:17790  .debug_str:0000000000000ae0 .LASF112
C:\Users\Duckb\AppData\Local\Temp\ccEgig1L.s:17370  .debug_str:000000000000025f .LASF113
C:\Users\Duckb\AppData\Local\Temp\ccEgig1L.s:17662  .debug_str:0000000000000868 .LASF114
C:\Users\Duckb\AppData\Local\Temp\ccEgig1L.s:17772  .debug_str:0000000000000a77 .LASF115
C:\Users\Duckb\AppData\Local\Temp\ccEgig1L.s:17576  .debug_str:00000000000006c0 .LASF116
C:\Users\Duckb\AppData\Local\Temp\ccEgig1L.s:17310  .debug_str:00000000000000a9 .LASF117
C:\Users\Duckb\AppData\Local\Temp\ccEgig1L.s:17568  .debug_str:0000000000000698 .LASF118
C:\Users\Duckb\AppData\Local\Temp\ccEgig1L.s:17742  .debug_str:00000000000009ea .LASF119
C:\Users\Duckb\AppData\Local\Temp\ccEgig1L.s:17540  .debug_str:000000000000061e .LASF120
C:\Users\Duckb\AppData\Local\Temp\ccEgig1L.s:17306  .debug_str:000000000000009c .LASF121
C:\Users\Duckb\AppData\Local\Temp\ccEgig1L.s:17280  .debug_str:0000000000000020 .LASF255
C:\Users\Duckb\AppData\Local\Temp\ccEgig1L.s:17374  .debug_str:0000000000000276 .LASF122
C:\Users\Duckb\AppData\Local\Temp\ccEgig1L.s:17418  .debug_str:00000000000003b5 .LASF123
C:\Users\Duckb\AppData\Local\Temp\ccEgig1L.s:17712  .debug_str:000000000000095c .LASF124
C:\Users\Duckb\AppData\Local\Temp\ccEgig1L.s:17398  .debug_str:00000000000002f6 .LASF125
C:\Users\Duckb\AppData\Local\Temp\ccEgig1L.s:17748  .debug_str:0000000000000a01 .LASF126
C:\Users\Duckb\AppData\Local\Temp\ccEgig1L.s:17704  .debug_str:000000000000093e .LASF127
C:\Users\Duckb\AppData\Local\Temp\ccEgig1L.s:17484  .debug_str:00000000000004f7 .LASF128
C:\Users\Duckb\AppData\Local\Temp\ccEgig1L.s:17672  .debug_str:00000000000008a7 .LASF129
C:\Users\Duckb\AppData\Local\Temp\ccEgig1L.s:17680  .debug_str:00000000000008d3 .LASF130
C:\Users\Duckb\AppData\Local\Temp\ccEgig1L.s:17682  .debug_str:00000000000008dc .LASF131
C:\Users\Duckb\AppData\Local\Temp\ccEgig1L.s:17566  .debug_str:0000000000000690 .LASF132
C:\Users\Duckb\AppData\Local\Temp\ccEgig1L.s:17740  .debug_str:00000000000009e1 .LASF133
C:\Users\Duckb\AppData\Local\Temp\ccEgig1L.s:17504  .debug_str:0000000000000565 .LASF134
C:\Users\Duckb\AppData\Local\Temp\ccEgig1L.s:17318  .debug_str:00000000000000d4 .LASF135
C:\Users\Duckb\AppData\Local\Temp\ccEgig1L.s:17320  .debug_str:00000000000000df .LASF136
C:\Users\Duckb\AppData\Local\Temp\ccEgig1L.s:17322  .debug_str:00000000000000ea .LASF137
C:\Users\Duckb\AppData\Local\Temp\ccEgig1L.s:17658  .debug_str:0000000000000850 .LASF138
C:\Users\Duckb\AppData\Local\Temp\ccEgig1L.s:17326  .debug_str:00000000000000ff .LASF139
C:\Users\Duckb\AppData\Local\Temp\ccEgig1L.s:17328  .debug_str:000000000000010a .LASF140
C:\Users\Duckb\AppData\Local\Temp\ccEgig1L.s:17596  .debug_str:000000000000071d .LASF141
C:\Users\Duckb\AppData\Local\Temp\ccEgig1L.s:17390  .debug_str:00000000000002cb .LASF142
C:\Users\Duckb\AppData\Local\Temp\ccEgig1L.s:17392  .debug_str:00000000000002d4 .LASF143
C:\Users\Duckb\AppData\Local\Temp\ccEgig1L.s:17334  .debug_str:000000000000012d .LASF144
C:\Users\Duckb\AppData\Local\Temp\ccEgig1L.s:17336  .debug_str:0000000000000138 .LASF145
C:\Users\Duckb\AppData\Local\Temp\ccEgig1L.s:17302  .debug_str:0000000000000088 .LASF146
GAS LISTING C:\Users\Duckb\AppData\Local\Temp\ccEgig1L.s 			page 155


C:\Users\Duckb\AppData\Local\Temp\ccEgig1L.s:17304  .debug_str:0000000000000092 .LASF147
C:\Users\Duckb\AppData\Local\Temp\ccEgig1L.s:17750  .debug_str:0000000000000a0a .LASF148
C:\Users\Duckb\AppData\Local\Temp\ccEgig1L.s:17752  .debug_str:0000000000000a13 .LASF149
C:\Users\Duckb\AppData\Local\Temp\ccEgig1L.s:17420  .debug_str:00000000000003c8 .LASF150
C:\Users\Duckb\AppData\Local\Temp\ccEgig1L.s:17422  .debug_str:00000000000003d1 .LASF151
C:\Users\Duckb\AppData\Local\Temp\ccEgig1L.s:17718  .debug_str:0000000000000979 .LASF152
C:\Users\Duckb\AppData\Local\Temp\ccEgig1L.s:17292  .debug_str:000000000000005f .LASF153
C:\Users\Duckb\AppData\Local\Temp\ccEgig1L.s:17400  .debug_str:00000000000002fe .LASF154
C:\Users\Duckb\AppData\Local\Temp\ccEgig1L.s:17612  .debug_str:000000000000076c .LASF155
C:\Users\Duckb\AppData\Local\Temp\ccEgig1L.s:17490  .debug_str:0000000000000519 .LASF156
C:\Users\Duckb\AppData\Local\Temp\ccEgig1L.s:17526  .debug_str:00000000000005dd .LASF157
C:\Users\Duckb\AppData\Local\Temp\ccEgig1L.s:17528  .debug_str:00000000000005e7 .LASF158
C:\Users\Duckb\AppData\Local\Temp\ccEgig1L.s:17530  .debug_str:00000000000005f1 .LASF159
C:\Users\Duckb\AppData\Local\Temp\ccEgig1L.s:17532  .debug_str:00000000000005fb .LASF160
C:\Users\Duckb\AppData\Local\Temp\ccEgig1L.s:17534  .debug_str:0000000000000605 .LASF161
C:\Users\Duckb\AppData\Local\Temp\ccEgig1L.s:17518  .debug_str:00000000000005b1 .LASF162
C:\Users\Duckb\AppData\Local\Temp\ccEgig1L.s:17520  .debug_str:00000000000005ba .LASF163
C:\Users\Duckb\AppData\Local\Temp\ccEgig1L.s:17316  .debug_str:00000000000000c9 .LASF164
C:\Users\Duckb\AppData\Local\Temp\ccEgig1L.s:17388  .debug_str:00000000000002c2 .LASF165
C:\Users\Duckb\AppData\Local\Temp\ccEgig1L.s:17332  .debug_str:0000000000000122 .LASF166
C:\Users\Duckb\AppData\Local\Temp\ccEgig1L.s:17452  .debug_str:0000000000000447 .LASF167
C:\Users\Duckb\AppData\Local\Temp\ccEgig1L.s:17730  .debug_str:00000000000009bd .LASF168
C:\Users\Duckb\AppData\Local\Temp\ccEgig1L.s:17786  .debug_str:0000000000000acc .LASF169
C:\Users\Duckb\AppData\Local\Temp\ccEgig1L.s:17340  .debug_str:0000000000000150 .LASF170
C:\Users\Duckb\AppData\Local\Temp\ccEgig1L.s:17344  .debug_str:000000000000015d .LASF171
C:\Users\Duckb\AppData\Local\Temp\ccEgig1L.s:17774  .debug_str:0000000000000a88 .LASF172
C:\Users\Duckb\AppData\Local\Temp\ccEgig1L.s:17666  .debug_str:0000000000000882 .LASF173
C:\Users\Duckb\AppData\Local\Temp\ccEgig1L.s:17664  .debug_str:0000000000000877 .LASF174
C:\Users\Duckb\AppData\Local\Temp\ccEgig1L.s:17436  .debug_str:0000000000000406 .LASF175
C:\Users\Duckb\AppData\Local\Temp\ccEgig1L.s:17722  .debug_str:000000000000098f .LASF176
C:\Users\Duckb\AppData\Local\Temp\ccEgig1L.s:17412  .debug_str:000000000000038f .LASF177
C:\Users\Duckb\AppData\Local\Temp\ccEgig1L.s:17354  .debug_str:0000000000000217 .LASF178
C:\Users\Duckb\AppData\Local\Temp\ccEgig1L.s:17464  .debug_str:0000000000000480 .LASF179
C:\Users\Duckb\AppData\Local\Temp\ccEgig1L.s:17486  .debug_str:0000000000000507 .LASF180
C:\Users\Duckb\AppData\Local\Temp\ccEgig1L.s:17488  .debug_str:0000000000000510 .LASF181
C:\Users\Duckb\AppData\Local\Temp\ccEgig1L.s:17338  .debug_str:0000000000000143 .LASF182
C:\Users\Duckb\AppData\Local\Temp\ccEgig1L.s:17458  .debug_str:0000000000000463 .LASF183
C:\Users\Duckb\AppData\Local\Temp\ccEgig1L.s:17652  .debug_str:000000000000082d .LASF184
C:\Users\Duckb\AppData\Local\Temp\ccEgig1L.s:17726  .debug_str:00000000000009a4 .LASF187
C:\Users\Duckb\AppData\Local\Temp\ccEgig1L.s:3516   .text.LCD_ShowPicture:0000000000000000 .LFB29
C:\Users\Duckb\AppData\Local\Temp\ccEgig1L.s:3591   .text.LCD_ShowPicture:000000000000004c .LFE29
C:\Users\Duckb\AppData\Local\Temp\ccEgig1L.s:13738  .debug_loc:0000000000000000 .LLST213
C:\Users\Duckb\AppData\Local\Temp\ccEgig1L.s:13761  .debug_loc:0000000000000038 .LLST214
C:\Users\Duckb\AppData\Local\Temp\ccEgig1L.s:13775  .debug_loc:0000000000000059 .LLST215
C:\Users\Duckb\AppData\Local\Temp\ccEgig1L.s:13789  .debug_loc:000000000000007a .LLST216
C:\Users\Duckb\AppData\Local\Temp\ccEgig1L.s:13803  .debug_loc:000000000000009b .LLST217
C:\Users\Duckb\AppData\Local\Temp\ccEgig1L.s:17438  .debug_str:000000000000040c .LASF185
C:\Users\Duckb\AppData\Local\Temp\ccEgig1L.s:13817  .debug_loc:00000000000000bc .LLST218
C:\Users\Duckb\AppData\Local\Temp\ccEgig1L.s:13839  .debug_loc:00000000000000f3 .LLST219
C:\Users\Duckb\AppData\Local\Temp\ccEgig1L.s:17634  .debug_str:00000000000007d5 .LASF186
C:\Users\Duckb\AppData\Local\Temp\ccEgig1L.s:13860  .debug_loc:0000000000000129 .LLST220
C:\Users\Duckb\AppData\Local\Temp\ccEgig1L.s:3550   .text.LCD_ShowPicture:0000000000000026 .LVL391
C:\Users\Duckb\AppData\Local\Temp\ccEgig1L.s:3588   .text.LCD_ShowPicture:000000000000004a .LVL398
C:\Users\Duckb\AppData\Local\Temp\ccEgig1L.s:17684  .debug_str:00000000000008e5 .LASF188
C:\Users\Duckb\AppData\Local\Temp\ccEgig1L.s:3316   .text.LCD_ShowNum1:0000000000000000 .LFB28
C:\Users\Duckb\AppData\Local\Temp\ccEgig1L.s:3509   .text.LCD_ShowNum1:00000000000000cc .LFE28
C:\Users\Duckb\AppData\Local\Temp\ccEgig1L.s:13896  .debug_loc:0000000000000167 .LLST201
GAS LISTING C:\Users\Duckb\AppData\Local\Temp\ccEgig1L.s 			page 156


C:\Users\Duckb\AppData\Local\Temp\ccEgig1L.s:13919  .debug_loc:000000000000019f .LLST202
C:\Users\Duckb\AppData\Local\Temp\ccEgig1L.s:13941  .debug_loc:00000000000001d6 .LLST203
C:\Users\Duckb\AppData\Local\Temp\ccEgig1L.s:13963  .debug_loc:000000000000020d .LLST204
C:\Users\Duckb\AppData\Local\Temp\ccEgig1L.s:13979  .debug_loc:0000000000000230 .LLST205
C:\Users\Duckb\AppData\Local\Temp\ccEgig1L.s:17690  .debug_str:0000000000000903 .LASF189
C:\Users\Duckb\AppData\Local\Temp\ccEgig1L.s:14005  .debug_loc:0000000000000272 .LLST206
C:\Users\Duckb\AppData\Local\Temp\ccEgig1L.s:14027  .debug_loc:00000000000002a9 .LLST207
C:\Users\Duckb\AppData\Local\Temp\ccEgig1L.s:17778  .debug_str:0000000000000aa9 .LASF190
C:\Users\Duckb\AppData\Local\Temp\ccEgig1L.s:14057  .debug_loc:00000000000002f6 .LLST208
C:\Users\Duckb\AppData\Local\Temp\ccEgig1L.s:17698  .debug_str:0000000000000922 .LASF191
C:\Users\Duckb\AppData\Local\Temp\ccEgig1L.s:14064  .debug_loc:0000000000000309 .LLST209
C:\Users\Duckb\AppData\Local\Temp\ccEgig1L.s:3373   .text.LCD_ShowNum1:000000000000003c .LBB364
C:\Users\Duckb\AppData\Local\Temp\ccEgig1L.s:14079  .debug_loc:0000000000000332 .LLST210
C:\Users\Duckb\AppData\Local\Temp\ccEgig1L.s:14094  .debug_loc:000000000000035b .LLST211
C:\Users\Duckb\AppData\Local\Temp\ccEgig1L.s:14107  .debug_loc:000000000000037b .LLST212
C:\Users\Duckb\AppData\Local\Temp\ccEgig1L.s:3471   .text.LCD_ShowNum1:00000000000000a2 .LVL383
C:\Users\Duckb\AppData\Local\Temp\ccEgig1L.s:3492   .text.LCD_ShowNum1:00000000000000c0 .LVL386
C:\Users\Duckb\AppData\Local\Temp\ccEgig1L.s:17384  .debug_str:00000000000002ad .LASF192
C:\Users\Duckb\AppData\Local\Temp\ccEgig1L.s:3141   .text.LCD_ShowNum:0000000000000000 .LFB27
C:\Users\Duckb\AppData\Local\Temp\ccEgig1L.s:3307   .text.LCD_ShowNum:00000000000000a8 .LFE27
C:\Users\Duckb\AppData\Local\Temp\ccEgig1L.s:14123  .debug_loc:00000000000003a5 .LLST190
C:\Users\Duckb\AppData\Local\Temp\ccEgig1L.s:14146  .debug_loc:00000000000003dd .LLST191
C:\Users\Duckb\AppData\Local\Temp\ccEgig1L.s:14168  .debug_loc:0000000000000414 .LLST192
C:\Users\Duckb\AppData\Local\Temp\ccEgig1L.s:14190  .debug_loc:000000000000044b .LLST193
C:\Users\Duckb\AppData\Local\Temp\ccEgig1L.s:14212  .debug_loc:0000000000000482 .LLST194
C:\Users\Duckb\AppData\Local\Temp\ccEgig1L.s:14226  .debug_loc:00000000000004a3 .LLST195
C:\Users\Duckb\AppData\Local\Temp\ccEgig1L.s:14256  .debug_loc:00000000000004f0 .LLST196
C:\Users\Duckb\AppData\Local\Temp\ccEgig1L.s:14282  .debug_loc:0000000000000532 .LLST197
C:\Users\Duckb\AppData\Local\Temp\ccEgig1L.s:17756  .debug_str:0000000000000a24 .LASF193
C:\Users\Duckb\AppData\Local\Temp\ccEgig1L.s:14303  .debug_loc:0000000000000568 .LLST198
C:\Users\Duckb\AppData\Local\Temp\ccEgig1L.s:3187   .text.LCD_ShowNum:0000000000000030 .LBB358
C:\Users\Duckb\AppData\Local\Temp\ccEgig1L.s:14319  .debug_loc:0000000000000592 .LLST199
C:\Users\Duckb\AppData\Local\Temp\ccEgig1L.s:14330  .debug_loc:00000000000005b0 .LLST200
C:\Users\Duckb\AppData\Local\Temp\ccEgig1L.s:3280   .text.LCD_ShowNum:000000000000008e .LVL355
C:\Users\Duckb\AppData\Local\Temp\ccEgig1L.s:17606  .debug_str:0000000000000750 .LASF256
C:\Users\Duckb\AppData\Local\Temp\ccEgig1L.s:17364  .debug_str:000000000000023e .LASF199
C:\Users\Duckb\AppData\Local\Temp\ccEgig1L.s:17368  .debug_str:0000000000000253 .LASF194
C:\Users\Duckb\AppData\Local\Temp\ccEgig1L.s:2990   .text.LCD_ShowStr:0000000000000000 .LFB25
C:\Users\Duckb\AppData\Local\Temp\ccEgig1L.s:3095   .text.LCD_ShowStr:0000000000000060 .LFE25
C:\Users\Duckb\AppData\Local\Temp\ccEgig1L.s:14337  .debug_loc:00000000000005c3 .LLST181
C:\Users\Duckb\AppData\Local\Temp\ccEgig1L.s:14360  .debug_loc:00000000000005fb .LLST182
C:\Users\Duckb\AppData\Local\Temp\ccEgig1L.s:14384  .debug_loc:000000000000063b .LLST183
C:\Users\Duckb\AppData\Local\Temp\ccEgig1L.s:14399  .debug_loc:0000000000000664 .LLST184
C:\Users\Duckb\AppData\Local\Temp\ccEgig1L.s:14414  .debug_loc:000000000000068d .LLST185
C:\Users\Duckb\AppData\Local\Temp\ccEgig1L.s:17706  .debug_str:0000000000000947 .LASF195
C:\Users\Duckb\AppData\Local\Temp\ccEgig1L.s:14436  .debug_loc:00000000000006c4 .LLST186
C:\Users\Duckb\AppData\Local\Temp\ccEgig1L.s:3084   .text.LCD_ShowStr:000000000000005a .LVL330
C:\Users\Duckb\AppData\Local\Temp\ccEgig1L.s:17560  .debug_str:000000000000066e .LASF196
C:\Users\Duckb\AppData\Local\Temp\ccEgig1L.s:2863   .text.LCD_ShowString:0000000000000000 .LFB24
C:\Users\Duckb\AppData\Local\Temp\ccEgig1L.s:2983   .text.LCD_ShowString:0000000000000076 .LFE24
C:\Users\Duckb\AppData\Local\Temp\ccEgig1L.s:14450  .debug_loc:00000000000006e5 .LLST176
C:\Users\Duckb\AppData\Local\Temp\ccEgig1L.s:14473  .debug_loc:000000000000071d .LLST177
C:\Users\Duckb\AppData\Local\Temp\ccEgig1L.s:14506  .debug_loc:0000000000000774 .LLST178
C:\Users\Duckb\AppData\Local\Temp\ccEgig1L.s:14530  .debug_loc:00000000000007b4 .LLST179
C:\Users\Duckb\AppData\Local\Temp\ccEgig1L.s:14545  .debug_loc:00000000000007dd .LLST180
C:\Users\Duckb\AppData\Local\Temp\ccEgig1L.s:2958   .text.LCD_ShowString:0000000000000058 .LVL315
C:\Users\Duckb\AppData\Local\Temp\ccEgig1L.s:2972   .text.LCD_ShowString:0000000000000070 .LVL317
GAS LISTING C:\Users\Duckb\AppData\Local\Temp\ccEgig1L.s 			page 157


C:\Users\Duckb\AppData\Local\Temp\ccEgig1L.s:17432  .debug_str:00000000000003f0 .LASF197
C:\Users\Duckb\AppData\Local\Temp\ccEgig1L.s:2744   .text.LCD_DeleteChar:0000000000000000 .LFB23
C:\Users\Duckb\AppData\Local\Temp\ccEgig1L.s:2856   .text.LCD_DeleteChar:0000000000000066 .LFE23
C:\Users\Duckb\AppData\Local\Temp\ccEgig1L.s:14567  .debug_loc:0000000000000814 .LLST170
C:\Users\Duckb\AppData\Local\Temp\ccEgig1L.s:14595  .debug_loc:0000000000000858 .LLST171
C:\Users\Duckb\AppData\Local\Temp\ccEgig1L.s:14617  .debug_loc:000000000000088f .LLST172
C:\Users\Duckb\AppData\Local\Temp\ccEgig1L.s:17638  .debug_str:00000000000007f1 .LASF198
C:\Users\Duckb\AppData\Local\Temp\ccEgig1L.s:14639  .debug_loc:00000000000008c6 .LLST173
C:\Users\Duckb\AppData\Local\Temp\ccEgig1L.s:2792   .text.LCD_DeleteChar:000000000000002a .LBB356
C:\Users\Duckb\AppData\Local\Temp\ccEgig1L.s:2808   .text.LCD_DeleteChar:0000000000000040 .LBE356
C:\Users\Duckb\AppData\Local\Temp\ccEgig1L.s:14657  .debug_loc:00000000000008f2 .LLST174
C:\Users\Duckb\AppData\Local\Temp\ccEgig1L.s:2793   .text.LCD_DeleteChar:000000000000002a .LBB357
C:\Users\Duckb\AppData\Local\Temp\ccEgig1L.s:2805   .text.LCD_DeleteChar:000000000000003c .LBE357
C:\Users\Duckb\AppData\Local\Temp\ccEgig1L.s:14684  .debug_loc:0000000000000927 .LLST175
C:\Users\Duckb\AppData\Local\Temp\ccEgig1L.s:2799   .text.LCD_DeleteChar:0000000000000036 .LVL297
C:\Users\Duckb\AppData\Local\Temp\ccEgig1L.s:2838   .text.LCD_DeleteChar:0000000000000060 .LVL303
C:\Users\Duckb\AppData\Local\Temp\ccEgig1L.s:17406  .debug_str:000000000000036b .LASF225
C:\Users\Duckb\AppData\Local\Temp\ccEgig1L.s:17380  .debug_str:0000000000000292 .LASF200
C:\Users\Duckb\AppData\Local\Temp\ccEgig1L.s:2356   .text.Draw_Circle:0000000000000000 .LFB21
C:\Users\Duckb\AppData\Local\Temp\ccEgig1L.s:2528   .text.Draw_Circle:00000000000000f2 .LFE21
C:\Users\Duckb\AppData\Local\Temp\ccEgig1L.s:14708  .debug_loc:0000000000000959 .LLST149
C:\Users\Duckb\AppData\Local\Temp\ccEgig1L.s:14726  .debug_loc:0000000000000986 .LLST150
C:\Users\Duckb\AppData\Local\Temp\ccEgig1L.s:14744  .debug_loc:00000000000009b2 .LLST151
C:\Users\Duckb\AppData\Local\Temp\ccEgig1L.s:14762  .debug_loc:00000000000009de .LLST152
C:\Users\Duckb\AppData\Local\Temp\ccEgig1L.s:14776  .debug_loc:00000000000009ff .LLST153
C:\Users\Duckb\AppData\Local\Temp\ccEgig1L.s:14794  .debug_loc:0000000000000a2b .LLST154
C:\Users\Duckb\AppData\Local\Temp\ccEgig1L.s:14806  .debug_loc:0000000000000a4a .LLST155
C:\Users\Duckb\AppData\Local\Temp\ccEgig1L.s:2420   .text.Draw_Circle:0000000000000046 .LVL253
C:\Users\Duckb\AppData\Local\Temp\ccEgig1L.s:2426   .text.Draw_Circle:0000000000000054 .LVL254
C:\Users\Duckb\AppData\Local\Temp\ccEgig1L.s:2434   .text.Draw_Circle:000000000000006a .LVL255
C:\Users\Duckb\AppData\Local\Temp\ccEgig1L.s:2442   .text.Draw_Circle:0000000000000080 .LVL256
C:\Users\Duckb\AppData\Local\Temp\ccEgig1L.s:2449   .text.Draw_Circle:0000000000000090 .LVL257
C:\Users\Duckb\AppData\Local\Temp\ccEgig1L.s:2456   .text.Draw_Circle:00000000000000a0 .LVL258
C:\Users\Duckb\AppData\Local\Temp\ccEgig1L.s:2462   .text.Draw_Circle:00000000000000ae .LVL259
C:\Users\Duckb\AppData\Local\Temp\ccEgig1L.s:2468   .text.Draw_Circle:00000000000000bc .LVL260
C:\Users\Duckb\AppData\Local\Temp\ccEgig1L.s:17482  .debug_str:00000000000004e5 .LASF201
C:\Users\Duckb\AppData\Local\Temp\ccEgig1L.s:2264   .text.LCD_DrawRectangle:0000000000000000 .LFB20
C:\Users\Duckb\AppData\Local\Temp\ccEgig1L.s:2349   .text.LCD_DrawRectangle:0000000000000066 .LFE20
C:\Users\Duckb\AppData\Local\Temp\ccEgig1L.s:14813  .debug_loc:0000000000000a5d .LLST143
C:\Users\Duckb\AppData\Local\Temp\ccEgig1L.s:14831  .debug_loc:0000000000000a89 .LLST144
C:\Users\Duckb\AppData\Local\Temp\ccEgig1L.s:14849  .debug_loc:0000000000000ab5 .LLST145
C:\Users\Duckb\AppData\Local\Temp\ccEgig1L.s:14871  .debug_loc:0000000000000aec .LLST146
C:\Users\Duckb\AppData\Local\Temp\ccEgig1L.s:14893  .debug_loc:0000000000000b23 .LLST147
C:\Users\Duckb\AppData\Local\Temp\ccEgig1L.s:14915  .debug_loc:0000000000000b5a .LLST148
C:\Users\Duckb\AppData\Local\Temp\ccEgig1L.s:2297   .text.LCD_DrawRectangle:0000000000000022 .LVL240
C:\Users\Duckb\AppData\Local\Temp\ccEgig1L.s:2305   .text.LCD_DrawRectangle:0000000000000034 .LVL241
C:\Users\Duckb\AppData\Local\Temp\ccEgig1L.s:2313   .text.LCD_DrawRectangle:0000000000000046 .LVL242
C:\Users\Duckb\AppData\Local\Temp\ccEgig1L.s:2347   .text.LCD_DrawRectangle:0000000000000066 .LVL248
C:\Users\Duckb\AppData\Local\Temp\ccEgig1L.s:17696  .debug_str:0000000000000915 .LASF202
C:\Users\Duckb\AppData\Local\Temp\ccEgig1L.s:2062   .text.LCD_DrawLine:0000000000000000 .LFB19
C:\Users\Duckb\AppData\Local\Temp\ccEgig1L.s:2257   .text.LCD_DrawLine:00000000000000a4 .LFE19
C:\Users\Duckb\AppData\Local\Temp\ccEgig1L.s:14937  .debug_loc:0000000000000b91 .LLST127
C:\Users\Duckb\AppData\Local\Temp\ccEgig1L.s:14955  .debug_loc:0000000000000bbe .LLST128
C:\Users\Duckb\AppData\Local\Temp\ccEgig1L.s:14969  .debug_loc:0000000000000bdf .LLST129
C:\Users\Duckb\AppData\Local\Temp\ccEgig1L.s:14983  .debug_loc:0000000000000c00 .LLST130
C:\Users\Duckb\AppData\Local\Temp\ccEgig1L.s:14997  .debug_loc:0000000000000c21 .LLST131
C:\Users\Duckb\AppData\Local\Temp\ccEgig1L.s:15011  .debug_loc:0000000000000c42 .LLST132
GAS LISTING C:\Users\Duckb\AppData\Local\Temp\ccEgig1L.s 			page 158


C:\Users\Duckb\AppData\Local\Temp\ccEgig1L.s:15025  .debug_loc:0000000000000c63 .LLST133
C:\Users\Duckb\AppData\Local\Temp\ccEgig1L.s:17430  .debug_str:00000000000003eb .LASF203
C:\Users\Duckb\AppData\Local\Temp\ccEgig1L.s:15037  .debug_loc:0000000000000c82 .LLST134
C:\Users\Duckb\AppData\Local\Temp\ccEgig1L.s:17616  .debug_str:0000000000000781 .LASF204
C:\Users\Duckb\AppData\Local\Temp\ccEgig1L.s:15053  .debug_loc:0000000000000cac .LLST135
C:\Users\Duckb\AppData\Local\Temp\ccEgig1L.s:17708  .debug_str:000000000000094c .LASF205
C:\Users\Duckb\AppData\Local\Temp\ccEgig1L.s:15065  .debug_loc:0000000000000ccb .LLST136
C:\Users\Duckb\AppData\Local\Temp\ccEgig1L.s:17710  .debug_str:0000000000000954 .LASF206
C:\Users\Duckb\AppData\Local\Temp\ccEgig1L.s:15072  .debug_loc:0000000000000cde .LLST137
C:\Users\Duckb\AppData\Local\Temp\ccEgig1L.s:17758  .debug_str:0000000000000a2b .LASF207
C:\Users\Duckb\AppData\Local\Temp\ccEgig1L.s:15079  .debug_loc:0000000000000cf1 .LLST138
C:\Users\Duckb\AppData\Local\Temp\ccEgig1L.s:17572  .debug_str:00000000000006b6 .LASF208
C:\Users\Duckb\AppData\Local\Temp\ccEgig1L.s:15092  .debug_loc:0000000000000d11 .LLST139
C:\Users\Duckb\AppData\Local\Temp\ccEgig1L.s:17574  .debug_str:00000000000006bb .LASF209
C:\Users\Duckb\AppData\Local\Temp\ccEgig1L.s:15105  .debug_loc:0000000000000d31 .LLST140
C:\Users\Duckb\AppData\Local\Temp\ccEgig1L.s:17768  .debug_str:0000000000000a68 .LASF210
C:\Users\Duckb\AppData\Local\Temp\ccEgig1L.s:15118  .debug_loc:0000000000000d51 .LLST141
C:\Users\Duckb\AppData\Local\Temp\ccEgig1L.s:17628  .debug_str:00000000000007af .LASF211
C:\Users\Duckb\AppData\Local\Temp\ccEgig1L.s:15129  .debug_loc:0000000000000d6f .LLST142
C:\Users\Duckb\AppData\Local\Temp\ccEgig1L.s:2180   .text.LCD_DrawLine:000000000000006a .LVL220
C:\Users\Duckb\AppData\Local\Temp\ccEgig1L.s:17602  .debug_str:000000000000073d .LASF212
C:\Users\Duckb\AppData\Local\Temp\ccEgig1L.s:1946   .text.LCD_Fill:0000000000000000 .LFB18
C:\Users\Duckb\AppData\Local\Temp\ccEgig1L.s:2032   .text.LCD_Fill:0000000000000050 .LFE18
C:\Users\Duckb\AppData\Local\Temp\ccEgig1L.s:15140  .debug_loc:0000000000000d8d .LLST116
C:\Users\Duckb\AppData\Local\Temp\ccEgig1L.s:17294  .debug_str:0000000000000067 .LASF213
C:\Users\Duckb\AppData\Local\Temp\ccEgig1L.s:15163  .debug_loc:0000000000000dc5 .LLST117
C:\Users\Duckb\AppData\Local\Temp\ccEgig1L.s:17552  .debug_str:0000000000000651 .LASF214
C:\Users\Duckb\AppData\Local\Temp\ccEgig1L.s:15185  .debug_loc:0000000000000dfc .LLST118
C:\Users\Duckb\AppData\Local\Temp\ccEgig1L.s:17278  .debug_str:000000000000001b .LASF215
C:\Users\Duckb\AppData\Local\Temp\ccEgig1L.s:15203  .debug_loc:0000000000000e28 .LLST119
C:\Users\Duckb\AppData\Local\Temp\ccEgig1L.s:17542  .debug_str:0000000000000627 .LASF216
C:\Users\Duckb\AppData\Local\Temp\ccEgig1L.s:15225  .debug_loc:0000000000000e5f .LLST120
C:\Users\Duckb\AppData\Local\Temp\ccEgig1L.s:15247  .debug_loc:0000000000000e96 .LLST121
C:\Users\Duckb\AppData\Local\Temp\ccEgig1L.s:15269  .debug_loc:0000000000000ecd .LLST122
C:\Users\Duckb\AppData\Local\Temp\ccEgig1L.s:15280  .debug_loc:0000000000000eeb .LLST123
C:\Users\Duckb\AppData\Local\Temp\ccEgig1L.s:1978   .text.LCD_Fill:0000000000000022 .LVL190
C:\Users\Duckb\AppData\Local\Temp\ccEgig1L.s:2015   .text.LCD_Fill:0000000000000042 .LVL197
C:\Users\Duckb\AppData\Local\Temp\ccEgig1L.s:17274  .debug_str:0000000000000000 .LASF217
C:\Users\Duckb\AppData\Local\Temp\ccEgig1L.s:2039   .text.LCD_DrawPoint_big:0000000000000000 .LFB17
C:\Users\Duckb\AppData\Local\Temp\ccEgig1L.s:2055   .text.LCD_DrawPoint_big:0000000000000016 .LFE17
C:\Users\Duckb\AppData\Local\Temp\ccEgig1L.s:15287  .debug_loc:0000000000000efe .LLST124
C:\Users\Duckb\AppData\Local\Temp\ccEgig1L.s:15307  .debug_loc:0000000000000f2c .LLST125
C:\Users\Duckb\AppData\Local\Temp\ccEgig1L.s:15327  .debug_loc:0000000000000f5a .LLST126
C:\Users\Duckb\AppData\Local\Temp\ccEgig1L.s:2053   .text.LCD_DrawPoint_big:0000000000000016 .LVL205
C:\Users\Duckb\AppData\Local\Temp\ccEgig1L.s:17598  .debug_str:0000000000000727 .LASF218
C:\Users\Duckb\AppData\Local\Temp\ccEgig1L.s:1900   .text.LCD_DrawPoint:0000000000000000 .LFB16
C:\Users\Duckb\AppData\Local\Temp\ccEgig1L.s:1939   .text.LCD_DrawPoint:0000000000000024 .LFE16
C:\Users\Duckb\AppData\Local\Temp\ccEgig1L.s:15345  .debug_loc:0000000000000f86 .LLST112
C:\Users\Duckb\AppData\Local\Temp\ccEgig1L.s:15363  .debug_loc:0000000000000fb2 .LLST113
C:\Users\Duckb\AppData\Local\Temp\ccEgig1L.s:15377  .debug_loc:0000000000000fd3 .LLST114
C:\Users\Duckb\AppData\Local\Temp\ccEgig1L.s:15391  .debug_loc:0000000000000ff4 .LLST115
C:\Users\Duckb\AppData\Local\Temp\ccEgig1L.s:1923   .text.LCD_DrawPoint:0000000000000014 .LVL186
C:\Users\Duckb\AppData\Local\Temp\ccEgig1L.s:1937   .text.LCD_DrawPoint:0000000000000024 .LVL188
C:\Users\Duckb\AppData\Local\Temp\ccEgig1L.s:17632  .debug_str:00000000000007c5 .LASF219
C:\Users\Duckb\AppData\Local\Temp\ccEgig1L.s:1760   .text.LCD_ShowChinese:0000000000000000 .LFB15
C:\Users\Duckb\AppData\Local\Temp\ccEgig1L.s:1893   .text.LCD_ShowChinese:0000000000000098 .LFE15
C:\Users\Duckb\AppData\Local\Temp\ccEgig1L.s:15413  .debug_loc:000000000000102b .LLST102
GAS LISTING C:\Users\Duckb\AppData\Local\Temp\ccEgig1L.s 			page 159


C:\Users\Duckb\AppData\Local\Temp\ccEgig1L.s:15436  .debug_loc:0000000000001063 .LLST103
C:\Users\Duckb\AppData\Local\Temp\ccEgig1L.s:15461  .debug_loc:000000000000109d .LLST104
C:\Users\Duckb\AppData\Local\Temp\ccEgig1L.s:17460  .debug_str:000000000000046c .LASF220
C:\Users\Duckb\AppData\Local\Temp\ccEgig1L.s:15486  .debug_loc:00000000000010d7 .LLST105
C:\Users\Duckb\AppData\Local\Temp\ccEgig1L.s:15511  .debug_loc:0000000000001111 .LLST106
C:\Users\Duckb\AppData\Local\Temp\ccEgig1L.s:15536  .debug_loc:000000000000114b .LLST107
C:\Users\Duckb\AppData\Local\Temp\ccEgig1L.s:15570  .debug_loc:00000000000011a3 .LLST108
C:\Users\Duckb\AppData\Local\Temp\ccEgig1L.s:15577  .debug_loc:00000000000011b6 .LLST109
C:\Users\Duckb\AppData\Local\Temp\ccEgig1L.s:15590  .debug_loc:00000000000011d6 .LLST110
C:\Users\Duckb\AppData\Local\Temp\ccEgig1L.s:17440  .debug_str:0000000000000412 .LASF221
C:\Users\Duckb\AppData\Local\Temp\ccEgig1L.s:15613  .debug_loc:0000000000001214 .LLST111
C:\Users\Duckb\AppData\Local\Temp\ccEgig1L.s:1810   .text.LCD_ShowChinese:000000000000003e .LVL170
C:\Users\Duckb\AppData\Local\Temp\ccEgig1L.s:1884   .text.LCD_ShowChinese:0000000000000090 .LVL182
C:\Users\Duckb\AppData\Local\Temp\ccEgig1L.s:17290  .debug_str:0000000000000055 .LASF222
C:\Users\Duckb\AppData\Local\Temp\ccEgig1L.s:1686   .text.LCD_Clear:0000000000000000 .LFB14
C:\Users\Duckb\AppData\Local\Temp\ccEgig1L.s:1753   .text.LCD_Clear:0000000000000046 .LFE14
C:\Users\Duckb\AppData\Local\Temp\ccEgig1L.s:15620  .debug_loc:0000000000001227 .LLST98
C:\Users\Duckb\AppData\Local\Temp\ccEgig1L.s:17648  .debug_str:0000000000000821 .LASF223
C:\Users\Duckb\AppData\Local\Temp\ccEgig1L.s:15638  .debug_loc:0000000000001253 .LLST99
C:\Users\Duckb\AppData\Local\Temp\ccEgig1L.s:15656  .debug_loc:000000000000127f .LLST100
C:\Users\Duckb\AppData\Local\Temp\ccEgig1L.s:15686  .debug_loc:00000000000012b7 .LLST101
C:\Users\Duckb\AppData\Local\Temp\ccEgig1L.s:1717   .text.LCD_Clear:0000000000000024 .LVL158
C:\Users\Duckb\AppData\Local\Temp\ccEgig1L.s:1729   .text.LCD_Clear:0000000000000034 .LVL161
C:\Users\Duckb\AppData\Local\Temp\ccEgig1L.s:17410  .debug_str:0000000000000386 .LASF224
C:\Users\Duckb\AppData\Local\Temp\ccEgig1L.s:877    .text.Lcd_Init:0000000000000000 .LFB13
C:\Users\Duckb\AppData\Local\Temp\ccEgig1L.s:1679   .text.Lcd_Init:0000000000000464 .LFE13
C:\Users\Duckb\AppData\Local\Temp\ccEgig1L.s:15712  .debug_loc:00000000000012eb .LLST22
C:\Users\Duckb\AppData\Local\Temp\ccEgig1L.s:948    .text.Lcd_Init:00000000000000a0 .LBB192
C:\Users\Duckb\AppData\Local\Temp\ccEgig1L.s:955    .text.Lcd_Init:00000000000000aa .LBE192
C:\Users\Duckb\AppData\Local\Temp\ccEgig1L.s:15730  .debug_loc:0000000000001317 .LLST23
C:\Users\Duckb\AppData\Local\Temp\ccEgig1L.s:953    .text.Lcd_Init:00000000000000aa .LVL74
C:\Users\Duckb\AppData\Local\Temp\ccEgig1L.s:964    .text.Lcd_Init:00000000000000be .LBB194
C:\Users\Duckb\AppData\Local\Temp\ccEgig1L.s:971    .text.Lcd_Init:00000000000000c8 .LBE194
C:\Users\Duckb\AppData\Local\Temp\ccEgig1L.s:15738  .debug_loc:000000000000132b .LLST24
C:\Users\Duckb\AppData\Local\Temp\ccEgig1L.s:969    .text.Lcd_Init:00000000000000c8 .LVL77
C:\Users\Duckb\AppData\Local\Temp\ccEgig1L.s:982    .text.Lcd_Init:00000000000000e0 .LBB196
C:\Users\Duckb\AppData\Local\Temp\ccEgig1L.s:987    .text.Lcd_Init:00000000000000e4 .LBE196
C:\Users\Duckb\AppData\Local\Temp\ccEgig1L.s:992    .text.Lcd_Init:00000000000000e6 .LBB198
C:\Users\Duckb\AppData\Local\Temp\ccEgig1L.s:1001   .text.Lcd_Init:00000000000000f2 .LBE198
C:\Users\Duckb\AppData\Local\Temp\ccEgig1L.s:15746  .debug_loc:000000000000133f .LLST25
C:\Users\Duckb\AppData\Local\Temp\ccEgig1L.s:999    .text.Lcd_Init:00000000000000f2 .LVL82
C:\Users\Duckb\AppData\Local\Temp\ccEgig1L.s:1003   .text.Lcd_Init:00000000000000f2 .LBB200
C:\Users\Duckb\AppData\Local\Temp\ccEgig1L.s:1010   .text.Lcd_Init:00000000000000fe .LBE200
C:\Users\Duckb\AppData\Local\Temp\ccEgig1L.s:15755  .debug_loc:0000000000001354 .LLST26
C:\Users\Duckb\AppData\Local\Temp\ccEgig1L.s:1008   .text.Lcd_Init:00000000000000fe .LVL83
C:\Users\Duckb\AppData\Local\Temp\ccEgig1L.s:1012   .text.Lcd_Init:00000000000000fe .LBB202
C:\Users\Duckb\AppData\Local\Temp\ccEgig1L.s:1019   .text.Lcd_Init:000000000000010a .LBE202
C:\Users\Duckb\AppData\Local\Temp\ccEgig1L.s:15764  .debug_loc:0000000000001369 .LLST27
C:\Users\Duckb\AppData\Local\Temp\ccEgig1L.s:1017   .text.Lcd_Init:000000000000010a .LVL84
C:\Users\Duckb\AppData\Local\Temp\ccEgig1L.s:1021   .text.Lcd_Init:000000000000010a .LBB204
C:\Users\Duckb\AppData\Local\Temp\ccEgig1L.s:1028   .text.Lcd_Init:0000000000000116 .LBE204
C:\Users\Duckb\AppData\Local\Temp\ccEgig1L.s:15772  .debug_loc:000000000000137d .LLST28
C:\Users\Duckb\AppData\Local\Temp\ccEgig1L.s:1026   .text.Lcd_Init:0000000000000116 .LVL85
C:\Users\Duckb\AppData\Local\Temp\ccEgig1L.s:1030   .text.Lcd_Init:0000000000000116 .LBB206
C:\Users\Duckb\AppData\Local\Temp\ccEgig1L.s:1037   .text.Lcd_Init:0000000000000122 .LBE206
C:\Users\Duckb\AppData\Local\Temp\ccEgig1L.s:15781  .debug_loc:0000000000001392 .LLST29
C:\Users\Duckb\AppData\Local\Temp\ccEgig1L.s:1035   .text.Lcd_Init:0000000000000122 .LVL86
GAS LISTING C:\Users\Duckb\AppData\Local\Temp\ccEgig1L.s 			page 160


C:\Users\Duckb\AppData\Local\Temp\ccEgig1L.s:1039   .text.Lcd_Init:0000000000000122 .LBB208
C:\Users\Duckb\AppData\Local\Temp\ccEgig1L.s:1046   .text.Lcd_Init:000000000000012e .LBE208
C:\Users\Duckb\AppData\Local\Temp\ccEgig1L.s:15790  .debug_loc:00000000000013a7 .LLST30
C:\Users\Duckb\AppData\Local\Temp\ccEgig1L.s:1044   .text.Lcd_Init:000000000000012e .LVL87
C:\Users\Duckb\AppData\Local\Temp\ccEgig1L.s:1048   .text.Lcd_Init:000000000000012e .LBB210
C:\Users\Duckb\AppData\Local\Temp\ccEgig1L.s:1055   .text.Lcd_Init:000000000000013a .LBE210
C:\Users\Duckb\AppData\Local\Temp\ccEgig1L.s:15799  .debug_loc:00000000000013bc .LLST31
C:\Users\Duckb\AppData\Local\Temp\ccEgig1L.s:1053   .text.Lcd_Init:000000000000013a .LVL88
C:\Users\Duckb\AppData\Local\Temp\ccEgig1L.s:1057   .text.Lcd_Init:000000000000013a .LBB212
C:\Users\Duckb\AppData\Local\Temp\ccEgig1L.s:1064   .text.Lcd_Init:0000000000000146 .LBE212
C:\Users\Duckb\AppData\Local\Temp\ccEgig1L.s:15807  .debug_loc:00000000000013d0 .LLST32
C:\Users\Duckb\AppData\Local\Temp\ccEgig1L.s:1062   .text.Lcd_Init:0000000000000146 .LVL89
C:\Users\Duckb\AppData\Local\Temp\ccEgig1L.s:1066   .text.Lcd_Init:0000000000000146 .LBB214
C:\Users\Duckb\AppData\Local\Temp\ccEgig1L.s:1073   .text.Lcd_Init:0000000000000152 .LBE214
C:\Users\Duckb\AppData\Local\Temp\ccEgig1L.s:15816  .debug_loc:00000000000013e5 .LLST33
C:\Users\Duckb\AppData\Local\Temp\ccEgig1L.s:1071   .text.Lcd_Init:0000000000000152 .LVL90
C:\Users\Duckb\AppData\Local\Temp\ccEgig1L.s:1075   .text.Lcd_Init:0000000000000152 .LBB216
C:\Users\Duckb\AppData\Local\Temp\ccEgig1L.s:1082   .text.Lcd_Init:000000000000015e .LBE216
C:\Users\Duckb\AppData\Local\Temp\ccEgig1L.s:15825  .debug_loc:00000000000013fa .LLST34
C:\Users\Duckb\AppData\Local\Temp\ccEgig1L.s:1080   .text.Lcd_Init:000000000000015e .LVL91
C:\Users\Duckb\AppData\Local\Temp\ccEgig1L.s:1084   .text.Lcd_Init:000000000000015e .LBB218
C:\Users\Duckb\AppData\Local\Temp\ccEgig1L.s:1091   .text.Lcd_Init:000000000000016a .LBE218
C:\Users\Duckb\AppData\Local\Temp\ccEgig1L.s:15834  .debug_loc:000000000000140f .LLST35
C:\Users\Duckb\AppData\Local\Temp\ccEgig1L.s:1089   .text.Lcd_Init:000000000000016a .LVL92
C:\Users\Duckb\AppData\Local\Temp\ccEgig1L.s:1093   .text.Lcd_Init:000000000000016a .LBB220
C:\Users\Duckb\AppData\Local\Temp\ccEgig1L.s:1100   .text.Lcd_Init:0000000000000176 .LBE220
C:\Users\Duckb\AppData\Local\Temp\ccEgig1L.s:15842  .debug_loc:0000000000001423 .LLST36
C:\Users\Duckb\AppData\Local\Temp\ccEgig1L.s:1098   .text.Lcd_Init:0000000000000176 .LVL93
C:\Users\Duckb\AppData\Local\Temp\ccEgig1L.s:1102   .text.Lcd_Init:0000000000000176 .LBB222
C:\Users\Duckb\AppData\Local\Temp\ccEgig1L.s:1109   .text.Lcd_Init:0000000000000182 .LBE222
C:\Users\Duckb\AppData\Local\Temp\ccEgig1L.s:15851  .debug_loc:0000000000001438 .LLST37
C:\Users\Duckb\AppData\Local\Temp\ccEgig1L.s:1107   .text.Lcd_Init:0000000000000182 .LVL94
C:\Users\Duckb\AppData\Local\Temp\ccEgig1L.s:1111   .text.Lcd_Init:0000000000000182 .LBB224
C:\Users\Duckb\AppData\Local\Temp\ccEgig1L.s:1118   .text.Lcd_Init:000000000000018e .LBE224
C:\Users\Duckb\AppData\Local\Temp\ccEgig1L.s:15860  .debug_loc:000000000000144d .LLST38
C:\Users\Duckb\AppData\Local\Temp\ccEgig1L.s:1116   .text.Lcd_Init:000000000000018e .LVL95
C:\Users\Duckb\AppData\Local\Temp\ccEgig1L.s:1120   .text.Lcd_Init:000000000000018e .LBB226
C:\Users\Duckb\AppData\Local\Temp\ccEgig1L.s:1127   .text.Lcd_Init:000000000000019a .LBE226
C:\Users\Duckb\AppData\Local\Temp\ccEgig1L.s:15868  .debug_loc:0000000000001461 .LLST39
C:\Users\Duckb\AppData\Local\Temp\ccEgig1L.s:1125   .text.Lcd_Init:000000000000019a .LVL96
C:\Users\Duckb\AppData\Local\Temp\ccEgig1L.s:1129   .text.Lcd_Init:000000000000019a .LBB228
C:\Users\Duckb\AppData\Local\Temp\ccEgig1L.s:1136   .text.Lcd_Init:00000000000001a6 .LBE228
C:\Users\Duckb\AppData\Local\Temp\ccEgig1L.s:15877  .debug_loc:0000000000001476 .LLST40
C:\Users\Duckb\AppData\Local\Temp\ccEgig1L.s:1134   .text.Lcd_Init:00000000000001a6 .LVL97
C:\Users\Duckb\AppData\Local\Temp\ccEgig1L.s:1138   .text.Lcd_Init:00000000000001a6 .LBB230
C:\Users\Duckb\AppData\Local\Temp\ccEgig1L.s:1145   .text.Lcd_Init:00000000000001b2 .LBE230
C:\Users\Duckb\AppData\Local\Temp\ccEgig1L.s:15886  .debug_loc:000000000000148b .LLST41
C:\Users\Duckb\AppData\Local\Temp\ccEgig1L.s:1143   .text.Lcd_Init:00000000000001b2 .LVL98
C:\Users\Duckb\AppData\Local\Temp\ccEgig1L.s:1147   .text.Lcd_Init:00000000000001b2 .LBB232
C:\Users\Duckb\AppData\Local\Temp\ccEgig1L.s:1154   .text.Lcd_Init:00000000000001be .LBE232
C:\Users\Duckb\AppData\Local\Temp\ccEgig1L.s:15895  .debug_loc:00000000000014a0 .LLST42
C:\Users\Duckb\AppData\Local\Temp\ccEgig1L.s:1152   .text.Lcd_Init:00000000000001be .LVL99
C:\Users\Duckb\AppData\Local\Temp\ccEgig1L.s:1156   .text.Lcd_Init:00000000000001be .LBB234
C:\Users\Duckb\AppData\Local\Temp\ccEgig1L.s:1163   .text.Lcd_Init:00000000000001ca .LBE234
C:\Users\Duckb\AppData\Local\Temp\ccEgig1L.s:15903  .debug_loc:00000000000014b4 .LLST43
C:\Users\Duckb\AppData\Local\Temp\ccEgig1L.s:1161   .text.Lcd_Init:00000000000001ca .LVL100
C:\Users\Duckb\AppData\Local\Temp\ccEgig1L.s:1165   .text.Lcd_Init:00000000000001ca .LBB236
GAS LISTING C:\Users\Duckb\AppData\Local\Temp\ccEgig1L.s 			page 161


C:\Users\Duckb\AppData\Local\Temp\ccEgig1L.s:1172   .text.Lcd_Init:00000000000001d6 .LBE236
C:\Users\Duckb\AppData\Local\Temp\ccEgig1L.s:15912  .debug_loc:00000000000014c9 .LLST44
C:\Users\Duckb\AppData\Local\Temp\ccEgig1L.s:1170   .text.Lcd_Init:00000000000001d6 .LVL101
C:\Users\Duckb\AppData\Local\Temp\ccEgig1L.s:1174   .text.Lcd_Init:00000000000001d6 .LBB238
C:\Users\Duckb\AppData\Local\Temp\ccEgig1L.s:1181   .text.Lcd_Init:00000000000001e2 .LBE238
C:\Users\Duckb\AppData\Local\Temp\ccEgig1L.s:15921  .debug_loc:00000000000014de .LLST45
C:\Users\Duckb\AppData\Local\Temp\ccEgig1L.s:1179   .text.Lcd_Init:00000000000001e2 .LVL102
C:\Users\Duckb\AppData\Local\Temp\ccEgig1L.s:1183   .text.Lcd_Init:00000000000001e2 .LBB240
C:\Users\Duckb\AppData\Local\Temp\ccEgig1L.s:1190   .text.Lcd_Init:00000000000001ee .LBE240
C:\Users\Duckb\AppData\Local\Temp\ccEgig1L.s:15929  .debug_loc:00000000000014f2 .LLST46
C:\Users\Duckb\AppData\Local\Temp\ccEgig1L.s:1188   .text.Lcd_Init:00000000000001ee .LVL103
C:\Users\Duckb\AppData\Local\Temp\ccEgig1L.s:1192   .text.Lcd_Init:00000000000001ee .LBB242
C:\Users\Duckb\AppData\Local\Temp\ccEgig1L.s:1199   .text.Lcd_Init:00000000000001fa .LBE242
C:\Users\Duckb\AppData\Local\Temp\ccEgig1L.s:15937  .debug_loc:0000000000001506 .LLST47
C:\Users\Duckb\AppData\Local\Temp\ccEgig1L.s:1197   .text.Lcd_Init:00000000000001fa .LVL104
C:\Users\Duckb\AppData\Local\Temp\ccEgig1L.s:1201   .text.Lcd_Init:00000000000001fa .LBB244
C:\Users\Duckb\AppData\Local\Temp\ccEgig1L.s:1208   .text.Lcd_Init:0000000000000206 .LBE244
C:\Users\Duckb\AppData\Local\Temp\ccEgig1L.s:15946  .debug_loc:000000000000151b .LLST48
C:\Users\Duckb\AppData\Local\Temp\ccEgig1L.s:1206   .text.Lcd_Init:0000000000000206 .LVL105
C:\Users\Duckb\AppData\Local\Temp\ccEgig1L.s:1210   .text.Lcd_Init:0000000000000206 .LBB246
C:\Users\Duckb\AppData\Local\Temp\ccEgig1L.s:1217   .text.Lcd_Init:0000000000000212 .LBE246
C:\Users\Duckb\AppData\Local\Temp\ccEgig1L.s:15955  .debug_loc:0000000000001530 .LLST49
C:\Users\Duckb\AppData\Local\Temp\ccEgig1L.s:1215   .text.Lcd_Init:0000000000000212 .LVL106
C:\Users\Duckb\AppData\Local\Temp\ccEgig1L.s:1219   .text.Lcd_Init:0000000000000212 .LBB248
C:\Users\Duckb\AppData\Local\Temp\ccEgig1L.s:1226   .text.Lcd_Init:000000000000021e .LBE248
C:\Users\Duckb\AppData\Local\Temp\ccEgig1L.s:15964  .debug_loc:0000000000001545 .LLST50
C:\Users\Duckb\AppData\Local\Temp\ccEgig1L.s:1224   .text.Lcd_Init:000000000000021e .LVL107
C:\Users\Duckb\AppData\Local\Temp\ccEgig1L.s:1228   .text.Lcd_Init:000000000000021e .LBB250
C:\Users\Duckb\AppData\Local\Temp\ccEgig1L.s:1235   .text.Lcd_Init:000000000000022a .LBE250
C:\Users\Duckb\AppData\Local\Temp\ccEgig1L.s:15972  .debug_loc:0000000000001559 .LLST51
C:\Users\Duckb\AppData\Local\Temp\ccEgig1L.s:1233   .text.Lcd_Init:000000000000022a .LVL108
C:\Users\Duckb\AppData\Local\Temp\ccEgig1L.s:1237   .text.Lcd_Init:000000000000022a .LBB252
C:\Users\Duckb\AppData\Local\Temp\ccEgig1L.s:1244   .text.Lcd_Init:0000000000000236 .LBE252
C:\Users\Duckb\AppData\Local\Temp\ccEgig1L.s:15980  .debug_loc:000000000000156d .LLST52
C:\Users\Duckb\AppData\Local\Temp\ccEgig1L.s:1242   .text.Lcd_Init:0000000000000236 .LVL109
C:\Users\Duckb\AppData\Local\Temp\ccEgig1L.s:1246   .text.Lcd_Init:0000000000000236 .LBB254
C:\Users\Duckb\AppData\Local\Temp\ccEgig1L.s:1253   .text.Lcd_Init:0000000000000242 .LBE254
C:\Users\Duckb\AppData\Local\Temp\ccEgig1L.s:15989  .debug_loc:0000000000001582 .LLST53
C:\Users\Duckb\AppData\Local\Temp\ccEgig1L.s:1251   .text.Lcd_Init:0000000000000242 .LVL110
C:\Users\Duckb\AppData\Local\Temp\ccEgig1L.s:1255   .text.Lcd_Init:0000000000000242 .LBB256
C:\Users\Duckb\AppData\Local\Temp\ccEgig1L.s:1262   .text.Lcd_Init:000000000000024e .LBE256
C:\Users\Duckb\AppData\Local\Temp\ccEgig1L.s:15998  .debug_loc:0000000000001597 .LLST54
C:\Users\Duckb\AppData\Local\Temp\ccEgig1L.s:1260   .text.Lcd_Init:000000000000024e .LVL111
C:\Users\Duckb\AppData\Local\Temp\ccEgig1L.s:1264   .text.Lcd_Init:000000000000024e .LBB258
C:\Users\Duckb\AppData\Local\Temp\ccEgig1L.s:1271   .text.Lcd_Init:000000000000025a .LBE258
C:\Users\Duckb\AppData\Local\Temp\ccEgig1L.s:16007  .debug_loc:00000000000015ac .LLST55
C:\Users\Duckb\AppData\Local\Temp\ccEgig1L.s:1269   .text.Lcd_Init:000000000000025a .LVL112
C:\Users\Duckb\AppData\Local\Temp\ccEgig1L.s:1273   .text.Lcd_Init:000000000000025a .LBB260
C:\Users\Duckb\AppData\Local\Temp\ccEgig1L.s:1280   .text.Lcd_Init:0000000000000266 .LBE260
C:\Users\Duckb\AppData\Local\Temp\ccEgig1L.s:16016  .debug_loc:00000000000015c1 .LLST56
C:\Users\Duckb\AppData\Local\Temp\ccEgig1L.s:1278   .text.Lcd_Init:0000000000000266 .LVL113
C:\Users\Duckb\AppData\Local\Temp\ccEgig1L.s:1282   .text.Lcd_Init:0000000000000266 .LBB262
C:\Users\Duckb\AppData\Local\Temp\ccEgig1L.s:1289   .text.Lcd_Init:0000000000000272 .LBE262
C:\Users\Duckb\AppData\Local\Temp\ccEgig1L.s:16025  .debug_loc:00000000000015d6 .LLST57
C:\Users\Duckb\AppData\Local\Temp\ccEgig1L.s:1287   .text.Lcd_Init:0000000000000272 .LVL114
C:\Users\Duckb\AppData\Local\Temp\ccEgig1L.s:1291   .text.Lcd_Init:0000000000000272 .LBB264
C:\Users\Duckb\AppData\Local\Temp\ccEgig1L.s:1298   .text.Lcd_Init:000000000000027e .LBE264
GAS LISTING C:\Users\Duckb\AppData\Local\Temp\ccEgig1L.s 			page 162


C:\Users\Duckb\AppData\Local\Temp\ccEgig1L.s:16034  .debug_loc:00000000000015eb .LLST58
C:\Users\Duckb\AppData\Local\Temp\ccEgig1L.s:1296   .text.Lcd_Init:000000000000027e .LVL115
C:\Users\Duckb\AppData\Local\Temp\ccEgig1L.s:1300   .text.Lcd_Init:000000000000027e .LBB266
C:\Users\Duckb\AppData\Local\Temp\ccEgig1L.s:1307   .text.Lcd_Init:000000000000028a .LBE266
C:\Users\Duckb\AppData\Local\Temp\ccEgig1L.s:16043  .debug_loc:0000000000001600 .LLST59
C:\Users\Duckb\AppData\Local\Temp\ccEgig1L.s:1305   .text.Lcd_Init:000000000000028a .LVL116
C:\Users\Duckb\AppData\Local\Temp\ccEgig1L.s:1309   .text.Lcd_Init:000000000000028a .LBB268
C:\Users\Duckb\AppData\Local\Temp\ccEgig1L.s:1316   .text.Lcd_Init:0000000000000296 .LBE268
C:\Users\Duckb\AppData\Local\Temp\ccEgig1L.s:16051  .debug_loc:0000000000001614 .LLST60
C:\Users\Duckb\AppData\Local\Temp\ccEgig1L.s:1314   .text.Lcd_Init:0000000000000296 .LVL117
C:\Users\Duckb\AppData\Local\Temp\ccEgig1L.s:1318   .text.Lcd_Init:0000000000000296 .LBB270
C:\Users\Duckb\AppData\Local\Temp\ccEgig1L.s:1325   .text.Lcd_Init:00000000000002a2 .LBE270
C:\Users\Duckb\AppData\Local\Temp\ccEgig1L.s:16060  .debug_loc:0000000000001629 .LLST61
C:\Users\Duckb\AppData\Local\Temp\ccEgig1L.s:1323   .text.Lcd_Init:00000000000002a2 .LVL118
C:\Users\Duckb\AppData\Local\Temp\ccEgig1L.s:1327   .text.Lcd_Init:00000000000002a2 .LBB272
C:\Users\Duckb\AppData\Local\Temp\ccEgig1L.s:1334   .text.Lcd_Init:00000000000002ae .LBE272
C:\Users\Duckb\AppData\Local\Temp\ccEgig1L.s:16068  .debug_loc:000000000000163d .LLST62
C:\Users\Duckb\AppData\Local\Temp\ccEgig1L.s:1332   .text.Lcd_Init:00000000000002ae .LVL119
C:\Users\Duckb\AppData\Local\Temp\ccEgig1L.s:1336   .text.Lcd_Init:00000000000002ae .LBB274
C:\Users\Duckb\AppData\Local\Temp\ccEgig1L.s:1343   .text.Lcd_Init:00000000000002ba .LBE274
C:\Users\Duckb\AppData\Local\Temp\ccEgig1L.s:16076  .debug_loc:0000000000001651 .LLST63
C:\Users\Duckb\AppData\Local\Temp\ccEgig1L.s:1341   .text.Lcd_Init:00000000000002ba .LVL120
C:\Users\Duckb\AppData\Local\Temp\ccEgig1L.s:1345   .text.Lcd_Init:00000000000002ba .LBB276
C:\Users\Duckb\AppData\Local\Temp\ccEgig1L.s:1352   .text.Lcd_Init:00000000000002c6 .LBE276
C:\Users\Duckb\AppData\Local\Temp\ccEgig1L.s:16084  .debug_loc:0000000000001665 .LLST64
C:\Users\Duckb\AppData\Local\Temp\ccEgig1L.s:1350   .text.Lcd_Init:00000000000002c6 .LVL121
C:\Users\Duckb\AppData\Local\Temp\ccEgig1L.s:1354   .text.Lcd_Init:00000000000002c6 .LBB278
C:\Users\Duckb\AppData\Local\Temp\ccEgig1L.s:1361   .text.Lcd_Init:00000000000002d2 .LBE278
C:\Users\Duckb\AppData\Local\Temp\ccEgig1L.s:16092  .debug_loc:0000000000001679 .LLST65
C:\Users\Duckb\AppData\Local\Temp\ccEgig1L.s:1359   .text.Lcd_Init:00000000000002d2 .LVL122
C:\Users\Duckb\AppData\Local\Temp\ccEgig1L.s:1363   .text.Lcd_Init:00000000000002d2 .LBB280
C:\Users\Duckb\AppData\Local\Temp\ccEgig1L.s:1370   .text.Lcd_Init:00000000000002de .LBE280
C:\Users\Duckb\AppData\Local\Temp\ccEgig1L.s:16100  .debug_loc:000000000000168d .LLST66
C:\Users\Duckb\AppData\Local\Temp\ccEgig1L.s:1368   .text.Lcd_Init:00000000000002de .LVL123
C:\Users\Duckb\AppData\Local\Temp\ccEgig1L.s:1372   .text.Lcd_Init:00000000000002de .LBB282
C:\Users\Duckb\AppData\Local\Temp\ccEgig1L.s:1379   .text.Lcd_Init:00000000000002ea .LBE282
C:\Users\Duckb\AppData\Local\Temp\ccEgig1L.s:16108  .debug_loc:00000000000016a1 .LLST67
C:\Users\Duckb\AppData\Local\Temp\ccEgig1L.s:1377   .text.Lcd_Init:00000000000002ea .LVL124
C:\Users\Duckb\AppData\Local\Temp\ccEgig1L.s:1381   .text.Lcd_Init:00000000000002ea .LBB284
C:\Users\Duckb\AppData\Local\Temp\ccEgig1L.s:1388   .text.Lcd_Init:00000000000002f6 .LBE284
C:\Users\Duckb\AppData\Local\Temp\ccEgig1L.s:16116  .debug_loc:00000000000016b5 .LLST68
C:\Users\Duckb\AppData\Local\Temp\ccEgig1L.s:1386   .text.Lcd_Init:00000000000002f6 .LVL125
C:\Users\Duckb\AppData\Local\Temp\ccEgig1L.s:1390   .text.Lcd_Init:00000000000002f6 .LBB286
C:\Users\Duckb\AppData\Local\Temp\ccEgig1L.s:1397   .text.Lcd_Init:0000000000000302 .LBE286
C:\Users\Duckb\AppData\Local\Temp\ccEgig1L.s:16124  .debug_loc:00000000000016c9 .LLST69
C:\Users\Duckb\AppData\Local\Temp\ccEgig1L.s:1395   .text.Lcd_Init:0000000000000302 .LVL126
C:\Users\Duckb\AppData\Local\Temp\ccEgig1L.s:1399   .text.Lcd_Init:0000000000000302 .LBB288
C:\Users\Duckb\AppData\Local\Temp\ccEgig1L.s:1406   .text.Lcd_Init:000000000000030e .LBE288
C:\Users\Duckb\AppData\Local\Temp\ccEgig1L.s:16132  .debug_loc:00000000000016dd .LLST70
C:\Users\Duckb\AppData\Local\Temp\ccEgig1L.s:1404   .text.Lcd_Init:000000000000030e .LVL127
C:\Users\Duckb\AppData\Local\Temp\ccEgig1L.s:1408   .text.Lcd_Init:000000000000030e .LBB290
C:\Users\Duckb\AppData\Local\Temp\ccEgig1L.s:1415   .text.Lcd_Init:000000000000031a .LBE290
C:\Users\Duckb\AppData\Local\Temp\ccEgig1L.s:16140  .debug_loc:00000000000016f1 .LLST71
C:\Users\Duckb\AppData\Local\Temp\ccEgig1L.s:1413   .text.Lcd_Init:000000000000031a .LVL128
C:\Users\Duckb\AppData\Local\Temp\ccEgig1L.s:1417   .text.Lcd_Init:000000000000031a .LBB292
C:\Users\Duckb\AppData\Local\Temp\ccEgig1L.s:1424   .text.Lcd_Init:0000000000000326 .LBE292
C:\Users\Duckb\AppData\Local\Temp\ccEgig1L.s:16149  .debug_loc:0000000000001706 .LLST72
GAS LISTING C:\Users\Duckb\AppData\Local\Temp\ccEgig1L.s 			page 163


C:\Users\Duckb\AppData\Local\Temp\ccEgig1L.s:1422   .text.Lcd_Init:0000000000000326 .LVL129
C:\Users\Duckb\AppData\Local\Temp\ccEgig1L.s:1426   .text.Lcd_Init:0000000000000326 .LBB294
C:\Users\Duckb\AppData\Local\Temp\ccEgig1L.s:1433   .text.Lcd_Init:0000000000000332 .LBE294
C:\Users\Duckb\AppData\Local\Temp\ccEgig1L.s:16158  .debug_loc:000000000000171b .LLST73
C:\Users\Duckb\AppData\Local\Temp\ccEgig1L.s:1431   .text.Lcd_Init:0000000000000332 .LVL130
C:\Users\Duckb\AppData\Local\Temp\ccEgig1L.s:1435   .text.Lcd_Init:0000000000000332 .LBB296
C:\Users\Duckb\AppData\Local\Temp\ccEgig1L.s:1442   .text.Lcd_Init:000000000000033e .LBE296
C:\Users\Duckb\AppData\Local\Temp\ccEgig1L.s:16166  .debug_loc:000000000000172f .LLST74
C:\Users\Duckb\AppData\Local\Temp\ccEgig1L.s:1440   .text.Lcd_Init:000000000000033e .LVL131
C:\Users\Duckb\AppData\Local\Temp\ccEgig1L.s:1444   .text.Lcd_Init:000000000000033e .LBB298
C:\Users\Duckb\AppData\Local\Temp\ccEgig1L.s:1451   .text.Lcd_Init:000000000000034a .LBE298
C:\Users\Duckb\AppData\Local\Temp\ccEgig1L.s:16174  .debug_loc:0000000000001743 .LLST75
C:\Users\Duckb\AppData\Local\Temp\ccEgig1L.s:1449   .text.Lcd_Init:000000000000034a .LVL132
C:\Users\Duckb\AppData\Local\Temp\ccEgig1L.s:1453   .text.Lcd_Init:000000000000034a .LBB300
C:\Users\Duckb\AppData\Local\Temp\ccEgig1L.s:1460   .text.Lcd_Init:0000000000000356 .LBE300
C:\Users\Duckb\AppData\Local\Temp\ccEgig1L.s:16182  .debug_loc:0000000000001757 .LLST76
C:\Users\Duckb\AppData\Local\Temp\ccEgig1L.s:1458   .text.Lcd_Init:0000000000000356 .LVL133
C:\Users\Duckb\AppData\Local\Temp\ccEgig1L.s:1462   .text.Lcd_Init:0000000000000356 .LBB302
C:\Users\Duckb\AppData\Local\Temp\ccEgig1L.s:1469   .text.Lcd_Init:0000000000000362 .LBE302
C:\Users\Duckb\AppData\Local\Temp\ccEgig1L.s:16190  .debug_loc:000000000000176b .LLST77
C:\Users\Duckb\AppData\Local\Temp\ccEgig1L.s:1467   .text.Lcd_Init:0000000000000362 .LVL134
C:\Users\Duckb\AppData\Local\Temp\ccEgig1L.s:1471   .text.Lcd_Init:0000000000000362 .LBB304
C:\Users\Duckb\AppData\Local\Temp\ccEgig1L.s:1478   .text.Lcd_Init:000000000000036e .LBE304
C:\Users\Duckb\AppData\Local\Temp\ccEgig1L.s:16199  .debug_loc:0000000000001780 .LLST78
C:\Users\Duckb\AppData\Local\Temp\ccEgig1L.s:1476   .text.Lcd_Init:000000000000036e .LVL135
C:\Users\Duckb\AppData\Local\Temp\ccEgig1L.s:1480   .text.Lcd_Init:000000000000036e .LBB306
C:\Users\Duckb\AppData\Local\Temp\ccEgig1L.s:1487   .text.Lcd_Init:000000000000037a .LBE306
C:\Users\Duckb\AppData\Local\Temp\ccEgig1L.s:16207  .debug_loc:0000000000001794 .LLST79
C:\Users\Duckb\AppData\Local\Temp\ccEgig1L.s:1485   .text.Lcd_Init:000000000000037a .LVL136
C:\Users\Duckb\AppData\Local\Temp\ccEgig1L.s:1489   .text.Lcd_Init:000000000000037a .LBB308
C:\Users\Duckb\AppData\Local\Temp\ccEgig1L.s:1496   .text.Lcd_Init:0000000000000386 .LBE308
C:\Users\Duckb\AppData\Local\Temp\ccEgig1L.s:16215  .debug_loc:00000000000017a8 .LLST80
C:\Users\Duckb\AppData\Local\Temp\ccEgig1L.s:1494   .text.Lcd_Init:0000000000000386 .LVL137
C:\Users\Duckb\AppData\Local\Temp\ccEgig1L.s:1498   .text.Lcd_Init:0000000000000386 .LBB310
C:\Users\Duckb\AppData\Local\Temp\ccEgig1L.s:1505   .text.Lcd_Init:0000000000000392 .LBE310
C:\Users\Duckb\AppData\Local\Temp\ccEgig1L.s:16223  .debug_loc:00000000000017bc .LLST81
C:\Users\Duckb\AppData\Local\Temp\ccEgig1L.s:1503   .text.Lcd_Init:0000000000000392 .LVL138
C:\Users\Duckb\AppData\Local\Temp\ccEgig1L.s:1507   .text.Lcd_Init:0000000000000392 .LBB312
C:\Users\Duckb\AppData\Local\Temp\ccEgig1L.s:1514   .text.Lcd_Init:000000000000039e .LBE312
C:\Users\Duckb\AppData\Local\Temp\ccEgig1L.s:16231  .debug_loc:00000000000017d0 .LLST82
C:\Users\Duckb\AppData\Local\Temp\ccEgig1L.s:1512   .text.Lcd_Init:000000000000039e .LVL139
C:\Users\Duckb\AppData\Local\Temp\ccEgig1L.s:1516   .text.Lcd_Init:000000000000039e .LBB314
C:\Users\Duckb\AppData\Local\Temp\ccEgig1L.s:1523   .text.Lcd_Init:00000000000003aa .LBE314
C:\Users\Duckb\AppData\Local\Temp\ccEgig1L.s:16239  .debug_loc:00000000000017e4 .LLST83
C:\Users\Duckb\AppData\Local\Temp\ccEgig1L.s:1521   .text.Lcd_Init:00000000000003aa .LVL140
C:\Users\Duckb\AppData\Local\Temp\ccEgig1L.s:1525   .text.Lcd_Init:00000000000003aa .LBB316
C:\Users\Duckb\AppData\Local\Temp\ccEgig1L.s:1532   .text.Lcd_Init:00000000000003b6 .LBE316
C:\Users\Duckb\AppData\Local\Temp\ccEgig1L.s:16247  .debug_loc:00000000000017f8 .LLST84
C:\Users\Duckb\AppData\Local\Temp\ccEgig1L.s:1530   .text.Lcd_Init:00000000000003b6 .LVL141
C:\Users\Duckb\AppData\Local\Temp\ccEgig1L.s:1534   .text.Lcd_Init:00000000000003b6 .LBB318
C:\Users\Duckb\AppData\Local\Temp\ccEgig1L.s:1541   .text.Lcd_Init:00000000000003c2 .LBE318
C:\Users\Duckb\AppData\Local\Temp\ccEgig1L.s:16255  .debug_loc:000000000000180c .LLST85
C:\Users\Duckb\AppData\Local\Temp\ccEgig1L.s:1539   .text.Lcd_Init:00000000000003c2 .LVL142
C:\Users\Duckb\AppData\Local\Temp\ccEgig1L.s:1543   .text.Lcd_Init:00000000000003c2 .LBB320
C:\Users\Duckb\AppData\Local\Temp\ccEgig1L.s:1550   .text.Lcd_Init:00000000000003ce .LBE320
C:\Users\Duckb\AppData\Local\Temp\ccEgig1L.s:16263  .debug_loc:0000000000001820 .LLST86
C:\Users\Duckb\AppData\Local\Temp\ccEgig1L.s:1548   .text.Lcd_Init:00000000000003ce .LVL143
GAS LISTING C:\Users\Duckb\AppData\Local\Temp\ccEgig1L.s 			page 164


C:\Users\Duckb\AppData\Local\Temp\ccEgig1L.s:1552   .text.Lcd_Init:00000000000003ce .LBB322
C:\Users\Duckb\AppData\Local\Temp\ccEgig1L.s:1559   .text.Lcd_Init:00000000000003da .LBE322
C:\Users\Duckb\AppData\Local\Temp\ccEgig1L.s:16271  .debug_loc:0000000000001834 .LLST87
C:\Users\Duckb\AppData\Local\Temp\ccEgig1L.s:1557   .text.Lcd_Init:00000000000003da .LVL144
C:\Users\Duckb\AppData\Local\Temp\ccEgig1L.s:1561   .text.Lcd_Init:00000000000003da .LBB324
C:\Users\Duckb\AppData\Local\Temp\ccEgig1L.s:1568   .text.Lcd_Init:00000000000003e6 .LBE324
C:\Users\Duckb\AppData\Local\Temp\ccEgig1L.s:16279  .debug_loc:0000000000001848 .LLST88
C:\Users\Duckb\AppData\Local\Temp\ccEgig1L.s:1566   .text.Lcd_Init:00000000000003e6 .LVL145
C:\Users\Duckb\AppData\Local\Temp\ccEgig1L.s:1570   .text.Lcd_Init:00000000000003e6 .LBB326
C:\Users\Duckb\AppData\Local\Temp\ccEgig1L.s:1577   .text.Lcd_Init:00000000000003f2 .LBE326
C:\Users\Duckb\AppData\Local\Temp\ccEgig1L.s:16288  .debug_loc:000000000000185d .LLST89
C:\Users\Duckb\AppData\Local\Temp\ccEgig1L.s:1575   .text.Lcd_Init:00000000000003f2 .LVL146
C:\Users\Duckb\AppData\Local\Temp\ccEgig1L.s:1579   .text.Lcd_Init:00000000000003f2 .LBB328
C:\Users\Duckb\AppData\Local\Temp\ccEgig1L.s:1586   .text.Lcd_Init:00000000000003fe .LBE328
C:\Users\Duckb\AppData\Local\Temp\ccEgig1L.s:16297  .debug_loc:0000000000001872 .LLST90
C:\Users\Duckb\AppData\Local\Temp\ccEgig1L.s:1584   .text.Lcd_Init:00000000000003fe .LVL147
C:\Users\Duckb\AppData\Local\Temp\ccEgig1L.s:1588   .text.Lcd_Init:00000000000003fe .LBB330
C:\Users\Duckb\AppData\Local\Temp\ccEgig1L.s:1595   .text.Lcd_Init:000000000000040a .LBE330
C:\Users\Duckb\AppData\Local\Temp\ccEgig1L.s:16305  .debug_loc:0000000000001886 .LLST91
C:\Users\Duckb\AppData\Local\Temp\ccEgig1L.s:1593   .text.Lcd_Init:000000000000040a .LVL148
C:\Users\Duckb\AppData\Local\Temp\ccEgig1L.s:1597   .text.Lcd_Init:000000000000040a .LBB332
C:\Users\Duckb\AppData\Local\Temp\ccEgig1L.s:1604   .text.Lcd_Init:0000000000000416 .LBE332
C:\Users\Duckb\AppData\Local\Temp\ccEgig1L.s:16313  .debug_loc:000000000000189a .LLST92
C:\Users\Duckb\AppData\Local\Temp\ccEgig1L.s:1602   .text.Lcd_Init:0000000000000416 .LVL149
C:\Users\Duckb\AppData\Local\Temp\ccEgig1L.s:1606   .text.Lcd_Init:0000000000000416 .LBB334
C:\Users\Duckb\AppData\Local\Temp\ccEgig1L.s:1613   .text.Lcd_Init:0000000000000422 .LBE334
C:\Users\Duckb\AppData\Local\Temp\ccEgig1L.s:16321  .debug_loc:00000000000018ae .LLST93
C:\Users\Duckb\AppData\Local\Temp\ccEgig1L.s:1611   .text.Lcd_Init:0000000000000422 .LVL150
C:\Users\Duckb\AppData\Local\Temp\ccEgig1L.s:1615   .text.Lcd_Init:0000000000000422 .LBB336
C:\Users\Duckb\AppData\Local\Temp\ccEgig1L.s:1622   .text.Lcd_Init:000000000000042e .LBE336
C:\Users\Duckb\AppData\Local\Temp\ccEgig1L.s:16329  .debug_loc:00000000000018c2 .LLST94
C:\Users\Duckb\AppData\Local\Temp\ccEgig1L.s:1620   .text.Lcd_Init:000000000000042e .LVL151
C:\Users\Duckb\AppData\Local\Temp\ccEgig1L.s:1624   .text.Lcd_Init:000000000000042e .LBB338
C:\Users\Duckb\AppData\Local\Temp\ccEgig1L.s:1631   .text.Lcd_Init:000000000000043a .LBE338
C:\Users\Duckb\AppData\Local\Temp\ccEgig1L.s:16338  .debug_loc:00000000000018d7 .LLST95
C:\Users\Duckb\AppData\Local\Temp\ccEgig1L.s:1629   .text.Lcd_Init:000000000000043a .LVL152
C:\Users\Duckb\AppData\Local\Temp\ccEgig1L.s:1633   .text.Lcd_Init:000000000000043a .LBB340
C:\Users\Duckb\AppData\Local\Temp\ccEgig1L.s:1640   .text.Lcd_Init:0000000000000446 .LBE340
C:\Users\Duckb\AppData\Local\Temp\ccEgig1L.s:16346  .debug_loc:00000000000018eb .LLST96
C:\Users\Duckb\AppData\Local\Temp\ccEgig1L.s:1638   .text.Lcd_Init:0000000000000446 .LVL153
C:\Users\Duckb\AppData\Local\Temp\ccEgig1L.s:1642   .text.Lcd_Init:0000000000000446 .LBB342
C:\Users\Duckb\AppData\Local\Temp\ccEgig1L.s:1649   .text.Lcd_Init:0000000000000452 .LBE342
C:\Users\Duckb\AppData\Local\Temp\ccEgig1L.s:16355  .debug_loc:0000000000001900 .LLST97
C:\Users\Duckb\AppData\Local\Temp\ccEgig1L.s:1647   .text.Lcd_Init:0000000000000452 .LVL154
C:\Users\Duckb\AppData\Local\Temp\ccEgig1L.s:1651   .text.Lcd_Init:0000000000000452 .LBB344
C:\Users\Duckb\AppData\Local\Temp\ccEgig1L.s:1675   .text.Lcd_Init:0000000000000464 .LVL155
C:\Users\Duckb\AppData\Local\Temp\ccEgig1L.s:899    .text.Lcd_Init:000000000000001e .LVL63
C:\Users\Duckb\AppData\Local\Temp\ccEgig1L.s:904    .text.Lcd_Init:000000000000002a .LVL64
C:\Users\Duckb\AppData\Local\Temp\ccEgig1L.s:908    .text.Lcd_Init:0000000000000036 .LVL65
C:\Users\Duckb\AppData\Local\Temp\ccEgig1L.s:912    .text.Lcd_Init:0000000000000042 .LVL66
C:\Users\Duckb\AppData\Local\Temp\ccEgig1L.s:916    .text.Lcd_Init:000000000000004e .LVL67
C:\Users\Duckb\AppData\Local\Temp\ccEgig1L.s:924    .text.Lcd_Init:0000000000000064 .LVL68
C:\Users\Duckb\AppData\Local\Temp\ccEgig1L.s:931    .text.Lcd_Init:0000000000000076 .LVL69
C:\Users\Duckb\AppData\Local\Temp\ccEgig1L.s:934    .text.Lcd_Init:000000000000007e .LVL70
C:\Users\Duckb\AppData\Local\Temp\ccEgig1L.s:939    .text.Lcd_Init:000000000000008c .LVL71
C:\Users\Duckb\AppData\Local\Temp\ccEgig1L.s:942    .text.Lcd_Init:0000000000000094 .LVL72
C:\Users\Duckb\AppData\Local\Temp\ccEgig1L.s:946    .text.Lcd_Init:00000000000000a0 .LVL73
GAS LISTING C:\Users\Duckb\AppData\Local\Temp\ccEgig1L.s 			page 165


C:\Users\Duckb\AppData\Local\Temp\ccEgig1L.s:958    .text.Lcd_Init:00000000000000b2 .LVL75
C:\Users\Duckb\AppData\Local\Temp\ccEgig1L.s:962    .text.Lcd_Init:00000000000000be .LVL76
C:\Users\Duckb\AppData\Local\Temp\ccEgig1L.s:974    .text.Lcd_Init:00000000000000d0 .LVL78
C:\Users\Duckb\AppData\Local\Temp\ccEgig1L.s:978    .text.Lcd_Init:00000000000000dc .LVL79
C:\Users\Duckb\AppData\Local\Temp\ccEgig1L.s:17450  .debug_str:000000000000043b .LASF226
C:\Users\Duckb\AppData\Local\Temp\ccEgig1L.s:17348  .debug_str:00000000000001fa .LASF227
C:\Users\Duckb\AppData\Local\Temp\ccEgig1L.s:17724  .debug_str:0000000000000999 .LASF228
C:\Users\Duckb\AppData\Local\Temp\ccEgig1L.s:739    .text.spi_config:0000000000000000 .LFB11
C:\Users\Duckb\AppData\Local\Temp\ccEgig1L.s:818    .text.spi_config:000000000000006c .LFE11
C:\Users\Duckb\AppData\Local\Temp\ccEgig1L.s:16364  .debug_loc:0000000000001915 .LLST21
C:\Users\Duckb\AppData\Local\Temp\ccEgig1L.s:17654  .debug_str:0000000000000833 .LASF229
C:\Users\Duckb\AppData\Local\Temp\ccEgig1L.s:758    .text.spi_config:0000000000000014 .LVL56
C:\Users\Duckb\AppData\Local\Temp\ccEgig1L.s:762    .text.spi_config:000000000000001e .LVL57
C:\Users\Duckb\AppData\Local\Temp\ccEgig1L.s:798    .text.spi_config:000000000000004a .LVL58
C:\Users\Duckb\AppData\Local\Temp\ccEgig1L.s:803    .text.spi_config:0000000000000058 .LVL59
C:\Users\Duckb\AppData\Local\Temp\ccEgig1L.s:807    .text.spi_config:0000000000000064 .LVL60
C:\Users\Duckb\AppData\Local\Temp\ccEgig1L.s:17472  .debug_str:00000000000004ab .LASF230
C:\Users\Duckb\AppData\Local\Temp\ccEgig1L.s:613    .text.LCD_Address_Set:0000000000000000 .LFB10
C:\Users\Duckb\AppData\Local\Temp\ccEgig1L.s:732    .text.LCD_Address_Set:0000000000000082 .LFE10
C:\Users\Duckb\AppData\Local\Temp\ccEgig1L.s:16382  .debug_loc:0000000000001941 .LLST14
C:\Users\Duckb\AppData\Local\Temp\ccEgig1L.s:16400  .debug_loc:000000000000196d .LLST15
C:\Users\Duckb\AppData\Local\Temp\ccEgig1L.s:16418  .debug_loc:0000000000001999 .LLST16
C:\Users\Duckb\AppData\Local\Temp\ccEgig1L.s:16435  .debug_loc:00000000000019c4 .LLST17
C:\Users\Duckb\AppData\Local\Temp\ccEgig1L.s:16452  .debug_loc:00000000000019ef .LLST18
C:\Users\Duckb\AppData\Local\Temp\ccEgig1L.s:618    .text.LCD_Address_Set:0000000000000000 .LBB172
C:\Users\Duckb\AppData\Local\Temp\ccEgig1L.s:16469  .debug_loc:0000000000001a1a .LLST19
C:\Users\Duckb\AppData\Local\Temp\ccEgig1L.s:656    .text.LCD_Address_Set:0000000000000024 .LVL47
C:\Users\Duckb\AppData\Local\Temp\ccEgig1L.s:675    .text.LCD_Address_Set:0000000000000042 .LBB178
C:\Users\Duckb\AppData\Local\Temp\ccEgig1L.s:682    .text.LCD_Address_Set:000000000000004e .LBE178
C:\Users\Duckb\AppData\Local\Temp\ccEgig1L.s:16478  .debug_loc:0000000000001a2f .LLST20
C:\Users\Duckb\AppData\Local\Temp\ccEgig1L.s:680    .text.LCD_Address_Set:000000000000004e .LVL50
C:\Users\Duckb\AppData\Local\Temp\ccEgig1L.s:700    .text.LCD_Address_Set:000000000000006e .LBB180
C:\Users\Duckb\AppData\Local\Temp\ccEgig1L.s:728    .text.LCD_Address_Set:0000000000000082 .LVL55
C:\Users\Duckb\AppData\Local\Temp\ccEgig1L.s:665    .text.LCD_Address_Set:0000000000000032 .LVL48
C:\Users\Duckb\AppData\Local\Temp\ccEgig1L.s:673    .text.LCD_Address_Set:0000000000000042 .LVL49
C:\Users\Duckb\AppData\Local\Temp\ccEgig1L.s:690    .text.LCD_Address_Set:000000000000005e .LVL51
C:\Users\Duckb\AppData\Local\Temp\ccEgig1L.s:698    .text.LCD_Address_Set:000000000000006e .LVL52
C:\Users\Duckb\AppData\Local\Temp\ccEgig1L.s:17510  .debug_str:0000000000000582 .LASF231
C:\Users\Duckb\AppData\Local\Temp\ccEgig1L.s:17558  .debug_str:0000000000000662 .LASF232
C:\Users\Duckb\AppData\Local\Temp\ccEgig1L.s:549    .text.LCD_WR_DATA:0000000000000000 .LFB8
C:\Users\Duckb\AppData\Local\Temp\ccEgig1L.s:591    .text.LCD_WR_DATA:000000000000002c .LFE8
C:\Users\Duckb\AppData\Local\Temp\ccEgig1L.s:16487  .debug_loc:0000000000001a44 .LLST11
C:\Users\Duckb\AppData\Local\Temp\ccEgig1L.s:16505  .debug_loc:0000000000001a70 .LLST12
C:\Users\Duckb\AppData\Local\Temp\ccEgig1L.s:571    .text.LCD_WR_DATA:0000000000000016 .LVL40
C:\Users\Duckb\AppData\Local\Temp\ccEgig1L.s:589    .text.LCD_WR_DATA:000000000000002c .LVL42
C:\Users\Duckb\AppData\Local\Temp\ccEgig1L.s:17614  .debug_str:0000000000000774 .LASF233
C:\Users\Duckb\AppData\Local\Temp\ccEgig1L.s:17720  .debug_str:0000000000000982 .LASF234
C:\Users\Duckb\AppData\Local\Temp\ccEgig1L.s:436    .text.LCD_Writ_Bus:0000000000000000 .LFB6
C:\Users\Duckb\AppData\Local\Temp\ccEgig1L.s:525    .text.LCD_Writ_Bus:0000000000000078 .LFE6
C:\Users\Duckb\AppData\Local\Temp\ccEgig1L.s:16523  .debug_loc:0000000000001a9c .LLST8
C:\Users\Duckb\AppData\Local\Temp\ccEgig1L.s:16541  .debug_loc:0000000000001ac8 .LLST9
C:\Users\Duckb\AppData\Local\Temp\ccEgig1L.s:467    .text.LCD_Writ_Bus:0000000000000022 .LVL29
C:\Users\Duckb\AppData\Local\Temp\ccEgig1L.s:475    .text.LCD_Writ_Bus:000000000000002e .LVL30
C:\Users\Duckb\AppData\Local\Temp\ccEgig1L.s:485    .text.LCD_Writ_Bus:0000000000000042 .LVL31
C:\Users\Duckb\AppData\Local\Temp\ccEgig1L.s:495    .text.LCD_Writ_Bus:0000000000000052 .LVL32
C:\Users\Duckb\AppData\Local\Temp\ccEgig1L.s:501    .text.LCD_Writ_Bus:0000000000000060 .LVL33
C:\Users\Duckb\AppData\Local\Temp\ccEgig1L.s:523    .text.LCD_Writ_Bus:0000000000000078 .LVL34
GAS LISTING C:\Users\Duckb\AppData\Local\Temp\ccEgig1L.s 			page 166


C:\Users\Duckb\AppData\Local\Temp\ccEgig1L.s:17462  .debug_str:0000000000000472 .LASF235
C:\Users\Duckb\AppData\Local\Temp\ccEgig1L.s:357    .text.LCD_Write_Bus:0000000000000000 .LFB5
C:\Users\Duckb\AppData\Local\Temp\ccEgig1L.s:429    .text.LCD_Write_Bus:0000000000000058 .LFE5
C:\Users\Duckb\AppData\Local\Temp\ccEgig1L.s:16555  .debug_loc:0000000000001ae9 .LLST6
C:\Users\Duckb\AppData\Local\Temp\ccEgig1L.s:16578  .debug_loc:0000000000001b21 .LLST7
C:\Users\Duckb\AppData\Local\Temp\ccEgig1L.s:425    .text.LCD_Write_Bus:0000000000000054 .LVL26
C:\Users\Duckb\AppData\Local\Temp\ccEgig1L.s:17330  .debug_str:0000000000000115 .LASF257
C:\Users\Duckb\AppData\Local\Temp\ccEgig1L.s:17352  .debug_str:0000000000000205 .LASF258
C:\Users\Duckb\AppData\Local\Temp\ccEgig1L.s:308    .text.LCD_Wait_On_Queue:0000000000000000 .LFB3
C:\Users\Duckb\AppData\Local\Temp\ccEgig1L.s:350    .text.LCD_Wait_On_Queue:0000000000000030 .LFE3
C:\Users\Duckb\AppData\Local\Temp\ccEgig1L.s:16592  .debug_loc:0000000000001b42 .LLST5
C:\Users\Duckb\AppData\Local\Temp\ccEgig1L.s:347    .text.LCD_Wait_On_Queue:000000000000002e .LVL23
C:\Users\Duckb\AppData\Local\Temp\ccEgig1L.s:17512  .debug_str:000000000000058d .LASF236
C:\Users\Duckb\AppData\Local\Temp\ccEgig1L.s:19     .text.lcd_delay_1ms:0000000000000000 .LFB2
C:\Users\Duckb\AppData\Local\Temp\ccEgig1L.s:160    .text.lcd_delay_1ms:00000000000000ce .LFE2
C:\Users\Duckb\AppData\Local\Temp\ccEgig1L.s:16615  .debug_loc:0000000000001b7a .LLST0
C:\Users\Duckb\AppData\Local\Temp\ccEgig1L.s:17356  .debug_str:0000000000000222 .LASF237
C:\Users\Duckb\AppData\Local\Temp\ccEgig1L.s:16633  .debug_loc:0000000000001ba6 .LLST1
C:\Users\Duckb\AppData\Local\Temp\ccEgig1L.s:17442  .debug_str:0000000000000418 .LASF238
C:\Users\Duckb\AppData\Local\Temp\ccEgig1L.s:16651  .debug_loc:0000000000001bd2 .LLST2
C:\Users\Duckb\AppData\Local\Temp\ccEgig1L.s:17524  .debug_str:00000000000005d1 .LASF239
C:\Users\Duckb\AppData\Local\Temp\ccEgig1L.s:16663  .debug_loc:0000000000001bea .LLST3
C:\Users\Duckb\AppData\Local\Temp\ccEgig1L.s:56     .text.lcd_delay_1ms:0000000000000022 .LVL1
C:\Users\Duckb\AppData\Local\Temp\ccEgig1L.s:65     .text.lcd_delay_1ms:000000000000002e .LVL3
C:\Users\Duckb\AppData\Local\Temp\ccEgig1L.s:84     .text.lcd_delay_1ms:0000000000000052 .LVL6
C:\Users\Duckb\AppData\Local\Temp\ccEgig1L.s:167    .text.LCD_WR_Queue:0000000000000000 .LFB4
C:\Users\Duckb\AppData\Local\Temp\ccEgig1L.s:301    .text.LCD_WR_Queue:00000000000000c2 .LFE4
C:\Users\Duckb\AppData\Local\Temp\ccEgig1L.s:16675  .debug_loc:0000000000001c02 .LLST4
C:\Users\Duckb\AppData\Local\Temp\ccEgig1L.s:200    .text.LCD_WR_Queue:0000000000000030 .LBB168
C:\Users\Duckb\AppData\Local\Temp\ccEgig1L.s:206    .text.LCD_WR_Queue:000000000000003e .LVL18
C:\Users\Duckb\AppData\Local\Temp\ccEgig1L.s:227    .text.LCD_WR_Queue:000000000000006c .LVL19
C:\Users\Duckb\AppData\Local\Temp\ccEgig1L.s:246    .text.LCD_WR_Queue:000000000000008c .LVL20
C:\Users\Duckb\AppData\Local\Temp\ccEgig1L.s:275    .text.LCD_WR_Queue:00000000000000aa .LVL21
C:\Users\Duckb\AppData\Local\Temp\ccEgig1L.s:197    .text.LCD_WR_Queue:000000000000002e .LVL17
C:\Users\Duckb\AppData\Local\Temp\ccEgig1L.s:299    .text.LCD_WR_Queue:00000000000000c2 .LVL22
C:\Users\Duckb\AppData\Local\Temp\ccEgig1L.s:532    .text.LCD_WR_DATA8:0000000000000000 .LFB7
C:\Users\Duckb\AppData\Local\Temp\ccEgig1L.s:542    .text.LCD_WR_DATA8:000000000000000c .LFE7
C:\Users\Duckb\AppData\Local\Temp\ccEgig1L.s:16703  .debug_loc:0000000000001c46 .LLST10
C:\Users\Duckb\AppData\Local\Temp\ccEgig1L.s:540    .text.LCD_WR_DATA8:000000000000000c .LVL37
C:\Users\Duckb\AppData\Local\Temp\ccEgig1L.s:598    .text.LCD_WR_REG:0000000000000000 .LFB9
C:\Users\Duckb\AppData\Local\Temp\ccEgig1L.s:606    .text.LCD_WR_REG:0000000000000008 .LFE9
C:\Users\Duckb\AppData\Local\Temp\ccEgig1L.s:16717  .debug_loc:0000000000001c67 .LLST13
C:\Users\Duckb\AppData\Local\Temp\ccEgig1L.s:604    .text.LCD_WR_REG:0000000000000008 .LVL44
C:\Users\Duckb\AppData\Local\Temp\ccEgig1L.s:825    .text.Lcd_SetType:0000000000000000 .LFB12
C:\Users\Duckb\AppData\Local\Temp\ccEgig1L.s:870    .text.Lcd_SetType:0000000000000026 .LFE12
C:\Users\Duckb\AppData\Local\Temp\ccEgig1L.s:841    .text.Lcd_SetType:000000000000000c .LBB188
C:\Users\Duckb\AppData\Local\Temp\ccEgig1L.s:2535   .text.LCD_ShowChar:0000000000000000 .LFB22
C:\Users\Duckb\AppData\Local\Temp\ccEgig1L.s:2737   .text.LCD_ShowChar:00000000000000de .LFE22
C:\Users\Duckb\AppData\Local\Temp\ccEgig1L.s:16731  .debug_loc:0000000000001c88 .LLST156
C:\Users\Duckb\AppData\Local\Temp\ccEgig1L.s:16759  .debug_loc:0000000000001ccc .LLST157
C:\Users\Duckb\AppData\Local\Temp\ccEgig1L.s:16785  .debug_loc:0000000000001d0e .LLST158
C:\Users\Duckb\AppData\Local\Temp\ccEgig1L.s:16817  .debug_loc:0000000000001d5d .LLST159
C:\Users\Duckb\AppData\Local\Temp\ccEgig1L.s:16835  .debug_loc:0000000000001d89 .LLST160
C:\Users\Duckb\AppData\Local\Temp\ccEgig1L.s:16853  .debug_loc:0000000000001db5 .LLST161
C:\Users\Duckb\AppData\Local\Temp\ccEgig1L.s:16887  .debug_loc:0000000000001e0d .LLST162
C:\Users\Duckb\AppData\Local\Temp\ccEgig1L.s:2573   .text.LCD_ShowChar:0000000000000028 .LBB352
C:\Users\Duckb\AppData\Local\Temp\ccEgig1L.s:16913  .debug_loc:0000000000001e4f .LLST163
GAS LISTING C:\Users\Duckb\AppData\Local\Temp\ccEgig1L.s 			page 167


C:\Users\Duckb\AppData\Local\Temp\ccEgig1L.s:16936  .debug_loc:0000000000001e8e .LLST164
C:\Users\Duckb\AppData\Local\Temp\ccEgig1L.s:16947  .debug_loc:0000000000001eac .LLST165
C:\Users\Duckb\AppData\Local\Temp\ccEgig1L.s:16968  .debug_loc:0000000000001ee2 .LLST166
C:\Users\Duckb\AppData\Local\Temp\ccEgig1L.s:16997  .debug_loc:0000000000001f27 .LLST167
C:\Users\Duckb\AppData\Local\Temp\ccEgig1L.s:17008  .debug_loc:0000000000001f45 .LLST168
C:\Users\Duckb\AppData\Local\Temp\ccEgig1L.s:17021  .debug_loc:0000000000001f65 .LLST169
C:\Users\Duckb\AppData\Local\Temp\ccEgig1L.s:2593   .text.LCD_ShowChar:0000000000000050 .LVL272
C:\Users\Duckb\AppData\Local\Temp\ccEgig1L.s:2632   .text.LCD_ShowChar:0000000000000082 .LVL280
C:\Users\Duckb\AppData\Local\Temp\ccEgig1L.s:2705   .text.LCD_ShowChar:00000000000000c8 .LVL289
C:\Users\Duckb\AppData\Local\Temp\ccEgig1L.s:3102   .text.mypow:0000000000000000 .LFB26
C:\Users\Duckb\AppData\Local\Temp\ccEgig1L.s:3134   .text.mypow:000000000000001a .LFE26
C:\Users\Duckb\AppData\Local\Temp\ccEgig1L.s:17046  .debug_loc:0000000000001f9f .LLST187
C:\Users\Duckb\AppData\Local\Temp\ccEgig1L.s:17064  .debug_loc:0000000000001fcb .LLST188
C:\Users\Duckb\AppData\Local\Temp\ccEgig1L.s:17075  .debug_loc:0000000000001fe9 .LLST189
C:\Users\Duckb\AppData\Local\Temp\ccEgig1L.s:17776  .debug_str:0000000000000a91 .LASF240
C:\Users\Duckb\AppData\Local\Temp\ccEgig1L.s:17686  .debug_str:00000000000008f2 .LASF241
C:\Users\Duckb\AppData\Local\Temp\ccEgig1L.s:17474  .debug_str:00000000000004bb .LASF242
C:\Users\Duckb\AppData\Local\Temp\ccEgig1L.s:17660  .debug_str:000000000000085b .LASF243
C:\Users\Duckb\AppData\Local\Temp\ccEgig1L.s:17760  .debug_str:0000000000000a34 .LASF244
C:\Users\Duckb\AppData\Local\Temp\ccEgig1L.s:17402  .debug_str:0000000000000306 .LASF245
C:\Users\Duckb\AppData\Local\Temp\ccEgig1L.s:17286  .debug_str:0000000000000038 .LASF246
C:\Users\Duckb\AppData\Local\Temp\ccEgig1L.s:17780  .debug_str:0000000000000aae .LASF247
C:\Users\Duckb\AppData\Local\Temp\ccEgig1L.s:17630  .debug_str:00000000000007b4 .LASF248
C:\Users\Duckb\AppData\Local\Temp\ccEgig1L.s:17674  .debug_str:00000000000008ad .LASF249
C:\Users\Duckb\AppData\Local\Temp\ccEgig1L.s:17570  .debug_str:00000000000006a1 .LASF250
C:\Users\Duckb\AppData\Local\Temp\ccEgig1L.s:17494  .debug_str:0000000000000532 .LASF251
C:\Users\Duckb\AppData\Local\Temp\ccEgig1L.s:3524   .text.LCD_ShowPicture:0000000000000002 .LCFI58
C:\Users\Duckb\AppData\Local\Temp\ccEgig1L.s:3573   .text.LCD_ShowPicture:0000000000000036 .LCFI59
C:\Users\Duckb\AppData\Local\Temp\ccEgig1L.s:3578   .text.LCD_ShowPicture:0000000000000038 .LCFI60
C:\Users\Duckb\AppData\Local\Temp\ccEgig1L.s:3519   .text.LCD_ShowPicture:0000000000000000 .LVL390
C:\Users\Duckb\AppData\Local\Temp\ccEgig1L.s:3571   .text.LCD_ShowPicture:0000000000000034 .LVL395
C:\Users\Duckb\AppData\Local\Temp\ccEgig1L.s:3576   .text.LCD_ShowPicture:0000000000000038 .LVL396
C:\Users\Duckb\AppData\Local\Temp\ccEgig1L.s:3553   .text.LCD_ShowPicture:0000000000000028 .LVL392
C:\Users\Duckb\AppData\Local\Temp\ccEgig1L.s:3568   .text.LCD_ShowPicture:0000000000000032 .LVL394
C:\Users\Duckb\AppData\Local\Temp\ccEgig1L.s:3585   .text.LCD_ShowPicture:0000000000000042 .LVL397
C:\Users\Duckb\AppData\Local\Temp\ccEgig1L.s:3565   .text.LCD_ShowPicture:0000000000000030 .LVL393
C:\Users\Duckb\AppData\Local\Temp\ccEgig1L.s:3325   .text.LCD_ShowNum1:0000000000000002 .LCFI55
C:\Users\Duckb\AppData\Local\Temp\ccEgig1L.s:3414   .text.LCD_ShowNum1:000000000000005c .LCFI56
C:\Users\Duckb\AppData\Local\Temp\ccEgig1L.s:3419   .text.LCD_ShowNum1:000000000000005e .LCFI57
C:\Users\Duckb\AppData\Local\Temp\ccEgig1L.s:3319   .text.LCD_ShowNum1:0000000000000000 .LVL361
C:\Users\Duckb\AppData\Local\Temp\ccEgig1L.s:3342   .text.LCD_ShowNum1:0000000000000014 .LVL363
C:\Users\Duckb\AppData\Local\Temp\ccEgig1L.s:3399   .text.LCD_ShowNum1:0000000000000050 .LVL370
C:\Users\Duckb\AppData\Local\Temp\ccEgig1L.s:3417   .text.LCD_ShowNum1:000000000000005e .LVL374
C:\Users\Duckb\AppData\Local\Temp\ccEgig1L.s:3335   .text.LCD_ShowNum1:000000000000000e .LVL362
C:\Users\Duckb\AppData\Local\Temp\ccEgig1L.s:3402   .text.LCD_ShowNum1:0000000000000052 .LVL371
C:\Users\Duckb\AppData\Local\Temp\ccEgig1L.s:3364   .text.LCD_ShowNum1:0000000000000030 .LVL364
C:\Users\Duckb\AppData\Local\Temp\ccEgig1L.s:3379   .text.LCD_ShowNum1:0000000000000042 .LVL367
C:\Users\Duckb\AppData\Local\Temp\ccEgig1L.s:3394   .text.LCD_ShowNum1:000000000000004c .LVL369
C:\Users\Duckb\AppData\Local\Temp\ccEgig1L.s:3468   .text.LCD_ShowNum1:000000000000009a .LVL382
C:\Users\Duckb\AppData\Local\Temp\ccEgig1L.s:3476   .text.LCD_ShowNum1:00000000000000a6 .LVL384
C:\Users\Duckb\AppData\Local\Temp\ccEgig1L.s:3405   .text.LCD_ShowNum1:0000000000000054 .LVL372
C:\Users\Duckb\AppData\Local\Temp\ccEgig1L.s:3369   .text.LCD_ShowNum1:000000000000003a .LVL366
C:\Users\Duckb\AppData\Local\Temp\ccEgig1L.s:3391   .text.LCD_ShowNum1:000000000000004a .LVL368
C:\Users\Duckb\AppData\Local\Temp\ccEgig1L.s:3459   .text.LCD_ShowNum1:000000000000008c .LVL381
C:\Users\Duckb\AppData\Local\Temp\ccEgig1L.s:3489   .text.LCD_ShowNum1:00000000000000b8 .LVL385
C:\Users\Duckb\AppData\Local\Temp\ccEgig1L.s:3495   .text.LCD_ShowNum1:00000000000000c4 .LVL387
C:\Users\Duckb\AppData\Local\Temp\ccEgig1L.s:3452   .text.LCD_ShowNum1:0000000000000082 .LVL380
GAS LISTING C:\Users\Duckb\AppData\Local\Temp\ccEgig1L.s 			page 168


C:\Users\Duckb\AppData\Local\Temp\ccEgig1L.s:3497   .text.LCD_ShowNum1:00000000000000c6 .LVL388
C:\Users\Duckb\AppData\Local\Temp\ccEgig1L.s:3410   .text.LCD_ShowNum1:0000000000000058 .LVL373
C:\Users\Duckb\AppData\Local\Temp\ccEgig1L.s:3426   .text.LCD_ShowNum1:000000000000006a .LVL375
C:\Users\Duckb\AppData\Local\Temp\ccEgig1L.s:3437   .text.LCD_ShowNum1:000000000000006e .LVL377
C:\Users\Duckb\AppData\Local\Temp\ccEgig1L.s:3439   .text.LCD_ShowNum1:0000000000000072 .LVL378
C:\Users\Duckb\AppData\Local\Temp\ccEgig1L.s:3443   .text.LCD_ShowNum1:0000000000000076 .LVL379
C:\Users\Duckb\AppData\Local\Temp\ccEgig1L.s:3433   .text.LCD_ShowNum1:000000000000006c .LVL376
C:\Users\Duckb\AppData\Local\Temp\ccEgig1L.s:3150   .text.LCD_ShowNum:0000000000000002 .LCFI52
C:\Users\Duckb\AppData\Local\Temp\ccEgig1L.s:3228   .text.LCD_ShowNum:000000000000004e .LCFI53
C:\Users\Duckb\AppData\Local\Temp\ccEgig1L.s:3233   .text.LCD_ShowNum:0000000000000050 .LCFI54
C:\Users\Duckb\AppData\Local\Temp\ccEgig1L.s:3144   .text.LCD_ShowNum:0000000000000000 .LVL340
C:\Users\Duckb\AppData\Local\Temp\ccEgig1L.s:3191   .text.LCD_ShowNum:0000000000000032 .LVL341
C:\Users\Duckb\AppData\Local\Temp\ccEgig1L.s:3220   .text.LCD_ShowNum:0000000000000048 .LVL345
C:\Users\Duckb\AppData\Local\Temp\ccEgig1L.s:3231   .text.LCD_ShowNum:0000000000000050 .LVL348
C:\Users\Duckb\AppData\Local\Temp\ccEgig1L.s:3210   .text.LCD_ShowNum:0000000000000040 .LVL343
C:\Users\Duckb\AppData\Local\Temp\ccEgig1L.s:3223   .text.LCD_ShowNum:000000000000004a .LVL346
C:\Users\Duckb\AppData\Local\Temp\ccEgig1L.s:3213   .text.LCD_ShowNum:0000000000000042 .LVL344
C:\Users\Duckb\AppData\Local\Temp\ccEgig1L.s:3274   .text.LCD_ShowNum:0000000000000082 .LVL354
C:\Users\Duckb\AppData\Local\Temp\ccEgig1L.s:3226   .text.LCD_ShowNum:000000000000004c .LVL347
C:\Users\Duckb\AppData\Local\Temp\ccEgig1L.s:3282   .text.LCD_ShowNum:0000000000000090 .LVL356
C:\Users\Duckb\AppData\Local\Temp\ccEgig1L.s:3285   .text.LCD_ShowNum:0000000000000096 .LVL357
C:\Users\Duckb\AppData\Local\Temp\ccEgig1L.s:3261   .text.LCD_ShowNum:0000000000000070 .LVL353
C:\Users\Duckb\AppData\Local\Temp\ccEgig1L.s:3293   .text.LCD_ShowNum:000000000000009c .LVL358
C:\Users\Duckb\AppData\Local\Temp\ccEgig1L.s:3304   .text.LCD_ShowNum:00000000000000a6 .LVL360
C:\Users\Duckb\AppData\Local\Temp\ccEgig1L.s:3207   .text.LCD_ShowNum:000000000000003e .LVL342
C:\Users\Duckb\AppData\Local\Temp\ccEgig1L.s:3244   .text.LCD_ShowNum:0000000000000056 .LVL350
C:\Users\Duckb\AppData\Local\Temp\ccEgig1L.s:3246   .text.LCD_ShowNum:000000000000005a .LVL351
C:\Users\Duckb\AppData\Local\Temp\ccEgig1L.s:3250   .text.LCD_ShowNum:000000000000005e .LVL352
C:\Users\Duckb\AppData\Local\Temp\ccEgig1L.s:2997   .text.LCD_ShowStr:0000000000000002 .LCFI49
C:\Users\Duckb\AppData\Local\Temp\ccEgig1L.s:3055   .text.LCD_ShowStr:000000000000003c .LCFI50
C:\Users\Duckb\AppData\Local\Temp\ccEgig1L.s:3060   .text.LCD_ShowStr:000000000000003e .LCFI51
C:\Users\Duckb\AppData\Local\Temp\ccEgig1L.s:2993   .text.LCD_ShowStr:0000000000000000 .LVL320
C:\Users\Duckb\AppData\Local\Temp\ccEgig1L.s:3025   .text.LCD_ShowStr:0000000000000024 .LVL321
C:\Users\Duckb\AppData\Local\Temp\ccEgig1L.s:3038   .text.LCD_ShowStr:000000000000002e .LVL322
C:\Users\Duckb\AppData\Local\Temp\ccEgig1L.s:3058   .text.LCD_ShowStr:000000000000003e .LVL326
C:\Users\Duckb\AppData\Local\Temp\ccEgig1L.s:3066   .text.LCD_ShowStr:0000000000000042 .LVL327
C:\Users\Duckb\AppData\Local\Temp\ccEgig1L.s:3073   .text.LCD_ShowStr:0000000000000046 .LVL329
C:\Users\Duckb\AppData\Local\Temp\ccEgig1L.s:3041   .text.LCD_ShowStr:0000000000000030 .LVL323
C:\Users\Duckb\AppData\Local\Temp\ccEgig1L.s:3044   .text.LCD_ShowStr:0000000000000032 .LVL324
C:\Users\Duckb\AppData\Local\Temp\ccEgig1L.s:3047   .text.LCD_ShowStr:0000000000000034 .LVL325
C:\Users\Duckb\AppData\Local\Temp\ccEgig1L.s:2870   .text.LCD_ShowString:0000000000000002 .LCFI46
C:\Users\Duckb\AppData\Local\Temp\ccEgig1L.s:2930   .text.LCD_ShowString:0000000000000040 .LCFI47
C:\Users\Duckb\AppData\Local\Temp\ccEgig1L.s:2935   .text.LCD_ShowString:0000000000000042 .LCFI48
C:\Users\Duckb\AppData\Local\Temp\ccEgig1L.s:2866   .text.LCD_ShowString:0000000000000000 .LVL304
C:\Users\Duckb\AppData\Local\Temp\ccEgig1L.s:2902   .text.LCD_ShowString:0000000000000028 .LVL305
C:\Users\Duckb\AppData\Local\Temp\ccEgig1L.s:2913   .text.LCD_ShowString:0000000000000032 .LVL306
C:\Users\Duckb\AppData\Local\Temp\ccEgig1L.s:2933   .text.LCD_ShowString:0000000000000042 .LVL310
C:\Users\Duckb\AppData\Local\Temp\ccEgig1L.s:2941   .text.LCD_ShowString:0000000000000046 .LVL311
C:\Users\Duckb\AppData\Local\Temp\ccEgig1L.s:2948   .text.LCD_ShowString:000000000000004a .LVL313
C:\Users\Duckb\AppData\Local\Temp\ccEgig1L.s:2954   .text.LCD_ShowString:000000000000004e .LVL314
C:\Users\Duckb\AppData\Local\Temp\ccEgig1L.s:2963   .text.LCD_ShowString:000000000000005c .LVL316
C:\Users\Duckb\AppData\Local\Temp\ccEgig1L.s:2916   .text.LCD_ShowString:0000000000000034 .LVL307
C:\Users\Duckb\AppData\Local\Temp\ccEgig1L.s:2919   .text.LCD_ShowString:0000000000000036 .LVL308
C:\Users\Duckb\AppData\Local\Temp\ccEgig1L.s:2924   .text.LCD_ShowString:000000000000003a .LVL309
C:\Users\Duckb\AppData\Local\Temp\ccEgig1L.s:2760   .text.LCD_DeleteChar:000000000000000c .LCFI42
C:\Users\Duckb\AppData\Local\Temp\ccEgig1L.s:2834   .text.LCD_DeleteChar:0000000000000058 .LCFI43
C:\Users\Duckb\AppData\Local\Temp\ccEgig1L.s:2840   .text.LCD_DeleteChar:0000000000000060 .LCFI44
GAS LISTING C:\Users\Duckb\AppData\Local\Temp\ccEgig1L.s 			page 169


C:\Users\Duckb\AppData\Local\Temp\ccEgig1L.s:2847   .text.LCD_DeleteChar:0000000000000064 .LCFI45
C:\Users\Duckb\AppData\Local\Temp\ccEgig1L.s:2747   .text.LCD_DeleteChar:0000000000000000 .LVL293
C:\Users\Duckb\AppData\Local\Temp\ccEgig1L.s:2787   .text.LCD_DeleteChar:0000000000000028 .LVL294
C:\Users\Duckb\AppData\Local\Temp\ccEgig1L.s:2816   .text.LCD_DeleteChar:0000000000000046 .LVL300
C:\Users\Duckb\AppData\Local\Temp\ccEgig1L.s:2821   .text.LCD_DeleteChar:000000000000004a .LVL301
C:\Users\Duckb\AppData\Local\Temp\ccEgig1L.s:2802   .text.LCD_DeleteChar:000000000000003a .LVL298
C:\Users\Duckb\AppData\Local\Temp\ccEgig1L.s:2804   .text.LCD_DeleteChar:000000000000003c .LVL299
C:\Users\Duckb\AppData\Local\Temp\ccEgig1L.s:2826   .text.LCD_DeleteChar:000000000000004e .LVL302
C:\Users\Duckb\AppData\Local\Temp\ccEgig1L.s:2790   .text.LCD_DeleteChar:000000000000002a .LVL295
C:\Users\Duckb\AppData\Local\Temp\ccEgig1L.s:2797   .text.LCD_DeleteChar:000000000000002e .LVL296
C:\Users\Duckb\AppData\Local\Temp\ccEgig1L.s:2367   .text.Draw_Circle:0000000000000006 .LCFI36
C:\Users\Duckb\AppData\Local\Temp\ccEgig1L.s:2524   .text.Draw_Circle:00000000000000f0 .LCFI37
C:\Users\Duckb\AppData\Local\Temp\ccEgig1L.s:2359   .text.Draw_Circle:0000000000000000 .LVL249
C:\Users\Duckb\AppData\Local\Temp\ccEgig1L.s:2405   .text.Draw_Circle:000000000000002a .LVL251
C:\Users\Duckb\AppData\Local\Temp\ccEgig1L.s:2513   .text.Draw_Circle:00000000000000e6 .LVL266
C:\Users\Duckb\AppData\Local\Temp\ccEgig1L.s:2516   .text.Draw_Circle:00000000000000e8 .LVL267
C:\Users\Duckb\AppData\Local\Temp\ccEgig1L.s:2502   .text.Draw_Circle:00000000000000dc .LVL265
C:\Users\Duckb\AppData\Local\Temp\ccEgig1L.s:2414   .text.Draw_Circle:000000000000003a .LVL252
C:\Users\Duckb\AppData\Local\Temp\ccEgig1L.s:2499   .text.Draw_Circle:00000000000000da .LVL264
C:\Users\Duckb\AppData\Local\Temp\ccEgig1L.s:2401   .text.Draw_Circle:0000000000000028 .LVL250
C:\Users\Duckb\AppData\Local\Temp\ccEgig1L.s:2496   .text.Draw_Circle:00000000000000d8 .LVL263
C:\Users\Duckb\AppData\Local\Temp\ccEgig1L.s:2271   .text.LCD_DrawRectangle:0000000000000002 .LCFI34
C:\Users\Duckb\AppData\Local\Temp\ccEgig1L.s:2343   .text.LCD_DrawRectangle:000000000000005e .LCFI35
C:\Users\Duckb\AppData\Local\Temp\ccEgig1L.s:2267   .text.LCD_DrawRectangle:0000000000000000 .LVL238
C:\Users\Duckb\AppData\Local\Temp\ccEgig1L.s:2324   .text.LCD_DrawRectangle:000000000000004e .LVL244
C:\Users\Duckb\AppData\Local\Temp\ccEgig1L.s:2338   .text.LCD_DrawRectangle:000000000000005a .LVL246
C:\Users\Duckb\AppData\Local\Temp\ccEgig1L.s:2341   .text.LCD_DrawRectangle:000000000000005c .LVL247
C:\Users\Duckb\AppData\Local\Temp\ccEgig1L.s:2278   .text.LCD_DrawRectangle:0000000000000008 .LVL239
C:\Users\Duckb\AppData\Local\Temp\ccEgig1L.s:2319   .text.LCD_DrawRectangle:000000000000004a .LVL243
C:\Users\Duckb\AppData\Local\Temp\ccEgig1L.s:2331   .text.LCD_DrawRectangle:0000000000000054 .LVL245
C:\Users\Duckb\AppData\Local\Temp\ccEgig1L.s:2072   .text.LCD_DrawLine:0000000000000002 .LCFI32
C:\Users\Duckb\AppData\Local\Temp\ccEgig1L.s:2253   .text.LCD_DrawLine:00000000000000a2 .LCFI33
C:\Users\Duckb\AppData\Local\Temp\ccEgig1L.s:2065   .text.LCD_DrawLine:0000000000000000 .LVL206
C:\Users\Duckb\AppData\Local\Temp\ccEgig1L.s:2168   .text.LCD_DrawLine:0000000000000058 .LVL218
C:\Users\Duckb\AppData\Local\Temp\ccEgig1L.s:2158   .text.LCD_DrawLine:000000000000004e .LVL217
C:\Users\Duckb\AppData\Local\Temp\ccEgig1L.s:2242   .text.LCD_DrawLine:000000000000009a .LVL234
C:\Users\Duckb\AppData\Local\Temp\ccEgig1L.s:2177   .text.LCD_DrawLine:0000000000000062 .LVL219
C:\Users\Duckb\AppData\Local\Temp\ccEgig1L.s:2236   .text.LCD_DrawLine:0000000000000096 .LVL232
C:\Users\Duckb\AppData\Local\Temp\ccEgig1L.s:2239   .text.LCD_DrawLine:0000000000000098 .LVL233
C:\Users\Duckb\AppData\Local\Temp\ccEgig1L.s:2100   .text.LCD_DrawLine:000000000000001e .LVL207
C:\Users\Duckb\AppData\Local\Temp\ccEgig1L.s:2221   .text.LCD_DrawLine:000000000000008c .LVL227
C:\Users\Duckb\AppData\Local\Temp\ccEgig1L.s:2104   .text.LCD_DrawLine:0000000000000022 .LVL208
C:\Users\Duckb\AppData\Local\Temp\ccEgig1L.s:2224   .text.LCD_DrawLine:000000000000008e .LVL228
C:\Users\Duckb\AppData\Local\Temp\ccEgig1L.s:2233   .text.LCD_DrawLine:0000000000000094 .LVL231
C:\Users\Duckb\AppData\Local\Temp\ccEgig1L.s:2251   .text.LCD_DrawLine:00000000000000a0 .LVL237
C:\Users\Duckb\AppData\Local\Temp\ccEgig1L.s:2124   .text.LCD_DrawLine:0000000000000030 .LVL211
C:\Users\Duckb\AppData\Local\Temp\ccEgig1L.s:2131   .text.LCD_DrawLine:0000000000000036 .LVL213
C:\Users\Duckb\AppData\Local\Temp\ccEgig1L.s:2245   .text.LCD_DrawLine:000000000000009c .LVL235
C:\Users\Duckb\AppData\Local\Temp\ccEgig1L.s:2144   .text.LCD_DrawLine:0000000000000040 .LVL214
C:\Users\Duckb\AppData\Local\Temp\ccEgig1L.s:2151   .text.LCD_DrawLine:0000000000000046 .LVL216
C:\Users\Duckb\AppData\Local\Temp\ccEgig1L.s:2248   .text.LCD_DrawLine:000000000000009e .LVL236
C:\Users\Duckb\AppData\Local\Temp\ccEgig1L.s:2108   .text.LCD_DrawLine:0000000000000024 .LVL209
C:\Users\Duckb\AppData\Local\Temp\ccEgig1L.s:2227   .text.LCD_DrawLine:0000000000000090 .LVL229
C:\Users\Duckb\AppData\Local\Temp\ccEgig1L.s:2112   .text.LCD_DrawLine:0000000000000026 .LVL210
C:\Users\Duckb\AppData\Local\Temp\ccEgig1L.s:2230   .text.LCD_DrawLine:0000000000000092 .LVL230
C:\Users\Duckb\AppData\Local\Temp\ccEgig1L.s:1954   .text.LCD_Fill:0000000000000002 .LCFI29
C:\Users\Duckb\AppData\Local\Temp\ccEgig1L.s:2005   .text.LCD_Fill:0000000000000036 .LCFI30
GAS LISTING C:\Users\Duckb\AppData\Local\Temp\ccEgig1L.s 			page 170


C:\Users\Duckb\AppData\Local\Temp\ccEgig1L.s:2010   .text.LCD_Fill:0000000000000038 .LCFI31
C:\Users\Duckb\AppData\Local\Temp\ccEgig1L.s:1949   .text.LCD_Fill:0000000000000000 .LVL189
C:\Users\Duckb\AppData\Local\Temp\ccEgig1L.s:1997   .text.LCD_Fill:0000000000000030 .LVL193
C:\Users\Duckb\AppData\Local\Temp\ccEgig1L.s:2008   .text.LCD_Fill:0000000000000038 .LVL196
C:\Users\Duckb\AppData\Local\Temp\ccEgig1L.s:2000   .text.LCD_Fill:0000000000000032 .LVL194
C:\Users\Duckb\AppData\Local\Temp\ccEgig1L.s:1994   .text.LCD_Fill:000000000000002e .LVL192
C:\Users\Duckb\AppData\Local\Temp\ccEgig1L.s:2003   .text.LCD_Fill:0000000000000034 .LVL195
C:\Users\Duckb\AppData\Local\Temp\ccEgig1L.s:1989   .text.LCD_Fill:000000000000002a .LVL191
C:\Users\Duckb\AppData\Local\Temp\ccEgig1L.s:2026   .text.LCD_Fill:000000000000004c .LVL200
C:\Users\Duckb\AppData\Local\Temp\ccEgig1L.s:2042   .text.LCD_DrawPoint_big:0000000000000000 .LVL201
C:\Users\Duckb\AppData\Local\Temp\ccEgig1L.s:2051   .text.LCD_DrawPoint_big:000000000000000e .LVL204
C:\Users\Duckb\AppData\Local\Temp\ccEgig1L.s:2049   .text.LCD_DrawPoint_big:000000000000000c .LVL203
C:\Users\Duckb\AppData\Local\Temp\ccEgig1L.s:2047   .text.LCD_DrawPoint_big:000000000000000a .LVL202
C:\Users\Duckb\AppData\Local\Temp\ccEgig1L.s:1907   .text.LCD_DrawPoint:0000000000000002 .LCFI27
C:\Users\Duckb\AppData\Local\Temp\ccEgig1L.s:1933   .text.LCD_DrawPoint:000000000000001c .LCFI28
C:\Users\Duckb\AppData\Local\Temp\ccEgig1L.s:1903   .text.LCD_DrawPoint:0000000000000000 .LVL184
C:\Users\Duckb\AppData\Local\Temp\ccEgig1L.s:1917   .text.LCD_DrawPoint:000000000000000a .LVL185
C:\Users\Duckb\AppData\Local\Temp\ccEgig1L.s:1929   .text.LCD_DrawPoint:0000000000000018 .LVL187
C:\Users\Duckb\AppData\Local\Temp\ccEgig1L.s:1770   .text.LCD_ShowChinese:0000000000000002 .LCFI24
C:\Users\Duckb\AppData\Local\Temp\ccEgig1L.s:1851   .text.LCD_ShowChinese:0000000000000066 .LCFI25
C:\Users\Duckb\AppData\Local\Temp\ccEgig1L.s:1856   .text.LCD_ShowChinese:0000000000000068 .LCFI26
C:\Users\Duckb\AppData\Local\Temp\ccEgig1L.s:1763   .text.LCD_ShowChinese:0000000000000000 .LVL166
C:\Users\Duckb\AppData\Local\Temp\ccEgig1L.s:1854   .text.LCD_ShowChinese:0000000000000068 .LVL176
C:\Users\Duckb\AppData\Local\Temp\ccEgig1L.s:1861   .text.LCD_ShowChinese:0000000000000072 .LVL177
C:\Users\Duckb\AppData\Local\Temp\ccEgig1L.s:1803   .text.LCD_ShowChinese:000000000000002e .LVL169
C:\Users\Duckb\AppData\Local\Temp\ccEgig1L.s:1801   .text.LCD_ShowChinese:000000000000002a .LVL168
C:\Users\Duckb\AppData\Local\Temp\ccEgig1L.s:1843   .text.LCD_ShowChinese:000000000000005e .LVL175
C:\Users\Duckb\AppData\Local\Temp\ccEgig1L.s:1876   .text.LCD_ShowChinese:0000000000000082 .LVL179
C:\Users\Duckb\AppData\Local\Temp\ccEgig1L.s:1879   .text.LCD_ShowChinese:0000000000000086 .LVL180
C:\Users\Duckb\AppData\Local\Temp\ccEgig1L.s:1865   .text.LCD_ShowChinese:0000000000000074 .LVL178
C:\Users\Duckb\AppData\Local\Temp\ccEgig1L.s:1882   .text.LCD_ShowChinese:0000000000000088 .LVL181
C:\Users\Duckb\AppData\Local\Temp\ccEgig1L.s:1826   .text.LCD_ShowChinese:0000000000000050 .LVL173
C:\Users\Duckb\AppData\Local\Temp\ccEgig1L.s:1798   .text.LCD_ShowChinese:0000000000000026 .LVL167
C:\Users\Duckb\AppData\Local\Temp\ccEgig1L.s:1840   .text.LCD_ShowChinese:000000000000005c .LVL174
C:\Users\Duckb\AppData\Local\Temp\ccEgig1L.s:1818   .text.LCD_ShowChinese:0000000000000046 .LVL171
C:\Users\Duckb\AppData\Local\Temp\ccEgig1L.s:1822   .text.LCD_ShowChinese:000000000000004a .LVL172
C:\Users\Duckb\AppData\Local\Temp\ccEgig1L.s:1694   .text.LCD_Clear:0000000000000002 .LCFI22
C:\Users\Duckb\AppData\Local\Temp\ccEgig1L.s:1749   .text.LCD_Clear:0000000000000044 .LCFI23
C:\Users\Duckb\AppData\Local\Temp\ccEgig1L.s:1689   .text.LCD_Clear:0000000000000000 .LVL156
C:\Users\Duckb\AppData\Local\Temp\ccEgig1L.s:1706   .text.LCD_Clear:0000000000000012 .LVL157
C:\Users\Duckb\AppData\Local\Temp\ccEgig1L.s:1747   .text.LCD_Clear:0000000000000042 .LVL165
C:\Users\Duckb\AppData\Local\Temp\ccEgig1L.s:1732   .text.LCD_Clear:0000000000000036 .LVL162
C:\Users\Duckb\AppData\Local\Temp\ccEgig1L.s:1734   .text.LCD_Clear:0000000000000038 .LVL163
C:\Users\Duckb\AppData\Local\Temp\ccEgig1L.s:1744   .text.LCD_Clear:0000000000000040 .LVL164
C:\Users\Duckb\AppData\Local\Temp\ccEgig1L.s:1722   .text.LCD_Clear:0000000000000028 .LVL159
C:\Users\Duckb\AppData\Local\Temp\ccEgig1L.s:1727   .text.LCD_Clear:000000000000002c .LVL160
C:\Users\Duckb\AppData\Local\Temp\ccEgig1L.s:887    .text.Lcd_Init:000000000000000a .LCFI20
C:\Users\Duckb\AppData\Local\Temp\ccEgig1L.s:1669   .text.Lcd_Init:000000000000045c .LCFI21
C:\Users\Duckb\AppData\Local\Temp\ccEgig1L.s:991    .text.Lcd_Init:00000000000000e6 .LVL80
C:\Users\Duckb\AppData\Local\Temp\ccEgig1L.s:996    .text.Lcd_Init:00000000000000ea .LVL81
C:\Users\Duckb\AppData\Local\Temp\ccEgig1L.s:746    .text.spi_config:0000000000000002 .LCFI18
C:\Users\Duckb\AppData\Local\Temp\ccEgig1L.s:814    .text.spi_config:000000000000006a .LCFI19
C:\Users\Duckb\AppData\Local\Temp\ccEgig1L.s:625    .text.LCD_Address_Set:0000000000000002 .LCFI16
C:\Users\Duckb\AppData\Local\Temp\ccEgig1L.s:721    .text.LCD_Address_Set:000000000000007a .LCFI17
C:\Users\Duckb\AppData\Local\Temp\ccEgig1L.s:616    .text.LCD_Address_Set:0000000000000000 .LVL45
C:\Users\Duckb\AppData\Local\Temp\ccEgig1L.s:639    .text.LCD_Address_Set:0000000000000010 .LVL46
C:\Users\Duckb\AppData\Local\Temp\ccEgig1L.s:712    .text.LCD_Address_Set:0000000000000074 .LVL53
GAS LISTING C:\Users\Duckb\AppData\Local\Temp\ccEgig1L.s 			page 171


C:\Users\Duckb\AppData\Local\Temp\ccEgig1L.s:723    .text.LCD_Address_Set:000000000000007a .LVL54
C:\Users\Duckb\AppData\Local\Temp\ccEgig1L.s:556    .text.LCD_WR_DATA:0000000000000002 .LCFI14
C:\Users\Duckb\AppData\Local\Temp\ccEgig1L.s:585    .text.LCD_WR_DATA:0000000000000024 .LCFI15
C:\Users\Duckb\AppData\Local\Temp\ccEgig1L.s:552    .text.LCD_WR_DATA:0000000000000000 .LVL38
C:\Users\Duckb\AppData\Local\Temp\ccEgig1L.s:563    .text.LCD_WR_DATA:0000000000000008 .LVL39
C:\Users\Duckb\AppData\Local\Temp\ccEgig1L.s:578    .text.LCD_WR_DATA:000000000000001c .LVL41
C:\Users\Duckb\AppData\Local\Temp\ccEgig1L.s:443    .text.LCD_Writ_Bus:0000000000000002 .LCFI12
C:\Users\Duckb\AppData\Local\Temp\ccEgig1L.s:519    .text.LCD_Writ_Bus:0000000000000070 .LCFI13
C:\Users\Duckb\AppData\Local\Temp\ccEgig1L.s:439    .text.LCD_Writ_Bus:0000000000000000 .LVL27
C:\Users\Duckb\AppData\Local\Temp\ccEgig1L.s:457    .text.LCD_Writ_Bus:0000000000000012 .LVL28
C:\Users\Duckb\AppData\Local\Temp\ccEgig1L.s:364    .text.LCD_Write_Bus:0000000000000002 .LCFI9
C:\Users\Duckb\AppData\Local\Temp\ccEgig1L.s:416    .text.LCD_Write_Bus:0000000000000048 .LCFI10
C:\Users\Duckb\AppData\Local\Temp\ccEgig1L.s:420    .text.LCD_Write_Bus:000000000000004a .LCFI11
C:\Users\Duckb\AppData\Local\Temp\ccEgig1L.s:360    .text.LCD_Write_Bus:0000000000000000 .LVL24
C:\Users\Duckb\AppData\Local\Temp\ccEgig1L.s:380    .text.LCD_Write_Bus:0000000000000016 .LVL25
C:\Users\Duckb\AppData\Local\Temp\ccEgig1L.s:314    .text.LCD_Wait_On_Queue:0000000000000002 .LCFI6
C:\Users\Duckb\AppData\Local\Temp\ccEgig1L.s:339    .text.LCD_Wait_On_Queue:0000000000000024 .LCFI7
C:\Users\Duckb\AppData\Local\Temp\ccEgig1L.s:343    .text.LCD_Wait_On_Queue:0000000000000026 .LCFI8
C:\Users\Duckb\AppData\Local\Temp\ccEgig1L.s:28     .text.lcd_delay_1ms:0000000000000002 .LCFI0
C:\Users\Duckb\AppData\Local\Temp\ccEgig1L.s:156    .text.lcd_delay_1ms:00000000000000cc .LCFI1
C:\Users\Duckb\AppData\Local\Temp\ccEgig1L.s:23     .text.lcd_delay_1ms:0000000000000000 .LVL0
C:\Users\Duckb\AppData\Local\Temp\ccEgig1L.s:148    .text.lcd_delay_1ms:00000000000000c4 .LVL16
C:\Users\Duckb\AppData\Local\Temp\ccEgig1L.s:68     .text.lcd_delay_1ms:0000000000000032 .LVL4
C:\Users\Duckb\AppData\Local\Temp\ccEgig1L.s:135    .text.lcd_delay_1ms:00000000000000b8 .LVL15
C:\Users\Duckb\AppData\Local\Temp\ccEgig1L.s:59     .text.lcd_delay_1ms:0000000000000026 .LVL2
C:\Users\Duckb\AppData\Local\Temp\ccEgig1L.s:76     .text.lcd_delay_1ms:0000000000000042 .LVL5
C:\Users\Duckb\AppData\Local\Temp\ccEgig1L.s:173    .text.LCD_WR_Queue:0000000000000002 .LCFI2
C:\Users\Duckb\AppData\Local\Temp\ccEgig1L.s:265    .text.LCD_WR_Queue:00000000000000a0 .LCFI3
C:\Users\Duckb\AppData\Local\Temp\ccEgig1L.s:269    .text.LCD_WR_Queue:00000000000000a2 .LCFI4
C:\Users\Duckb\AppData\Local\Temp\ccEgig1L.s:295    .text.LCD_WR_Queue:00000000000000ba .LCFI5
C:\Users\Duckb\AppData\Local\Temp\ccEgig1L.s:535    .text.LCD_WR_DATA8:0000000000000000 .LVL35
C:\Users\Duckb\AppData\Local\Temp\ccEgig1L.s:538    .text.LCD_WR_DATA8:0000000000000004 .LVL36
C:\Users\Duckb\AppData\Local\Temp\ccEgig1L.s:601    .text.LCD_WR_REG:0000000000000000 .LVL43
C:\Users\Duckb\AppData\Local\Temp\ccEgig1L.s:2548   .text.LCD_ShowChar:000000000000000a .LCFI38
C:\Users\Duckb\AppData\Local\Temp\ccEgig1L.s:2672   .text.LCD_ShowChar:00000000000000a2 .LCFI39
C:\Users\Duckb\AppData\Local\Temp\ccEgig1L.s:2677   .text.LCD_ShowChar:00000000000000a4 .LCFI40
C:\Users\Duckb\AppData\Local\Temp\ccEgig1L.s:2722   .text.LCD_ShowChar:00000000000000dc .LCFI41
C:\Users\Duckb\AppData\Local\Temp\ccEgig1L.s:2538   .text.LCD_ShowChar:0000000000000000 .LVL268
C:\Users\Duckb\AppData\Local\Temp\ccEgig1L.s:2598   .text.LCD_ShowChar:0000000000000056 .LVL273
C:\Users\Duckb\AppData\Local\Temp\ccEgig1L.s:2675   .text.LCD_ShowChar:00000000000000a4 .LVL285
C:\Users\Duckb\AppData\Local\Temp\ccEgig1L.s:2720   .text.LCD_ShowChar:00000000000000dc .LVL292
C:\Users\Duckb\AppData\Local\Temp\ccEgig1L.s:2603   .text.LCD_ShowChar:000000000000005c .LVL274
C:\Users\Duckb\AppData\Local\Temp\ccEgig1L.s:2685   .text.LCD_ShowChar:00000000000000ac .LVL286
C:\Users\Duckb\AppData\Local\Temp\ccEgig1L.s:2581   .text.LCD_ShowChar:0000000000000034 .LVL269
C:\Users\Duckb\AppData\Local\Temp\ccEgig1L.s:2583   .text.LCD_ShowChar:0000000000000038 .LVL270
C:\Users\Duckb\AppData\Local\Temp\ccEgig1L.s:2623   .text.LCD_ShowChar:0000000000000070 .LVL277
C:\Users\Duckb\AppData\Local\Temp\ccEgig1L.s:2626   .text.LCD_ShowChar:0000000000000074 .LVL278
C:\Users\Duckb\AppData\Local\Temp\ccEgig1L.s:2647   .text.LCD_ShowChar:000000000000008e .LVL284
C:\Users\Duckb\AppData\Local\Temp\ccEgig1L.s:2588   .text.LCD_ShowChar:0000000000000044 .LVL271
C:\Users\Duckb\AppData\Local\Temp\ccEgig1L.s:2610   .text.LCD_ShowChar:0000000000000066 .LVL275
C:\Users\Duckb\AppData\Local\Temp\ccEgig1L.s:2641   .text.LCD_ShowChar:0000000000000088 .LVL282
C:\Users\Duckb\AppData\Local\Temp\ccEgig1L.s:2690   .text.LCD_ShowChar:00000000000000b0 .LVL287
C:\Users\Duckb\AppData\Local\Temp\ccEgig1L.s:2644   .text.LCD_ShowChar:000000000000008a .LVL283
C:\Users\Duckb\AppData\Local\Temp\ccEgig1L.s:2614   .text.LCD_ShowChar:0000000000000068 .LVL276
C:\Users\Duckb\AppData\Local\Temp\ccEgig1L.s:2629   .text.LCD_ShowChar:0000000000000076 .LVL279
C:\Users\Duckb\AppData\Local\Temp\ccEgig1L.s:2694   .text.LCD_ShowChar:00000000000000b2 .LVL288
C:\Users\Duckb\AppData\Local\Temp\ccEgig1L.s:2709   .text.LCD_ShowChar:00000000000000ca .LVL290
GAS LISTING C:\Users\Duckb\AppData\Local\Temp\ccEgig1L.s 			page 172


C:\Users\Duckb\AppData\Local\Temp\ccEgig1L.s:3105   .text.mypow:0000000000000000 .LVL333
C:\Users\Duckb\AppData\Local\Temp\ccEgig1L.s:3124   .text.mypow:0000000000000012 .LVL337
C:\Users\Duckb\AppData\Local\Temp\ccEgig1L.s:3126   .text.mypow:0000000000000014 .LVL338
C:\Users\Duckb\AppData\Local\Temp\ccEgig1L.s:3116   .text.mypow:0000000000000008 .LVL335
C:\Users\Duckb\AppData\Local\Temp\ccEgig1L.s:3118   .text.mypow:000000000000000c .LVL336
C:\Users\Duckb\AppData\Local\Temp\ccEgig1L.s:3112   .text.mypow:0000000000000006 .LVL334
C:\Users\Duckb\AppData\Local\Temp\ccEgig1L.s:6058   .debug_info:0000000000000000 .Ldebug_info0
C:\Users\Duckb\AppData\Local\Temp\ccEgig1L.s:255    .text.LCD_WR_Queue:0000000000000098 .LBE168
C:\Users\Duckb\AppData\Local\Temp\ccEgig1L.s:271    .text.LCD_WR_Queue:00000000000000a2 .LBB171
C:\Users\Duckb\AppData\Local\Temp\ccEgig1L.s:279    .text.LCD_WR_Queue:00000000000000ac .LBE171
C:\Users\Duckb\AppData\Local\Temp\ccEgig1L.s:622    .text.LCD_Address_Set:0000000000000000 .LBE172
C:\Users\Duckb\AppData\Local\Temp\ccEgig1L.s:635    .text.LCD_Address_Set:000000000000000c .LBB176
C:\Users\Duckb\AppData\Local\Temp\ccEgig1L.s:641    .text.LCD_Address_Set:0000000000000010 .LBE176
C:\Users\Duckb\AppData\Local\Temp\ccEgig1L.s:652    .text.LCD_Address_Set:000000000000001c .LBB177
C:\Users\Duckb\AppData\Local\Temp\ccEgig1L.s:658    .text.LCD_Address_Set:0000000000000024 .LBE177
C:\Users\Duckb\AppData\Local\Temp\ccEgig1L.s:704    .text.LCD_Address_Set:000000000000006e .LBE180
C:\Users\Duckb\AppData\Local\Temp\ccEgig1L.s:713    .text.LCD_Address_Set:0000000000000074 .LBB184
C:\Users\Duckb\AppData\Local\Temp\ccEgig1L.s:718    .text.LCD_Address_Set:0000000000000078 .LBE184
C:\Users\Duckb\AppData\Local\Temp\ccEgig1L.s:724    .text.LCD_Address_Set:000000000000007a .LBB185
C:\Users\Duckb\AppData\Local\Temp\ccEgig1L.s:730    .text.LCD_Address_Set:0000000000000082 .LBE185
C:\Users\Duckb\AppData\Local\Temp\ccEgig1L.s:847    .text.Lcd_SetType:0000000000000010 .LBE188
C:\Users\Duckb\AppData\Local\Temp\ccEgig1L.s:856    .text.Lcd_SetType:0000000000000018 .LBB191
C:\Users\Duckb\AppData\Local\Temp\ccEgig1L.s:868    .text.Lcd_SetType:0000000000000026 .LBE191
C:\Users\Duckb\AppData\Local\Temp\ccEgig1L.s:1655   .text.Lcd_Init:0000000000000452 .LBE344
C:\Users\Duckb\AppData\Local\Temp\ccEgig1L.s:1661   .text.Lcd_Init:0000000000000456 .LBB348
C:\Users\Duckb\AppData\Local\Temp\ccEgig1L.s:1666   .text.Lcd_Init:000000000000045a .LBE348
C:\Users\Duckb\AppData\Local\Temp\ccEgig1L.s:1671   .text.Lcd_Init:000000000000045c .LBB349
C:\Users\Duckb\AppData\Local\Temp\ccEgig1L.s:1677   .text.Lcd_Init:0000000000000464 .LBE349
C:\Users\Duckb\AppData\Local\Temp\ccEgig1L.s:2650   .text.LCD_ShowChar:000000000000008e .LBE352
C:\Users\Duckb\AppData\Local\Temp\ccEgig1L.s:2681   .text.LCD_ShowChar:00000000000000aa .LBB355
C:\Users\Duckb\AppData\Local\Temp\ccEgig1L.s:2735   .text.LCD_ShowChar:00000000000000de .LBE355
C:\Users\Duckb\AppData\Local\Temp\ccEgig1L.s:3194   .text.LCD_ShowNum:0000000000000032 .LBE358
C:\Users\Duckb\AppData\Local\Temp\ccEgig1L.s:3235   .text.LCD_ShowNum:0000000000000050 .LBB362
C:\Users\Duckb\AppData\Local\Temp\ccEgig1L.s:3254   .text.LCD_ShowNum:0000000000000064 .LBE362
C:\Users\Duckb\AppData\Local\Temp\ccEgig1L.s:3288   .text.LCD_ShowNum:0000000000000098 .LBB363
C:\Users\Duckb\AppData\Local\Temp\ccEgig1L.s:3296   .text.LCD_ShowNum:000000000000009c .LBE363
C:\Users\Duckb\AppData\Local\Temp\ccEgig1L.s:3382   .text.LCD_ShowNum1:0000000000000042 .LBE364
C:\Users\Duckb\AppData\Local\Temp\ccEgig1L.s:3427   .text.LCD_ShowNum1:000000000000006a .LBB368
C:\Users\Duckb\AppData\Local\Temp\ccEgig1L.s:3445   .text.LCD_ShowNum1:0000000000000076 .LBE368
C:\Users\Duckb\AppData\Local\Temp\ccEgig1L.s:3499   .text.LCD_ShowNum1:00000000000000c6 .LBB369
C:\Users\Duckb\AppData\Local\Temp\ccEgig1L.s:3507   .text.LCD_ShowNum1:00000000000000cc .LBE369

UNDEFINED SYMBOLS
__floatundidf
__floatunsidf
__divdf3
__muldf3
__ltdf2
get_timer_value
SystemCoreClock
spi_i2s_flag_get
gpio_bit_reset
gpio_bit_set
spi_i2s_data_transmit
spi_i2s_data_receive
spi_struct_para_init
spi_init
GAS LISTING C:\Users\Duckb\AppData\Local\Temp\ccEgig1L.s 			page 173


spi_crc_polynomial_set
spi_enable
rcu_periph_clock_enable
gpio_init
__mulsf3
__fixunssfsi
