GAS LISTING C:\Users\Duckb\AppData\Local\Temp\ccrX4L3r.s 			page 1


   1              		.file	"main.c"
   2              		.option nopic
   3              		.attribute arch, "rv32i2p0_m2p0_a2p0_c2p0"
   4              		.attribute unaligned_access, 0
   5              		.attribute stack_align, 16
   6              		.text
   7              	.Ltext0:
   8              		.cfi_sections	.debug_frame
   9              		.section	.text.initTimer,"ax",@progbits
  10              		.align	1
  11              		.globl	initTimer
  13              	initTimer:
  14              	.LFB2:
  15              		.file 1 "main.c"
   1:main.c        **** #include "gd32vf103.h"
   2:main.c        **** #include "drivers.h"
   3:main.c        **** #include "adc.h"
   4:main.c        **** #include "lcd.h"
   5:main.c        **** #include "usart.h"
   6:main.c        **** #define EI 1
   7:main.c        **** #define DI 0
   8:main.c        **** 
   9:main.c        **** typedef struct timer{
  10:main.c        ****   uint8_t hour, minute, second;
  11:main.c        **** }Timer;
  12:main.c        **** 
  13:main.c        **** 
  14:main.c        **** 
  15:main.c        **** void initTimer(uint8_t h, uint8_t m, uint8_t s, Timer time){
  16              		.loc 1 15 60
  17              		.cfi_startproc
  18              	.LVL0:
  19 0000 4111     		addi	sp,sp,-16
  20              	.LCFI0:
  21              		.cfi_def_cfa_offset 16
  22              	.LVL1:
  16:main.c        ****   time.hour = h;
  23              		.loc 1 16 3
  17:main.c        ****   time.minute = m;
  24              		.loc 1 17 3
  18:main.c        ****   time.second = s;
  25              		.loc 1 18 3
  19:main.c        **** }
  26              		.loc 1 19 1 is_stmt 0
  27 0002 4101     		addi	sp,sp,16
  28              	.LCFI1:
  29              		.cfi_def_cfa_offset 0
  30 0004 8280     		jr	ra
  31              		.cfi_endproc
  32              	.LFE2:
  34              		.section	.text.updateTimer,"ax",@progbits
  35              		.align	1
  36              		.globl	updateTimer
  38              	updateTimer:
  39              	.LFB3:
  20:main.c        **** 
  21:main.c        **** void updateTimer(Timer time){
GAS LISTING C:\Users\Duckb\AppData\Local\Temp\ccrX4L3r.s 			page 2


  40              		.loc 1 21 29 is_stmt 1
  41              		.cfi_startproc
  42 0000 4111     		addi	sp,sp,-16
  43              	.LCFI2:
  44              		.cfi_def_cfa_offset 16
  45              	.LVL2:
  22:main.c        **** 
  23:main.c        ****  
  24:main.c        **** 
  25:main.c        ****   if(time.second >= 60){
  46              		.loc 1 25 3
  21:main.c        **** 
  47              		.loc 1 21 29 is_stmt 0
  48 0002 93570501 		srli	a5,a0,16
  49 0006 2AC6     		sw	a0,12(sp)
  50              	.LVL3:
  51              		.loc 1 25 5
  52 0008 93F7F70F 		andi	a5,a5,0xff
  53 000c 1307B003 		li	a4,59
  54 0010 6372F704 		bleu	a5,a4,.L3
  55              	.LBB11:
  26:main.c        **** 
  27:main.c        ****     time.minute++;
  56              		.loc 1 27 16
  57 0014 8347D100 		lbu	a5,13(sp)
  58 0018 0345C100 		lbu	a0,12(sp)
  59              		.loc 1 27 5 is_stmt 1
  60              		.loc 1 27 16 is_stmt 0
  61 001c 8507     		addi	a5,a5,1
  62 001e 93F7F70F 		andi	a5,a5,0xff
  63              	.LVL4:
  28:main.c        **** 
  29:main.c        ****     if(time.minute >= 60){
  64              		.loc 1 29 5 is_stmt 1
  65              		.loc 1 29 7 is_stmt 0
  66 0022 637AF700 		bleu	a5,a4,.L5
  30:main.c        ****       time.minute = 0;
  67              		.loc 1 30 7 is_stmt 1
  68              	.LVL5:
  31:main.c        ****       time.hour++;
  69              		.loc 1 31 7
  70              		.loc 1 31 16 is_stmt 0
  71 0026 0505     		addi	a0,a0,1
  72 0028 1375F50F 		andi	a0,a0,0xff
  73              	.LVL6:
  32:main.c        **** 
  33:main.c        ****       if(time.hour >= 24){
  74              		.loc 1 33 7 is_stmt 1
  75              		.loc 1 33 9 is_stmt 0
  76 002c 5D47     		li	a4,23
  30:main.c        ****       time.hour++;
  77              		.loc 1 30 19
  78 002e 8147     		li	a5,0
  79              		.loc 1 33 9
  80 0030 6373A700 		bleu	a0,a4,.L5
  34:main.c        ****         time.hour = 0;
  81              		.loc 1 34 19
GAS LISTING C:\Users\Duckb\AppData\Local\Temp\ccrX4L3r.s 			page 3


  82 0034 0145     		li	a0,0
  83              	.LVL7:
  84              	.L5:
  35:main.c        ****       }
  36:main.c        ****     }
  37:main.c        **** 
  38:main.c        ****     time.second=0;
  85              		.loc 1 38 5 is_stmt 1
  39:main.c        **** 
  40:main.c        ****     int totalTime=0;
  86              		.loc 1 40 5
  41:main.c        ****     totalTime += (time.hour * 10000) + (time.minute * 100) + (time.second);
  87              		.loc 1 41 5
  42:main.c        ****     rtc_counter_set(totalTime);
  88              		.loc 1 42 5
  41:main.c        ****     totalTime += (time.hour * 10000) + (time.minute * 100) + (time.second);
  89              		.loc 1 41 29 is_stmt 0
  90 0036 0967     		li	a4,8192
  91 0038 13070771 		addi	a4,a4,1808
  92 003c 3305E502 		mul	a0,a0,a4
  93              	.LVL8:
  41:main.c        ****     totalTime += (time.hour * 10000) + (time.minute * 100) + (time.second);
  94              		.loc 1 41 53
  95 0040 13074006 		li	a4,100
  96              	.LBE11:
  43:main.c        ****     
  44:main.c        ****   }
  45:main.c        **** }
  97              		.loc 1 45 1
  98 0044 4101     		addi	sp,sp,16
  99              	.LCFI3:
 100              		.cfi_remember_state
 101              		.cfi_def_cfa_offset 0
 102              	.LBB12:
  41:main.c        ****     rtc_counter_set(totalTime);
 103              		.loc 1 41 53
 104 0046 B387E702 		mul	a5,a5,a4
 105              	.LVL9:
  42:main.c        ****     rtc_counter_set(totalTime);
 106              		.loc 1 42 5
 107 004a 3E95     		add	a0,a0,a5
 108 004c 17030000 		tail	rtc_counter_set
 108      67000300 
 109              	.LVL10:
 110              	.L3:
 111              	.LCFI4:
 112              		.cfi_restore_state
 113              	.LBE12:
 114              		.loc 1 45 1
 115 0054 4101     		addi	sp,sp,16
 116              	.LCFI5:
 117              		.cfi_def_cfa_offset 0
 118 0056 8280     		jr	ra
 119              		.cfi_endproc
 120              	.LFE3:
 122              		.section	.text.rtcInit,"ax",@progbits
 123              		.align	1
GAS LISTING C:\Users\Duckb\AppData\Local\Temp\ccrX4L3r.s 			page 4


 124              		.globl	rtcInit
 126              	rtcInit:
 127              	.LFB4:
  46:main.c        **** 
  47:main.c        **** 
  48:main.c        **** void rtcInit(void){
 128              		.loc 1 48 19 is_stmt 1
 129              		.cfi_startproc
  49:main.c        ****    // enable power managemenet unit - perhaps enabled by default
  50:main.c        ****    rcu_periph_clock_enable(RCU_PMU);
 130              		.loc 1 50 4
  48:main.c        ****    // enable power managemenet unit - perhaps enabled by default
 131              		.loc 1 48 19 is_stmt 0
 132 0000 4111     		addi	sp,sp,-16
 133              	.LCFI6:
 134              		.cfi_def_cfa_offset 16
 135              		.loc 1 50 4
 136 0002 1305C071 		li	a0,1820
  48:main.c        ****    // enable power managemenet unit - perhaps enabled by default
 137              		.loc 1 48 19
 138 0006 06C6     		sw	ra,12(sp)
 139              		.cfi_offset 1, -4
 140              		.loc 1 50 4
 141 0008 97000000 		call	rcu_periph_clock_enable
 141      E7800000 
 142              	.LVL11:
  51:main.c        ****    // enable write access to the registers in the backup domain
  52:main.c        ****    pmu_backup_write_enable();
 143              		.loc 1 52 4 is_stmt 1
 144 0010 97000000 		call	pmu_backup_write_enable
 144      E7800000 
 145              	.LVL12:
  53:main.c        ****    // enable backup domain
  54:main.c        ****    rcu_periph_clock_enable(RCU_BKPI);
 146              		.loc 1 54 4
 147 0018 1305B071 		li	a0,1819
 148 001c 97000000 		call	rcu_periph_clock_enable
 148      E7800000 
 149              	.LVL13:
  55:main.c        ****    // reset backup domain registers
  56:main.c        ****    bkp_deinit();
 150              		.loc 1 56 4
 151 0024 97000000 		call	bkp_deinit
 151      E7800000 
 152              	.LVL14:
  57:main.c        ****    // set the results of a previous calibration procedure
  58:main.c        ****    // bkp_rtc_calibration_value_set(x);
  59:main.c        **** 
  60:main.c        ****    // setup RTC
  61:main.c        ****    // enable external low speed XO
  62:main.c        ****    //rcu_osci_on(RCU_LXTAL);
  63:main.c        ****    if (rcu_osci_stab_wait(RCU_HXTAL)) {
 153              		.loc 1 63 4
 154              		.loc 1 63 8 is_stmt 0
 155 002c 4145     		li	a0,16
 156 002e 97000000 		call	rcu_osci_stab_wait
 156      E7800000 
GAS LISTING C:\Users\Duckb\AppData\Local\Temp\ccrX4L3r.s 			page 5


 157              	.LVL15:
 158              		.loc 1 63 7
 159 0036 21CD     		beq	a0,zero,.L8
 160              	.LBB15:
 161              	.LBB16:
  64:main.c        ****      // use external low speed oscillaotr, i.e. 32.768 kHz
  65:main.c        ****      rcu_rtc_clock_config(RCU_RTCSRC_HXTAL_DIV_128);
 162              		.loc 1 65 6 is_stmt 1
 163 0038 13050030 		li	a0,768
 164 003c 97000000 		call	rcu_rtc_clock_config
 164      E7800000 
 165              	.LVL16:
  66:main.c        ****      rcu_periph_clock_enable(RCU_RTC);
 166              		.loc 1 66 6
 167 0044 0565     		li	a0,4096
 168 0046 1305F580 		addi	a0,a0,-2033
 169 004a 97000000 		call	rcu_periph_clock_enable
 169      E7800000 
 170              	.LVL17:
  67:main.c        ****      // wait until shadow registers are synced from the backup domain
  68:main.c        ****      // over the APB bus
  69:main.c        ****      rtc_register_sync_wait();
 171              		.loc 1 69 6
 172 0052 97000000 		call	rtc_register_sync_wait
 172      E7800000 
 173              	.LVL18:
  70:main.c        ****      // wait until shadow register changes are synced over APB
  71:main.c        ****      // to the backup doamin
  72:main.c        ****      rtc_lwoff_wait();
 174              		.loc 1 72 6
 175 005a 97000000 		call	rtc_lwoff_wait
 175      E7800000 
 176              	.LVL19:
  73:main.c        ****      // prescale to 1 second
  74:main.c        ****      rtc_prescaler_set(62500 - 1);
 177              		.loc 1 74 6
 178 0062 3D65     		li	a0,61440
 179 0064 13053542 		addi	a0,a0,1059
 180 0068 97000000 		call	rtc_prescaler_set
 180      E7800000 
 181              	.LVL20:
  75:main.c        ****      rtc_lwoff_wait();
 182              		.loc 1 75 6
 183 0070 97000000 		call	rtc_lwoff_wait
 183      E7800000 
 184              	.LVL21:
  76:main.c        ****      rtc_flag_clear(RTC_INT_FLAG_SECOND);
 185              		.loc 1 76 6
 186 0078 0545     		li	a0,1
 187 007a 97000000 		call	rtc_flag_clear
 187      E7800000 
 188              	.LVL22:
  77:main.c        ****      //rtc_interrupt_enable(RTC_INT_SECOND);
  78:main.c        ****      rtc_lwoff_wait();
 189              		.loc 1 78 6
 190              	.LBE16:
 191              	.LBE15:
GAS LISTING C:\Users\Duckb\AppData\Local\Temp\ccrX4L3r.s 			page 6


  79:main.c        ****    }
  80:main.c        **** }
 192              		.loc 1 80 1 is_stmt 0
 193 0082 B240     		lw	ra,12(sp)
 194              		.cfi_remember_state
 195              		.cfi_restore 1
 196 0084 4101     		addi	sp,sp,16
 197              	.LCFI7:
 198              		.cfi_def_cfa_offset 0
 199              	.LBB18:
 200              	.LBB17:
  78:main.c        ****    }
 201              		.loc 1 78 6
 202 0086 17030000 		tail	rtc_lwoff_wait
 202      67000300 
 203              	.LVL23:
 204              	.L8:
 205              	.LCFI8:
 206              		.cfi_restore_state
 207              	.LBE17:
 208              	.LBE18:
 209              		.loc 1 80 1
 210 008e B240     		lw	ra,12(sp)
 211              		.cfi_restore 1
 212 0090 4101     		addi	sp,sp,16
 213              	.LCFI9:
 214              		.cfi_def_cfa_offset 0
 215 0092 8280     		jr	ra
 216              		.cfi_endproc
 217              	.LFE4:
 219              		.section	.text.addToMessage,"ax",@progbits
 220              		.align	1
 221              		.globl	addToMessage
 223              	addToMessage:
 224              	.LFB5:
  81:main.c        **** 
  82:main.c        **** void addToMessage(int *message, int *currentPos, char *newChar, int charAmount)
  83:main.c        **** {
 225              		.loc 1 83 1 is_stmt 1
 226              		.cfi_startproc
 227              	.LVL24:
  84:main.c        **** 
  85:main.c        ****   for (int i = 0; i < charAmount; i++)
 228              		.loc 1 85 3
 229              	.LBB19:
 230              		.loc 1 85 8
 231              		.loc 1 85 12 is_stmt 0
 232 0000 0147     		li	a4,0
 233              	.LVL25:
 234              	.L12:
 235              		.loc 1 85 3 discriminator 1
 236 0002 6343D700 		blt	a4,a3,.L13
 237              	.LBE19:
  86:main.c        ****   {
  87:main.c        ****     message[(*currentPos)++] = newChar[i];
  88:main.c        ****   }
  89:main.c        ****   
GAS LISTING C:\Users\Duckb\AppData\Local\Temp\ccrX4L3r.s 			page 7


  90:main.c        **** }
 238              		.loc 1 90 1
 239 0006 8280     		ret
 240              	.L13:
 241              	.LBB20:
  87:main.c        ****   }
 242              		.loc 1 87 5 is_stmt 1 discriminator 3
  87:main.c        ****   }
 243              		.loc 1 87 39 is_stmt 0 discriminator 3
 244 0008 B307E600 		add	a5,a2,a4
 245 000c 03C80700 		lbu	a6,0(a5)
  87:main.c        ****   }
 246              		.loc 1 87 14 discriminator 3
 247 0010 9C41     		lw	a5,0(a1)
  85:main.c        ****   {
 248              		.loc 1 85 36 discriminator 3
 249 0012 0507     		addi	a4,a4,1
 250              	.LVL26:
  87:main.c        ****   }
 251              		.loc 1 87 26 discriminator 3
 252 0014 93881700 		addi	a7,a5,1
  87:main.c        ****   }
 253              		.loc 1 87 30 discriminator 3
 254 0018 8A07     		slli	a5,a5,2
  87:main.c        ****   }
 255              		.loc 1 87 26 discriminator 3
 256 001a 23A01501 		sw	a7,0(a1)
  87:main.c        ****   }
 257              		.loc 1 87 30 discriminator 3
 258 001e AA97     		add	a5,a0,a5
  87:main.c        ****   }
 259              		.loc 1 87 39 discriminator 3
 260 0020 23A00701 		sw	a6,0(a5)
 261 0024 F9BF     		j	.L12
 262              	.LBE20:
 263              		.cfi_endproc
 264              	.LFE5:
 266              		.section	.text.addToMessage2,"ax",@progbits
 267              		.align	1
 268              		.globl	addToMessage2
 270              	addToMessage2:
 271              	.LFB6:
  91:main.c        **** 
  92:main.c        **** 
  93:main.c        **** void addToMessage2(int *message, int *currentPos, int *newChar, int charAmount)
  94:main.c        **** {
 272              		.loc 1 94 1 is_stmt 1
 273              		.cfi_startproc
 274              	.LVL27:
  95:main.c        **** 
  96:main.c        ****   for (int i = 0; i < charAmount; i++)
 275              		.loc 1 96 3
 276              	.LBB21:
 277              		.loc 1 96 8
 278              		.loc 1 96 12 is_stmt 0
 279 0000 0147     		li	a4,0
 280              	.LVL28:
GAS LISTING C:\Users\Duckb\AppData\Local\Temp\ccrX4L3r.s 			page 8


 281              	.L15:
 282              		.loc 1 96 3 discriminator 1
 283 0002 6343D700 		blt	a4,a3,.L16
 284              	.LBE21:
  97:main.c        ****   {
  98:main.c        ****     message[(*currentPos)++] = newChar[i];
  99:main.c        ****   }
 100:main.c        ****   
 101:main.c        **** }
 285              		.loc 1 101 1
 286 0006 8280     		ret
 287              	.L16:
 288              	.LBB22:
  98:main.c        ****   }
 289              		.loc 1 98 5 is_stmt 1 discriminator 3
  98:main.c        ****   }
 290              		.loc 1 98 14 is_stmt 0 discriminator 3
 291 0008 9C41     		lw	a5,0(a1)
  98:main.c        ****   }
 292              		.loc 1 98 26 discriminator 3
 293 000a 13881700 		addi	a6,a5,1
 294 000e 23A00501 		sw	a6,0(a1)
  98:main.c        ****   }
 295              		.loc 1 98 39 discriminator 3
 296 0012 13182700 		slli	a6,a4,2
 297 0016 3298     		add	a6,a2,a6
 298 0018 03280800 		lw	a6,0(a6)
  98:main.c        ****   }
 299              		.loc 1 98 30 discriminator 3
 300 001c 8A07     		slli	a5,a5,2
 301 001e AA97     		add	a5,a0,a5
 302 0020 23A00701 		sw	a6,0(a5)
  96:main.c        ****   {
 303              		.loc 1 96 36 discriminator 3
 304 0024 0507     		addi	a4,a4,1
 305              	.LVL29:
 306 0026 F1BF     		j	.L15
 307              	.LBE22:
 308              		.cfi_endproc
 309              	.LFE6:
 311              		.section	.text.addToMessage2Dig,"ax",@progbits
 312              		.align	1
 313              		.globl	addToMessage2Dig
 315              	addToMessage2Dig:
 316              	.LFB7:
 102:main.c        **** 
 103:main.c        **** void addToMessage2Dig(int *message, int *currentPos, int newChar)
 104:main.c        **** {
 317              		.loc 1 104 1 is_stmt 1
 318              		.cfi_startproc
 319              	.LVL30:
 105:main.c        ****   int ten = (newChar / 10);
 320              		.loc 1 105 3
 321              		.loc 1 105 7 is_stmt 0
 322 0000 A947     		li	a5,10
 323 0002 B347F602 		div	a5,a2,a5
 324              	.LVL31:
GAS LISTING C:\Users\Duckb\AppData\Local\Temp\ccrX4L3r.s 			page 9


 106:main.c        ****   int one = (newChar - (ten * 10));
 325              		.loc 1 106 3 is_stmt 1
 107:main.c        **** 
 108:main.c        ****   message[(*currentPos)++] = ten + 0x30;
 326              		.loc 1 108 3
 327              		.loc 1 108 12 is_stmt 0
 328 0006 9841     		lw	a4,0(a1)
 329              		.loc 1 108 24
 330 0008 93061700 		addi	a3,a4,1
 331              		.loc 1 108 28
 332 000c 0A07     		slli	a4,a4,2
 333              		.loc 1 108 24
 334 000e 94C1     		sw	a3,0(a1)
 335              		.loc 1 108 28
 336 0010 2A97     		add	a4,a0,a4
 337              		.loc 1 108 34
 338 0012 93860703 		addi	a3,a5,48
 339              		.loc 1 108 28
 340 0016 14C3     		sw	a3,0(a4)
 109:main.c        ****   message[(*currentPos)++] = one + 0x30;
 341              		.loc 1 109 3 is_stmt 1
 342              		.loc 1 109 12 is_stmt 0
 343 0018 9841     		lw	a4,0(a1)
 344              		.loc 1 109 24
 345 001a 93061700 		addi	a3,a4,1
 346              		.loc 1 109 28
 347 001e 0A07     		slli	a4,a4,2
 348 0020 3A95     		add	a0,a0,a4
 349              	.LVL32:
 106:main.c        ****   int one = (newChar - (ten * 10));
 350              		.loc 1 106 29
 351 0022 5957     		li	a4,-10
 352 0024 B387E702 		mul	a5,a5,a4
 353              	.LVL33:
 354              		.loc 1 109 24
 355 0028 94C1     		sw	a3,0(a1)
 106:main.c        ****   int one = (newChar - (ten * 10));
 356              		.loc 1 106 7
 357 002a B297     		add	a5,a5,a2
 358              	.LVL34:
 359              		.loc 1 109 34
 360 002c 93870703 		addi	a5,a5,48
 361              	.LVL35:
 362              		.loc 1 109 28
 363 0030 1CC1     		sw	a5,0(a0)
 110:main.c        ****   
 111:main.c        ****   
 112:main.c        **** }
 364              		.loc 1 112 1
 365 0032 8280     		ret
 366              		.cfi_endproc
 367              	.LFE7:
 369              		.section	.text.startup.main,"ax",@progbits
 370              		.align	1
 371              		.globl	main
 373              	main:
 374              	.LFB8:
GAS LISTING C:\Users\Duckb\AppData\Local\Temp\ccrX4L3r.s 			page 10


 113:main.c        **** 
 114:main.c        **** //TODO: Move old messages up when adding new one show SET after you have set the timer
 115:main.c        **** //TODO: You should probably it over via message, so set message to "SET\n"
 116:main.c        **** int main(void){
 375              		.loc 1 116 15 is_stmt 1
 376              		.cfi_startproc
 117:main.c        ****     int ms=0, s=0, key, pKey=-1, c=0, idle=0, rtc, hh, mm, ss;
 377              		.loc 1 117 5
 378              	.LVL36:
 118:main.c        ****     int lookUpTbl[16]={1,4,7,14,2,5,8,0,3,6,9,15,10,11,12,13};
 379              		.loc 1 118 5
 116:main.c        ****     int ms=0, s=0, key, pKey=-1, c=0, idle=0, rtc, hh, mm, ss;
 380              		.loc 1 116 15 is_stmt 0
 381 0000 2571     		addi	sp,sp,-416
 382              	.LCFI10:
 383              		.cfi_def_cfa_offset 416
 384              		.loc 1 118 9
 385 0002 B7050000 		lui	a1,%hi(.LANCHOR0)
 386 0006 13060004 		li	a2,64
 387 000a 93850500 		addi	a1,a1,%lo(.LANCHOR0)
 388 000e E808     		addi	a0,sp,92
 116:main.c        ****     int ms=0, s=0, key, pKey=-1, c=0, idle=0, rtc, hh, mm, ss;
 389              		.loc 1 116 15
 390 0010 232E1118 		sw	ra,412(sp)
 391 0014 232C8118 		sw	s0,408(sp)
 392 0018 232A9118 		sw	s1,404(sp)
 393 001c 23282119 		sw	s2,400(sp)
 394 0020 23263119 		sw	s3,396(sp)
 395 0024 23225119 		sw	s5,388(sp)
 396 0028 23206119 		sw	s6,384(sp)
 397 002c 232E7117 		sw	s7,380(sp)
 398 0030 232C8117 		sw	s8,376(sp)
 399 0034 232A9117 		sw	s9,372(sp)
 400 0038 2328A117 		sw	s10,368(sp)
 401 003c 2326B117 		sw	s11,364(sp)
 402 0040 23244119 		sw	s4,392(sp)
 403              		.cfi_offset 1, -4
 404              		.cfi_offset 8, -8
 405              		.cfi_offset 9, -12
 406              		.cfi_offset 18, -16
 407              		.cfi_offset 19, -20
 408              		.cfi_offset 21, -28
 409              		.cfi_offset 22, -32
 410              		.cfi_offset 23, -36
 411              		.cfi_offset 24, -40
 412              		.cfi_offset 25, -44
 413              		.cfi_offset 26, -48
 414              		.cfi_offset 27, -52
 415              		.cfi_offset 20, -24
 416              		.loc 1 118 9
 417 0044 97000000 		call	memcpy
 417      E7800000 
 418              	.LVL37:
 119:main.c        **** 
 120:main.c        ****     int setTime[6] = {0}, currentTime=5;
 419              		.loc 1 120 5 is_stmt 1
 420              		.loc 1 120 9 is_stmt 0
GAS LISTING C:\Users\Duckb\AppData\Local\Temp\ccrX4L3r.s 			page 11


 421 004c 6146     		li	a2,24
 422 004e 8145     		li	a1,0
 423 0050 6810     		addi	a0,sp,44
 424 0052 97000000 		call	memset
 424      E7800000 
 425              	.LVL38:
 121:main.c        **** 
 122:main.c        ****     Timer timer;
 426              		.loc 1 122 5 is_stmt 1
 123:main.c        ****     initTimer(0, 0, 0, timer);
 427              		.loc 1 123 5
  16:main.c        ****   time.minute = m;
 428              		.loc 1 16 3
  17:main.c        ****   time.second = s;
 429              		.loc 1 17 3
  18:main.c        **** }
 430              		.loc 1 18 3
 124:main.c        **** 
 125:main.c        ****     int testing[15] = {0}, cTest=0;
 431              		.loc 1 125 5
 126:main.c        **** 
 127:main.c        ****     int isSet=0;
 432              		.loc 1 127 5
 128:main.c        **** 
 129:main.c        ****     int currentPos=0, currentMessage=0, currentRecieve=0;
 433              		.loc 1 129 5
 130:main.c        **** 
 131:main.c        ****     int result[6] = {0};
 434              		.loc 1 131 9 is_stmt 0
 435 005a 6146     		li	a2,24
 436 005c 8145     		li	a1,0
 437 005e C800     		addi	a0,sp,68
 129:main.c        **** 
 438              		.loc 1 129 9
 439 0060 02D2     		sw	zero,36(sp)
 440              	.LVL39:
 441              		.loc 1 131 5 is_stmt 1
 442              		.loc 1 131 9 is_stmt 0
 443 0062 97000000 		call	memset
 443      E7800000 
 444              	.LVL40:
 132:main.c        ****     
 133:main.c        ****     int message[17], savedMessage[2][16], currSave=0, hasSaved=1, currSaveTot=0, currSaveInst=0;
 445              		.loc 1 133 5 is_stmt 1
 134:main.c        ****     message[17] = '\n';
 446              		.loc 1 134 5
 447              		.loc 1 134 17 is_stmt 0
 448 006a A947     		li	a5,10
 449 006c BED1     		sw	a5,224(sp)
 135:main.c        **** 
 136:main.c        ****     int analysis[3], currentAnalysis=0, startAnalysis=0;
 450              		.loc 1 136 5 is_stmt 1
 451              	.LVL41:
 137:main.c        ****     
 138:main.c        **** 
 139:main.c        ****     int currentX=0;
 452              		.loc 1 139 5
GAS LISTING C:\Users\Duckb\AppData\Local\Temp\ccrX4L3r.s 			page 12


 140:main.c        ****     int dac=0, speed=-100;
 453              		.loc 1 140 5
 141:main.c        ****     int adcr, tmpr;
 454              		.loc 1 141 5
 142:main.c        ****     //char time[7]={0};
 143:main.c        **** 
 144:main.c        ****     t5omsi();                               // Initialize timer5 1kHz
 455              		.loc 1 144 5
 456 006e 97000000 		call	t5omsi
 456      E7800000 
 457              	.LVL42:
 145:main.c        ****     colinit();                              // Initialize column toolbox
 458              		.loc 1 145 5
 459 0076 97000000 		call	colinit
 459      E7800000 
 460              	.LVL43:
 146:main.c        ****     l88init();                              // Initialize 8*8 led toolbox
 461              		.loc 1 146 5
 462 007e 97000000 		call	l88init
 462      E7800000 
 463              	.LVL44:
 147:main.c        ****     keyinit();                              // Initialize keyboard toolbox
 464              		.loc 1 147 5
 465 0086 97000000 		call	keyinit
 465      E7800000 
 466              	.LVL45:
 148:main.c        ****     ADC3powerUpInit(1);                     // Initialize ADC0, Ch3
 467              		.loc 1 148 5
 468 008e 0545     		li	a0,1
 469 0090 97000000 		call	ADC3powerUpInit
 469      E7800000 
 470              	.LVL46:
 149:main.c        ****     Lcd_SetType(LCD_NORMAL);//NORMAL);                // or use LCD_INVERTED!
 471              		.loc 1 149 5
 472 0098 0145     		li	a0,0
 473 009a 97000000 		call	Lcd_SetType
 473      E7800000 
 474              	.LVL47:
 150:main.c        ****     Lcd_Init();
 475              		.loc 1 150 5
 476 00a2 97000000 		call	Lcd_Init
 476      E7800000 
 477              	.LVL48:
 151:main.c        ****     LCD_Clear(BLACK);
 478              		.loc 1 151 5
 479 00aa 0145     		li	a0,0
 480 00ac 97000000 		call	LCD_Clear
 480      E7800000 
 481              	.LVL49:
 152:main.c        **** 
 153:main.c        ****   
 154:main.c        ****     // addToMessage(message, &currentPos, "ID-000", 6);
 155:main.c        **** 
 156:main.c        **** 
 157:main.c        ****     rtcInit();                              // Initialize RTC
 482              		.loc 1 157 5
 483 00b4 97000000 		call	rtcInit
GAS LISTING C:\Users\Duckb\AppData\Local\Temp\ccrX4L3r.s 			page 13


 483      E7800000 
 484              	.LVL50:
 158:main.c        ****     
 159:main.c        ****     u0init(EI);                             // Initialize USART0 toolbox
 485              		.loc 1 159 5
 486 00bc 0545     		li	a0,1
 160:main.c        ****     
 161:main.c        **** 
 162:main.c        ****     eclic_global_interrupt_enable();        // !!! INTERRUPT ENABLED !!!
 163:main.c        **** 
 164:main.c        ****     while (1) {
 165:main.c        ****         idle++;                             // Manage Async events
 166:main.c        ****         LCD_WR_Queue();                     // Manage LCD com queue!
 167:main.c        ****         //u0_TX_Queue();                      // Manage U(S)ART TX Queue!
 168:main.c        **** 
 169:main.c        ****         if (adc_flag_get(ADC0,ADC_FLAG_EOC)==SET) { // ...ADC done?
 170:main.c        ****           if (adc_flag_get(ADC0,ADC_FLAG_EOIC)==SET) { //...ch3 or ch16?
 171:main.c        ****             tmpr = adc_inserted_data_read(ADC0, ADC_INSERTED_CHANNEL_0);
 172:main.c        ****             // usart_data_transmit(USART0, ((0x680-tmpr)/5)+25); // USRAT0 TX!
 173:main.c        ****             adc_flag_clear(ADC0, ADC_FLAG_EOC);
 174:main.c        ****             adc_flag_clear(ADC0, ADC_FLAG_EOIC);
 175:main.c        ****           } else {
 176:main.c        ****             adcr = adc_regular_data_read(ADC0); // ......get data
 177:main.c        ****             // usart_data_transmit(USART0, adcr);
 178:main.c        **** 
 179:main.c        ****             adc_flag_clear(ADC0, ADC_FLAG_EOC); // ......clear IF
 180:main.c        ****             adc_software_trigger_enable(ADC0, ADC_REGULAR_CHANNEL);
 181:main.c        ****           }
 182:main.c        ****         }
 183:main.c        ****         
 184:main.c        **** 
 185:main.c        **** 
 186:main.c        ****         if(usart_flag_get(USART0, USART_FLAG_RBNE)){
 187:main.c        **** 
 188:main.c        ****           
 189:main.c        ****           
 190:main.c        ****           if(usart_data_receive(USART0) != '\0'){
 191:main.c        **** 
 192:main.c        ****             if(currentRecieve == 12 || currentRecieve == 6){
 193:main.c        ****               currentX+=8;
 194:main.c        ****             }
 195:main.c        **** 
 196:main.c        **** 
 197:main.c        ****             currentRecieve++;
 198:main.c        ****             LCD_ShowChar((currentX+=8), 50, usart_data_receive(USART0), OPAQUE, WHITE);
 199:main.c        ****    
 200:main.c        **** 
 201:main.c        ****           }else{
 202:main.c        ****             
 203:main.c        ****             
 204:main.c        ****             int x=0,y=30,j=0;
 205:main.c        **** 
 206:main.c        ****             for (int i = 0; i <= currSaveTot; i++)
 207:main.c        ****             {
 208:main.c        ****               while(savedMessage[i][j]!='\0')
 209:main.c        ****               {
 210:main.c        ****                 if(j == 6 || j == 12){
GAS LISTING C:\Users\Duckb\AppData\Local\Temp\ccrX4L3r.s 			page 14


 211:main.c        ****                   x+=8;
 212:main.c        ****                 }
 213:main.c        ****                 if(savedMessage[i][j]!='\n')
 214:main.c        ****                   LCD_ShowChar((x+=8), y, savedMessage[i][j], OPAQUE, WHITE);
 215:main.c        ****                 j+=1;
 216:main.c        ****               }
 217:main.c        ****               x=j=0;
 218:main.c        ****               y-=20;
 219:main.c        **** 
 220:main.c        ****             }
 221:main.c        **** 
 222:main.c        ****             if(currSaveTot < 1)
 223:main.c        ****               currSaveTot++;
 224:main.c        ****             
 225:main.c        **** 
 226:main.c        **** 
 227:main.c        ****      
 228:main.c        ****             
 229:main.c        ****            
 230:main.c        **** 
 231:main.c        **** 
 232:main.c        ****             
 233:main.c        ****           }
 234:main.c        **** 
 235:main.c        ****  
 236:main.c        ****         }
 237:main.c        **** 
 238:main.c        ****         
 239:main.c        **** 
 240:main.c        ****       
 241:main.c        ****         if (t5expq()) {                     // Manage periodic tasks
 242:main.c        ****             l88row(colset());               // ...8*8LED and Keyboard
 243:main.c        ****             
 244:main.c        **** 
 245:main.c        ****             if(isSet==0){
 246:main.c        ****               
 247:main.c        ****               if((key=keyscan()) >= 0){
 248:main.c        ****                 
 249:main.c        ****                 setTime[currentTime--] = lookUpTbl[key];
 250:main.c        ****                 
 251:main.c        ****                 if(currentTime >= -1){
 252:main.c        ****                   
 253:main.c        ****                   usart_data_transmit(USART0, lookUpTbl[key] + 0x30);
 254:main.c        **** 
 255:main.c        ****                   int lookKey[1] = {lookUpTbl[key] + 0x30};
 256:main.c        ****                   addToMessage2(message, &currentPos, lookKey, 1);
 257:main.c        **** 
 258:main.c        ****                 }
 259:main.c        **** 
 260:main.c        ****                 if(lookUpTbl[key] == 13 && currentTime <= 0){
 261:main.c        ****                   int totalTime=0, j=1;
 262:main.c        ****                   for (int i = 0; i < 6; i++)
 263:main.c        ****                   {
 264:main.c        ****                     if(i < 2){
 265:main.c        ****                       timer.second += (setTime[i] * j);
 266:main.c        ****                       j*=10;
 267:main.c        ****                     }
GAS LISTING C:\Users\Duckb\AppData\Local\Temp\ccrX4L3r.s 			page 15


 268:main.c        ****                     else if(i < 4){
 269:main.c        ****                       if(i == 2){
 270:main.c        ****                         j = 1;
 271:main.c        ****                       }
 272:main.c        ****                       
 273:main.c        ****                       timer.minute += (setTime[i] * j);
 274:main.c        ****                       j*=10;
 275:main.c        **** 
 276:main.c        ****                     }
 277:main.c        ****                     else{
 278:main.c        ****                       if(i == 4){
 279:main.c        ****                         j = 1;
 280:main.c        ****                       }
 281:main.c        **** 
 282:main.c        ****                       timer.hour += (setTime[i] * j);
 283:main.c        ****                       j*=10;
 284:main.c        **** 
 285:main.c        ****                     }
 286:main.c        ****                   }
 287:main.c        ****                   totalTime += (timer.hour * 10000) + (timer.minute * 100) + (timer.second);
 288:main.c        **** 
 289:main.c        **** 
 290:main.c        ****                   rtc_counter_set(totalTime);
 291:main.c        ****                   addToMessage(message, &currentPos, "SET\n\0", 5);
 292:main.c        ****                   currentX = 0;
 293:main.c        ****                   currentRecieve = 0;
 294:main.c        ****                   isSet=1;
 295:main.c        ****               
 296:main.c        ****                   LCD_Clear(BLACK);
 297:main.c        ****                 }
 298:main.c        ****                 
 299:main.c        ****               }
 300:main.c        **** 
 301:main.c        ****               continue;
 302:main.c        ****             }
 303:main.c        **** 
 304:main.c        ****             timer.hour = rtc_counter_get() / 10000;
 487              		.loc 1 304 44 is_stmt 0
 488 00be 896C     		li	s9,8192
 159:main.c        ****     
 489              		.loc 1 159 5
 490 00c0 97000000 		call	u0init
 490      E7800000 
 491              	.LVL51:
 162:main.c        **** 
 492              		.loc 1 162 5 is_stmt 1
 116:main.c        ****     int ms=0, s=0, key, pKey=-1, c=0, idle=0, rtc, hh, mm, ss;
 493              		.loc 1 116 15 is_stmt 0
 494 00c8 814A     		li	s5,0
 162:main.c        **** 
 495              		.loc 1 162 5
 496 00ca 97000000 		call	eclic_global_interrupt_enable
 496      E7800000 
 497              	.LVL52:
 116:main.c        ****     int ms=0, s=0, key, pKey=-1, c=0, idle=0, rtc, hh, mm, ss;
 498              		.loc 1 116 15
 499 00d2 0144     		li	s0,0
GAS LISTING C:\Users\Duckb\AppData\Local\Temp\ccrX4L3r.s 			page 16


 500 00d4 8144     		li	s1,0
 139:main.c        ****     int dac=0, speed=-100;
 501              		.loc 1 139 9
 502 00d6 014B     		li	s6,0
 133:main.c        ****     message[17] = '\n';
 503              		.loc 1 133 67
 504 00d8 02C4     		sw	zero,8(sp)
 129:main.c        **** 
 505              		.loc 1 129 41
 506 00da 814B     		li	s7,0
 129:main.c        **** 
 507              		.loc 1 129 23
 508 00dc 014C     		li	s8,0
 127:main.c        **** 
 509              		.loc 1 127 9
 510 00de 814D     		li	s11,0
 120:main.c        **** 
 511              		.loc 1 120 27
 512 00e0 1549     		li	s2,5
 192:main.c        ****               currentX+=8;
 513              		.loc 1 192 37
 514 00e2 194D     		li	s10,6
 515              	.LBB23:
 516              	.LBB24:
 213:main.c        ****                   LCD_ShowChar((x+=8), y, savedMessage[i][j], OPAQUE, WHITE);
 517              		.loc 1 213 19
 518 00e4 A949     		li	s3,10
 519              	.LBE24:
 520              	.LBE23:
 521              		.loc 1 304 44
 522 00e6 938C0C71 		addi	s9,s9,1808
 523              	.LVL53:
 524              	.L19:
 164:main.c        ****         idle++;                             // Manage Async events
 525              		.loc 1 164 5 is_stmt 1
 165:main.c        ****         LCD_WR_Queue();                     // Manage LCD com queue!
 526              		.loc 1 165 9
 166:main.c        ****         //u0_TX_Queue();                      // Manage U(S)ART TX Queue!
 527              		.loc 1 166 9
 528 00ea 97000000 		call	LCD_WR_Queue
 528      E7800000 
 529              	.LVL54:
 169:main.c        ****           if (adc_flag_get(ADC0,ADC_FLAG_EOIC)==SET) { //...ch3 or ch16?
 530              		.loc 1 169 9
 169:main.c        ****           if (adc_flag_get(ADC0,ADC_FLAG_EOIC)==SET) { //...ch3 or ch16?
 531              		.loc 1 169 13 is_stmt 0
 532 00f2 372A0140 		li	s4,1073815552
 533 00f6 8945     		li	a1,2
 534 00f8 13050A40 		addi	a0,s4,1024
 535 00fc 97000000 		call	adc_flag_get
 535      E7800000 
 536              	.LVL55:
 169:main.c        ****           if (adc_flag_get(ADC0,ADC_FLAG_EOIC)==SET) { //...ch3 or ch16?
 537              		.loc 1 169 12
 538 0104 0547     		li	a4,1
 539 0106 6313E504 		bne	a0,a4,.L20
 540 010a 2AC8     		sw	a0,16(sp)
GAS LISTING C:\Users\Duckb\AppData\Local\Temp\ccrX4L3r.s 			page 17


 170:main.c        ****             tmpr = adc_inserted_data_read(ADC0, ADC_INSERTED_CHANNEL_0);
 541              		.loc 1 170 11 is_stmt 1
 170:main.c        ****             tmpr = adc_inserted_data_read(ADC0, ADC_INSERTED_CHANNEL_0);
 542              		.loc 1 170 15 is_stmt 0
 543 010c 9145     		li	a1,4
 544 010e 13050A40 		addi	a0,s4,1024
 545 0112 97000000 		call	adc_flag_get
 545      E7800000 
 546              	.LVL56:
 170:main.c        ****             tmpr = adc_inserted_data_read(ADC0, ADC_INSERTED_CHANNEL_0);
 547              		.loc 1 170 14
 548 011a C247     		lw	a5,16(sp)
 549 011c 6318F506 		bne	a0,a5,.L21
 171:main.c        ****             // usart_data_transmit(USART0, ((0x680-tmpr)/5)+25); // USRAT0 TX!
 550              		.loc 1 171 13 is_stmt 1
 171:main.c        ****             // usart_data_transmit(USART0, ((0x680-tmpr)/5)+25); // USRAT0 TX!
 551              		.loc 1 171 20 is_stmt 0
 552 0120 8145     		li	a1,0
 553 0122 13050A40 		addi	a0,s4,1024
 554 0126 97000000 		call	adc_inserted_data_read
 554      E7800000 
 555              	.LVL57:
 556 012e 2AC6     		sw	a0,12(sp)
 557              	.LVL58:
 173:main.c        ****             adc_flag_clear(ADC0, ADC_FLAG_EOIC);
 558              		.loc 1 173 13 is_stmt 1
 559 0130 8945     		li	a1,2
 560 0132 13050A40 		addi	a0,s4,1024
 561              	.LVL59:
 562 0136 97000000 		call	adc_flag_clear
 562      E7800000 
 563              	.LVL60:
 174:main.c        ****           } else {
 564              		.loc 1 174 13
 565 013e 9145     		li	a1,4
 566 0140 13050A40 		addi	a0,s4,1024
 567 0144 97000000 		call	adc_flag_clear
 567      E7800000 
 568              	.LVL61:
 569              	.L20:
 186:main.c        **** 
 570              		.loc 1 186 9
 186:main.c        **** 
 571              		.loc 1 186 12 is_stmt 0
 572 014c 374A0140 		li	s4,1073823744
 573 0150 9545     		li	a1,5
 574 0152 13050A80 		addi	a0,s4,-2048
 575 0156 97000000 		call	usart_flag_get
 575      E7800000 
 576              	.LVL62:
 186:main.c        **** 
 577              		.loc 1 186 11
 578 015e 41C9     		beq	a0,zero,.L22
 190:main.c        **** 
 579              		.loc 1 190 11 is_stmt 1
 190:main.c        **** 
 580              		.loc 1 190 14 is_stmt 0
GAS LISTING C:\Users\Duckb\AppData\Local\Temp\ccrX4L3r.s 			page 18


 581 0160 13050A80 		addi	a0,s4,-2048
 582 0164 97000000 		call	usart_data_receive
 582      E7800000 
 583              	.LVL63:
 190:main.c        **** 
 584              		.loc 1 190 13
 585 016c 29E5     		bne	a0,zero,.L23
 586 016e 2247     		lw	a4,8(sp)
 587 0170 B157     		li	a5,-20
 588              	.LBB28:
 589              	.LBB25:
 214:main.c        ****                 j+=1;
 590              		.loc 1 214 19
 591 0172 C16E     		li	t4,65536
 592 0174 B307F702 		mul	a5,a4,a5
 593 0178 130E010E 		addi	t3,sp,224
 594              	.LBE25:
 204:main.c        **** 
 595              		.loc 1 204 21
 596 017c F948     		li	a7,30
 597              	.LBB26:
 210:main.c        ****                   x+=8;
 598              		.loc 1 210 27
 599 017e 314F     		li	t5,12
 214:main.c        ****                 j+=1;
 600              		.loc 1 214 19
 601 0180 FD1E     		addi	t4,t4,-1
 602 0182 A907     		addi	a5,a5,10
 603              	.LVL64:
 604              	.L24:
 605              	.LBE26:
 606              	.LBE28:
 120:main.c        **** 
 607              		.loc 1 120 27
 608 0184 7283     		mv	t1,t3
 609 0186 0148     		li	a6,0
 610 0188 014A     		li	s4,0
 611 018a 61AA     		j	.L31
 612              	.LVL65:
 613              	.L21:
 176:main.c        ****             // usart_data_transmit(USART0, adcr);
 614              		.loc 1 176 13 is_stmt 1
 176:main.c        ****             // usart_data_transmit(USART0, adcr);
 615              		.loc 1 176 20 is_stmt 0
 616 018c 13050A40 		addi	a0,s4,1024
 617 0190 97000000 		call	adc_regular_data_read
 617      E7800000 
 618              	.LVL66:
 179:main.c        ****             adc_software_trigger_enable(ADC0, ADC_REGULAR_CHANNEL);
 619              		.loc 1 179 13 is_stmt 1
 620 0198 13050A40 		addi	a0,s4,1024
 621 019c 8945     		li	a1,2
 622 019e 97000000 		call	adc_flag_clear
 622      E7800000 
 623              	.LVL67:
 180:main.c        ****           }
 624              		.loc 1 180 13
GAS LISTING C:\Users\Duckb\AppData\Local\Temp\ccrX4L3r.s 			page 19


 625 01a6 8545     		li	a1,1
 626 01a8 13050A40 		addi	a0,s4,1024
 627 01ac 97000000 		call	adc_software_trigger_enable
 627      E7800000 
 628              	.LVL68:
 629 01b4 61BF     		j	.L20
 630              	.L23:
 192:main.c        ****               currentX+=8;
 631              		.loc 1 192 13
 192:main.c        ****               currentX+=8;
 632              		.loc 1 192 15 is_stmt 0
 633 01b6 B147     		li	a5,12
 634 01b8 6384FB00 		beq	s7,a5,.L25
 192:main.c        ****               currentX+=8;
 635              		.loc 1 192 37 discriminator 1
 636 01bc 6393AB01 		bne	s7,s10,.L26
 637              	.L25:
 193:main.c        ****             }
 638              		.loc 1 193 15 is_stmt 1
 193:main.c        ****             }
 639              		.loc 1 193 23 is_stmt 0
 640 01c0 210B     		addi	s6,s6,8
 641              	.LVL69:
 642              	.L26:
 197:main.c        ****             LCD_ShowChar((currentX+=8), 50, usart_data_receive(USART0), OPAQUE, WHITE);
 643              		.loc 1 197 13 is_stmt 1
 198:main.c        ****    
 644              		.loc 1 198 45 is_stmt 0
 645 01c2 37450140 		li	a0,1073823744
 646 01c6 13050580 		addi	a0,a0,-2048
 647 01ca 97000000 		call	usart_data_receive
 647      E7800000 
 648              	.LVL70:
 198:main.c        ****    
 649              		.loc 1 198 35
 650 01d2 210B     		addi	s6,s6,8
 651              	.LVL71:
 198:main.c        ****    
 652              		.loc 1 198 13
 653 01d4 4167     		li	a4,65536
 654 01d6 1376F50F 		andi	a2,a0,0xff
 655 01da 7D17     		addi	a4,a4,-1
 656 01dc 8146     		li	a3,0
 657 01de 93052003 		li	a1,50
 658 01e2 5A85     		mv	a0,s6
 197:main.c        ****             LCD_ShowChar((currentX+=8), 50, usart_data_receive(USART0), OPAQUE, WHITE);
 659              		.loc 1 197 27
 660 01e4 850B     		addi	s7,s7,1
 661              	.LVL72:
 198:main.c        ****    
 662              		.loc 1 198 13 is_stmt 1
 663 01e6 97000000 		call	LCD_ShowChar
 663      E7800000 
 664              	.LVL73:
 665              	.L22:
 241:main.c        ****             l88row(colset());               // ...8*8LED and Keyboard
 666              		.loc 1 241 9
GAS LISTING C:\Users\Duckb\AppData\Local\Temp\ccrX4L3r.s 			page 20


 241:main.c        ****             l88row(colset());               // ...8*8LED and Keyboard
 667              		.loc 1 241 13 is_stmt 0
 668 01ee 97000000 		call	t5expq
 668      E7800000 
 669              	.LVL74:
 241:main.c        ****             l88row(colset());               // ...8*8LED and Keyboard
 670              		.loc 1 241 12
 671 01f6 E30A05EE 		beq	a0,zero,.L19
 242:main.c        ****             
 672              		.loc 1 242 13 is_stmt 1
 673 01fa 97000000 		call	colset
 673      E7800000 
 674              	.LVL75:
 675 0202 97000000 		call	l88row
 675      E7800000 
 676              	.LVL76:
 245:main.c        ****               
 677              		.loc 1 245 13
 245:main.c        ****               
 678              		.loc 1 245 15 is_stmt 0
 679 020a 639B0D14 		bne	s11,zero,.L33
 247:main.c        ****                 
 680              		.loc 1 247 15 is_stmt 1
 247:main.c        ****                 
 681              		.loc 1 247 23 is_stmt 0
 682 020e 97000000 		call	keyscan
 682      E7800000 
 683              	.LVL77:
 247:main.c        ****                 
 684              		.loc 1 247 17
 685 0216 E34A05EC 		blt	a0,zero,.L19
 249:main.c        ****                 
 686              		.loc 1 249 51
 687 021a 9C12     		addi	a5,sp,352
 688 021c 0A05     		slli	a0,a0,2
 689              	.LVL78:
 690 021e 3E95     		add	a0,a5,a0
 691 0220 8327C5EF 		lw	a5,-260(a0)
 249:main.c        ****                 
 692              		.loc 1 249 40
 693 0224 9812     		addi	a4,sp,352
 694 0226 130AF9FF 		addi	s4,s2,-1
 249:main.c        ****                 
 695              		.loc 1 249 17 is_stmt 1
 696              	.LVL79:
 249:main.c        ****                 
 697              		.loc 1 249 40 is_stmt 0
 698 022a 0A09     		slli	s2,s2,2
 699 022c 3A99     		add	s2,a4,s2
 700 022e 2326F9EC 		sw	a5,-308(s2)
 251:main.c        ****                   
 701              		.loc 1 251 17 is_stmt 1
 251:main.c        ****                   
 702              		.loc 1 251 19 is_stmt 0
 703 0232 7D57     		li	a4,-1
 704 0234 6348EA02 		blt	s4,a4,.L34
 705              	.LBB29:
GAS LISTING C:\Users\Duckb\AppData\Local\Temp\ccrX4L3r.s 			page 21


 253:main.c        **** 
 706              		.loc 1 253 19 is_stmt 1
 253:main.c        **** 
 707              		.loc 1 253 62 is_stmt 0
 708 0238 13890703 		addi	s2,a5,48
 253:main.c        **** 
 709              		.loc 1 253 19
 710 023c 37450140 		li	a0,1073823744
 711 0240 CA85     		mv	a1,s2
 712 0242 13050580 		addi	a0,a0,-2048
 253:main.c        **** 
 713              		.loc 1 253 62
 714 0246 3EC8     		sw	a5,16(sp)
 253:main.c        **** 
 715              		.loc 1 253 19
 716 0248 97000000 		call	usart_data_transmit
 716      E7800000 
 717              	.LVL80:
 255:main.c        ****                   addToMessage2(message, &currentPos, lookKey, 1);
 718              		.loc 1 255 19 is_stmt 1
 256:main.c        **** 
 719              		.loc 1 256 19 is_stmt 0
 720 0250 8546     		li	a3,1
 721 0252 3010     		addi	a2,sp,40
 722 0254 4C10     		addi	a1,sp,36
 723 0256 6809     		addi	a0,sp,156
 255:main.c        ****                   addToMessage2(message, &currentPos, lookKey, 1);
 724              		.loc 1 255 23
 725 0258 4AD4     		sw	s2,40(sp)
 256:main.c        **** 
 726              		.loc 1 256 19 is_stmt 1
 727 025a 97000000 		call	addToMessage2
 727      E7800000 
 728              	.LVL81:
 729 0262 C247     		lw	a5,16(sp)
 730              	.L34:
 731              	.LBE29:
 260:main.c        ****                   int totalTime=0, j=1;
 732              		.loc 1 260 17
 260:main.c        ****                   int totalTime=0, j=1;
 733              		.loc 1 260 19 is_stmt 0
 734 0264 3547     		li	a4,13
 735 0266 5289     		mv	s2,s4
 736 0268 E391E7E8 		bne	a5,a4,.L19
 737              	.LVL82:
 260:main.c        ****                   int totalTime=0, j=1;
 738              		.loc 1 260 41 discriminator 1
 739 026c E34F40E7 		bgt	s4,zero,.L19
 740 0270 7010     		addi	a2,sp,44
 741              	.LBB30:
 742              	.LBB31:
 262:main.c        ****                   {
 743              		.loc 1 262 28
 744 0272 8146     		li	a3,0
 745              	.LBE31:
 261:main.c        ****                   for (int i = 0; i < 6; i++)
 746              		.loc 1 261 36
GAS LISTING C:\Users\Duckb\AppData\Local\Temp\ccrX4L3r.s 			page 22


 747 0274 0547     		li	a4,1
 748              	.LBB32:
 264:main.c        ****                       timer.second += (setTime[i] * j);
 749              		.loc 1 264 23
 750 0276 8545     		li	a1,1
 268:main.c        ****                       if(i == 2){
 751              		.loc 1 268 28
 752 0278 0D45     		li	a0,3
 278:main.c        ****                         j = 1;
 753              		.loc 1 278 25
 754 027a 1148     		li	a6,4
 269:main.c        ****                         j = 1;
 755              		.loc 1 269 25
 756 027c 8948     		li	a7,2
 757              	.L40:
 758              	.LVL83:
 264:main.c        ****                       timer.second += (setTime[i] * j);
 759              		.loc 1 264 21 is_stmt 1
 760 027e 83470600 		lbu	a5,0(a2)
 264:main.c        ****                       timer.second += (setTime[i] * j);
 761              		.loc 1 264 23 is_stmt 0
 762 0282 63CBD50A 		bgt	a3,a1,.L35
 265:main.c        ****                       j*=10;
 763              		.loc 1 265 23 is_stmt 1
 265:main.c        ****                       j*=10;
 764              		.loc 1 265 36 is_stmt 0
 765 0286 B387E702 		mul	a5,a5,a4
 766 028a BE94     		add	s1,s1,a5
 767              	.LVL84:
 768 028c 93F4F40F 		andi	s1,s1,0xff
 769              	.LVL85:
 266:main.c        ****                     }
 770              		.loc 1 266 23 is_stmt 1
 771              	.L62:
 283:main.c        **** 
 772              		.loc 1 283 23
 262:main.c        ****                   {
 773              		.loc 1 262 43 is_stmt 0
 774 0290 8506     		addi	a3,a3,1
 775              	.LVL86:
 283:main.c        **** 
 776              		.loc 1 283 24
 777 0292 33073703 		mul	a4,a4,s3
 778              	.LVL87:
 779 0296 1106     		addi	a2,a2,4
 262:main.c        ****                   {
 780              		.loc 1 262 19
 781 0298 E393A6FF 		bne	a3,s10,.L40
 782              	.LBE32:
 287:main.c        **** 
 783              		.loc 1 287 19 is_stmt 1
 784              	.LVL88:
 290:main.c        ****                   addToMessage(message, &currentPos, "SET\n\0", 5);
 785              		.loc 1 290 19
 287:main.c        **** 
 786              		.loc 1 287 69 is_stmt 0
 787 029c 93074006 		li	a5,100
GAS LISTING C:\Users\Duckb\AppData\Local\Temp\ccrX4L3r.s 			page 23


 292:main.c        ****                   currentRecieve = 0;
 788              		.loc 1 292 28
 789 02a0 014B     		li	s6,0
 790              	.LVL89:
 293:main.c        ****                   isSet=1;
 791              		.loc 1 293 34
 792 02a2 814B     		li	s7,0
 793              	.LVL90:
 296:main.c        ****                 }
 794              		.loc 1 296 19
 795 02a4 5289     		mv	s2,s4
 796              	.LVL91:
 294:main.c        ****               
 797              		.loc 1 294 24
 798 02a6 854D     		li	s11,1
 799              	.LVL92:
 287:main.c        **** 
 800              		.loc 1 287 69
 801 02a8 B307F402 		mul	a5,s0,a5
 287:main.c        **** 
 802              		.loc 1 287 44
 803 02ac 33859A03 		mul	a0,s5,s9
 287:main.c        **** 
 804              		.loc 1 287 53
 805 02b0 3E95     		add	a0,a0,a5
 290:main.c        ****                   addToMessage(message, &currentPos, "SET\n\0", 5);
 806              		.loc 1 290 19
 807 02b2 2695     		add	a0,a0,s1
 808 02b4 97000000 		call	rtc_counter_set
 808      E7800000 
 809              	.LVL93:
 291:main.c        ****                   currentX = 0;
 810              		.loc 1 291 19 is_stmt 1
 811 02bc 37060000 		lui	a2,%hi(.LC1)
 812 02c0 9546     		li	a3,5
 813 02c2 13060600 		addi	a2,a2,%lo(.LC1)
 814 02c6 4C10     		addi	a1,sp,36
 815 02c8 6809     		addi	a0,sp,156
 816 02ca 97000000 		call	addToMessage
 816      E7800000 
 817              	.LVL94:
 292:main.c        ****                   currentRecieve = 0;
 818              		.loc 1 292 19
 293:main.c        ****                   isSet=1;
 819              		.loc 1 293 19
 294:main.c        ****               
 820              		.loc 1 294 19
 296:main.c        ****                 }
 821              		.loc 1 296 19
 822 02d2 0145     		li	a0,0
 823 02d4 97000000 		call	LCD_Clear
 823      E7800000 
 824              	.LVL95:
 825 02dc 39B5     		j	.L19
 826              	.LVL96:
 827              	.L30:
 828              	.LBE30:
GAS LISTING C:\Users\Duckb\AppData\Local\Temp\ccrX4L3r.s 			page 24


 829              	.LBB34:
 830              	.LBB27:
 210:main.c        ****                   x+=8;
 831              		.loc 1 210 17
 210:main.c        ****                   x+=8;
 832              		.loc 1 210 19 is_stmt 0
 833 02de 6304A801 		beq	a6,s10,.L27
 210:main.c        ****                   x+=8;
 834              		.loc 1 210 27 discriminator 1
 835 02e2 6313E801 		bne	a6,t5,.L28
 836              	.L27:
 211:main.c        ****                 }
 837              		.loc 1 211 19 is_stmt 1
 211:main.c        ****                 }
 838              		.loc 1 211 20 is_stmt 0
 839 02e6 210A     		addi	s4,s4,8
 840              	.LVL97:
 841              	.L28:
 213:main.c        ****                   LCD_ShowChar((x+=8), y, savedMessage[i][j], OPAQUE, WHITE);
 842              		.loc 1 213 17 is_stmt 1
 213:main.c        ****                   LCD_ShowChar((x+=8), y, savedMessage[i][j], OPAQUE, WHITE);
 843              		.loc 1 213 19 is_stmt 0
 844 02e8 630B3603 		beq	a2,s3,.L29
 214:main.c        ****                 j+=1;
 845              		.loc 1 214 34
 846 02ec 210A     		addi	s4,s4,8
 847              	.LVL98:
 214:main.c        ****                 j+=1;
 848              		.loc 1 214 19
 849 02ee 7687     		mv	a4,t4
 850 02f0 C685     		mv	a1,a7
 851 02f2 8146     		li	a3,0
 852 02f4 1376F60F 		andi	a2,a2,0xff
 853 02f8 5285     		mv	a0,s4
 854 02fa 1ACE     		sw	t1,28(sp)
 855 02fc 72CC     		sw	t3,24(sp)
 856 02fe 3ECA     		sw	a5,20(sp)
 857 0300 42C8     		sw	a6,16(sp)
 214:main.c        ****                 j+=1;
 858              		.loc 1 214 19 is_stmt 1
 859              	.LVL99:
 860 0302 46C4     		sw	a7,8(sp)
 861 0304 97000000 		call	LCD_ShowChar
 861      E7800000 
 862              	.LVL100:
 863 030c 7243     		lw	t1,28(sp)
 864 030e 624E     		lw	t3,24(sp)
 865 0310 D247     		lw	a5,20(sp)
 866 0312 4248     		lw	a6,16(sp)
 867 0314 A248     		lw	a7,8(sp)
 868 0316 4167     		li	a4,65536
 869 0318 314F     		li	t5,12
 870 031a 930EF7FF 		addi	t4,a4,-1
 871              	.LVL101:
 872              	.L29:
 215:main.c        ****               }
 873              		.loc 1 215 17
GAS LISTING C:\Users\Duckb\AppData\Local\Temp\ccrX4L3r.s 			page 25


 215:main.c        ****               }
 874              		.loc 1 215 18 is_stmt 0
 875 031e 0508     		addi	a6,a6,1
 876              	.LVL102:
 877 0320 1103     		addi	t1,t1,4
 878              	.LVL103:
 879              	.L31:
 208:main.c        ****               {
 880              		.loc 1 208 36
 881 0322 03260300 		lw	a2,0(t1)
 208:main.c        ****               {
 882              		.loc 1 208 20
 883 0326 45FE     		bne	a2,zero,.L30
 217:main.c        ****               y-=20;
 884              		.loc 1 217 15 is_stmt 1 discriminator 2
 885              	.LVL104:
 218:main.c        **** 
 886              		.loc 1 218 15 discriminator 2
 218:main.c        **** 
 887              		.loc 1 218 16 is_stmt 0 discriminator 2
 888 0328 B118     		addi	a7,a7,-20
 889              	.LVL105:
 890 032a 130E0E04 		addi	t3,t3,64
 206:main.c        ****             {
 891              		.loc 1 206 13 discriminator 2
 892 032e E39BF8E4 		bne	a7,a5,.L24
 893              	.LBE27:
 223:main.c        ****             
 894              		.loc 1 223 26
 895 0332 8547     		li	a5,1
 896 0334 3EC4     		sw	a5,8(sp)
 897 0336 65BD     		j	.L22
 898              	.LVL106:
 899              	.L35:
 900              	.LBE34:
 901              	.LBB35:
 902              	.LBB33:
 268:main.c        ****                       if(i == 2){
 903              		.loc 1 268 26 is_stmt 1
 268:main.c        ****                       if(i == 2){
 904              		.loc 1 268 28 is_stmt 0
 905 0338 634BD500 		bgt	a3,a0,.L37
 269:main.c        ****                         j = 1;
 906              		.loc 1 269 23 is_stmt 1
 269:main.c        ****                         j = 1;
 907              		.loc 1 269 25 is_stmt 0
 908 033c 63931601 		bne	a3,a7,.L38
 270:main.c        ****                       }
 909              		.loc 1 270 27
 910 0340 0547     		li	a4,1
 911              	.LVL107:
 912              	.L38:
 273:main.c        ****                       j*=10;
 913              		.loc 1 273 23 is_stmt 1
 273:main.c        ****                       j*=10;
 914              		.loc 1 273 36 is_stmt 0
 915 0342 B387E702 		mul	a5,a5,a4
GAS LISTING C:\Users\Duckb\AppData\Local\Temp\ccrX4L3r.s 			page 26


 916 0346 3E94     		add	s0,s0,a5
 917              	.LVL108:
 918 0348 1374F40F 		andi	s0,s0,0xff
 919              	.LVL109:
 274:main.c        **** 
 920              		.loc 1 274 23 is_stmt 1
 921 034c 91B7     		j	.L62
 922              	.L37:
 278:main.c        ****                         j = 1;
 923              		.loc 1 278 23
 278:main.c        ****                         j = 1;
 924              		.loc 1 278 25 is_stmt 0
 925 034e 63930601 		bne	a3,a6,.L39
 279:main.c        ****                       }
 926              		.loc 1 279 27
 927 0352 0547     		li	a4,1
 928              	.LVL110:
 929              	.L39:
 282:main.c        ****                       j*=10;
 930              		.loc 1 282 23 is_stmt 1
 282:main.c        ****                       j*=10;
 931              		.loc 1 282 34 is_stmt 0
 932 0354 B387E702 		mul	a5,a5,a4
 933 0358 BE9A     		add	s5,s5,a5
 934              	.LVL111:
 935 035a 93FAFA0F 		andi	s5,s5,0xff
 936 035e 0DBF     		j	.L62
 937              	.LVL112:
 938              	.L33:
 939              	.LBE33:
 940              	.LBE35:
 941              		.loc 1 304 13 is_stmt 1
 942              		.loc 1 304 26 is_stmt 0
 943 0360 97000000 		call	rtc_counter_get
 943      E7800000 
 944              	.LVL113:
 945              		.loc 1 304 44
 946 0368 335A9503 		divu	s4,a0,s9
 305:main.c        ****             timer.minute = (rtc_counter_get() / 100) - (timer.hour * 100);
 947              		.loc 1 305 47
 948 036c 13044006 		li	s0,100
 949              	.LVL114:
 950              		.loc 1 305 29
 951 0370 97000000 		call	rtc_counter_get
 951      E7800000 
 952              	.LVL115:
 953              		.loc 1 305 54
 954 0378 93044006 		li	s1,100
 955              	.LVL116:
 956              		.loc 1 305 47
 957 037c 33548502 		divu	s0,a0,s0
 304:main.c        ****             timer.minute = (rtc_counter_get() / 100) - (timer.hour * 100);
 958              		.loc 1 304 24
 959 0380 937AFA0F 		andi	s5,s4,0xff
 960              	.LVL117:
 961              		.loc 1 305 13 is_stmt 1
 962              		.loc 1 305 54 is_stmt 0
GAS LISTING C:\Users\Duckb\AppData\Local\Temp\ccrX4L3r.s 			page 27


 963 0384 33859A02 		mul	a0,s5,s1
 964 0388 098C     		sub	s0,s0,a0
 965 038a 1374F40F 		andi	s0,s0,0xff
 966              	.LVL118:
 306:main.c        ****             timer.second = rtc_counter_get() - (timer.hour * 10000) - (timer.minute * 100);
 967              		.loc 1 306 13 is_stmt 1
 968              		.loc 1 306 69 is_stmt 0
 969 038e B3049402 		mul	s1,s0,s1
 970              		.loc 1 306 28
 971 0392 97000000 		call	rtc_counter_get
 971      E7800000 
 972              	.LVL119:
 973              		.loc 1 306 46
 974 039a 93974A00 		slli	a5,s5,4
 975 039e 1D8D     		sub	a0,a0,a5
 976              		.loc 1 306 69
 977 03a0 B3049540 		sub	s1,a0,s1
 307:main.c        **** 
 308:main.c        ****             if((key=keyscan()) >= 0){
 978              		.loc 1 308 21
 979 03a4 97000000 		call	keyscan
 979      E7800000 
 980              	.LVL120:
 981              		.loc 1 308 15
 982 03ac 2AC8     		sw	a0,16(sp)
 306:main.c        ****             timer.second = rtc_counter_get() - (timer.hour * 10000) - (timer.minute * 100);
 983              		.loc 1 306 69
 984 03ae 93F4F40F 		andi	s1,s1,0xff
 985              	.LVL121:
 986              		.loc 1 308 13 is_stmt 1
 987              		.loc 1 308 15 is_stmt 0
 988 03b2 634A050E 		blt	a0,zero,.L41
 989              	.LBB36:
 309:main.c        **** 
 310:main.c        ****               LCD_Clear(BLACK);
 990              		.loc 1 310 15 is_stmt 1
 991 03b6 0145     		li	a0,0
 992              	.LVL122:
 993 03b8 97000000 		call	LCD_Clear
 993      E7800000 
 994              	.LVL123:
 311:main.c        ****               
 312:main.c        **** 
 313:main.c        ****               int temp=0;
 995              		.loc 1 313 15
 314:main.c        ****               if(savedMessage[0] != NULL)
 315:main.c        ****                 addToMessage2(savedMessage[1], &temp, savedMessage[0], 16);
 996              		.loc 1 315 17 is_stmt 0
 997 03c0 C146     		li	a3,16
 998 03c2 9011     		addi	a2,sp,224
 999 03c4 2C10     		addi	a1,sp,40
 1000 03c6 0812     		addi	a0,sp,288
 313:main.c        ****               if(savedMessage[0] != NULL)
 1001              		.loc 1 313 19
 1002 03c8 02D4     		sw	zero,40(sp)
 314:main.c        ****               if(savedMessage[0] != NULL)
 1003              		.loc 1 314 15 is_stmt 1
GAS LISTING C:\Users\Duckb\AppData\Local\Temp\ccrX4L3r.s 			page 28


 1004              		.loc 1 315 17
 1005 03ca 97000000 		call	addToMessage2
 1005      E7800000 
 1006              	.LVL124:
 316:main.c        ****               temp=0;
 1007              		.loc 1 316 15
 317:main.c        ****               addToMessage2(savedMessage[0], &temp, message, 16);              
 1008              		.loc 1 317 15 is_stmt 0
 1009 03d2 C146     		li	a3,16
 1010 03d4 7009     		addi	a2,sp,156
 1011 03d6 2C10     		addi	a1,sp,40
 1012 03d8 8811     		addi	a0,sp,224
 316:main.c        ****               temp=0;
 1013              		.loc 1 316 19
 1014 03da 02D4     		sw	zero,40(sp)
 1015              		.loc 1 317 15 is_stmt 1
 1016 03dc 97000000 		call	addToMessage2
 1016      E7800000 
 1017              	.LVL125:
 318:main.c        ****       
 319:main.c        ****               
 320:main.c        ****               
 321:main.c        ****               currentMessage = 0;
 1018              		.loc 1 321 15
 322:main.c        ****               currentPos = 0;
 1019              		.loc 1 322 15
 323:main.c        ****               currentX = 0;       
 324:main.c        ****               cTest=0;       
 325:main.c        ****               currentRecieve = 0;
 326:main.c        **** 
 327:main.c        ****               currentAnalysis=0;
 328:main.c        ****               startAnalysis=1;
 329:main.c        **** 
 330:main.c        ****               addToMessage2Dig(message, &currentPos, timer.hour);
 1020              		.loc 1 330 15 is_stmt 0
 1021 03e4 5686     		mv	a2,s5
 1022 03e6 4C10     		addi	a1,sp,36
 1023 03e8 6809     		addi	a0,sp,156
 322:main.c        ****               currentPos = 0;
 1024              		.loc 1 322 26
 1025 03ea 02D2     		sw	zero,36(sp)
 323:main.c        ****               currentX = 0;       
 1026              		.loc 1 323 15 is_stmt 1
 1027              	.LVL126:
 324:main.c        ****               currentRecieve = 0;
 1028              		.loc 1 324 15
 325:main.c        **** 
 1029              		.loc 1 325 15
 327:main.c        ****               startAnalysis=1;
 1030              		.loc 1 327 15
 328:main.c        **** 
 1031              		.loc 1 328 15
 1032              		.loc 1 330 15
 1033 03ec 97000000 		call	addToMessage2Dig
 1033      E7800000 
 1034              	.LVL127:
 331:main.c        ****               addToMessage2Dig(message, &currentPos, timer.minute);
GAS LISTING C:\Users\Duckb\AppData\Local\Temp\ccrX4L3r.s 			page 29


 1035              		.loc 1 331 15
 1036 03f4 2286     		mv	a2,s0
 1037 03f6 4C10     		addi	a1,sp,36
 1038 03f8 6809     		addi	a0,sp,156
 1039 03fa 97000000 		call	addToMessage2Dig
 1039      E7800000 
 1040              	.LVL128:
 332:main.c        ****               addToMessage2Dig(message, &currentPos, timer.second);
 1041              		.loc 1 332 15
 1042 0402 2686     		mv	a2,s1
 1043 0404 4C10     		addi	a1,sp,36
 1044 0406 6809     		addi	a0,sp,156
 1045 0408 97000000 		call	addToMessage2Dig
 1045      E7800000 
 1046              	.LVL129:
 333:main.c        **** 
 334:main.c        ****               switch(lookUpTbl[key]){
 1047              		.loc 1 334 15
 1048              		.loc 1 334 31 is_stmt 0
 1049 0410 C247     		lw	a5,16(sp)
 1050 0412 9812     		addi	a4,sp,352
 1051 0414 8A07     		slli	a5,a5,2
 1052 0416 BA97     		add	a5,a4,a5
 1053 0418 83A7C7EF 		lw	a5,-260(a5)
 1054              		.loc 1 334 15
 1055 041c 2D47     		li	a4,11
 1056 041e 6385E70E 		beq	a5,a4,.L42
 1057 0422 3147     		li	a4,12
 1058 0424 638EE70E 		beq	a5,a4,.L43
 1059 0428 63993707 		bne	a5,s3,.L44
 1060              	.LBB37:
 335:main.c        ****                 case 10:
 336:main.c        **** 
 337:main.c        ****                   // int result[6] = {0};
 338:main.c        ****                   result[0] = 'I';
 1061              		.loc 1 338 19 is_stmt 1
 1062              		.loc 1 338 29 is_stmt 0
 1063 042c 93079004 		li	a5,73
 339:main.c        ****                   result[1] = 'D';
 340:main.c        **** 
 341:main.c        ****                   result[2] = '+'; //temp will most likely be positive
 342:main.c        ****                   if(((0x680-tmpr)/5)+25 < 0){
 1064              		.loc 1 342 29
 1065 0430 3247     		lw	a4,12(sp)
 338:main.c        ****                   result[1] = 'D';
 1066              		.loc 1 338 29
 1067 0432 BEC2     		sw	a5,68(sp)
 339:main.c        ****                   result[1] = 'D';
 1068              		.loc 1 339 19 is_stmt 1
 339:main.c        ****                   result[1] = 'D';
 1069              		.loc 1 339 29 is_stmt 0
 1070 0434 93074004 		li	a5,68
 1071 0438 BEC4     		sw	a5,72(sp)
 341:main.c        ****                   if(((0x680-tmpr)/5)+25 < 0){
 1072              		.loc 1 341 19 is_stmt 1
 1073              		.loc 1 342 19
 1074              		.loc 1 342 29 is_stmt 0
GAS LISTING C:\Users\Duckb\AppData\Local\Temp\ccrX4L3r.s 			page 30


 1075 043a 93070068 		li	a5,1664
 1076 043e 998F     		sub	a5,a5,a4
 1077              		.loc 1 342 21
 1078 0440 1307F0F7 		li	a4,-129
 1079 0444 63CFE70A 		blt	a5,a4,.L45
 341:main.c        ****                   if(((0x680-tmpr)/5)+25 < 0){
 1080              		.loc 1 341 29
 1081 0448 1307B002 		li	a4,43
 1082              	.L63:
 343:main.c        ****                     result[2] = '-';
 1083              		.loc 1 343 31
 1084 044c BAC6     		sw	a4,76(sp)
 344:main.c        ****                   }
 345:main.c        **** 
 346:main.c        ****             
 347:main.c        ****                   result[3] = '0';
 1085              		.loc 1 347 19 is_stmt 1
 1086              		.loc 1 347 29 is_stmt 0
 1087 044e 13070003 		li	a4,48
 1088 0452 BAC8     		sw	a4,80(sp)
 348:main.c        **** 
 349:main.c        ****                   int temp = ((0x680-tmpr)/5)+25;
 1089              		.loc 1 349 19 is_stmt 1
 1090              		.loc 1 349 43 is_stmt 0
 1091 0454 1547     		li	a4,5
 1092 0456 B3C7E702 		div	a5,a5,a4
 350:main.c        **** 
 351:main.c        ****                   result[4] = ((temp / 10) % 10) + 0x30;
 352:main.c        ****                   result[5] = (temp % 10) + 0x30;
 353:main.c        ****                    
 354:main.c        ****                   addToMessage2(message, &currentPos, result, 6);
 1093              		.loc 1 354 19
 1094 045a 9946     		li	a3,6
 1095 045c D000     		addi	a2,sp,68
 1096 045e 4C10     		addi	a1,sp,36
 1097 0460 6809     		addi	a0,sp,156
 349:main.c        **** 
 1098              		.loc 1 349 23
 1099 0462 E507     		addi	a5,a5,25
 1100              	.LVL130:
 351:main.c        ****                   result[5] = (temp % 10) + 0x30;
 1101              		.loc 1 351 19 is_stmt 1
 351:main.c        ****                   result[5] = (temp % 10) + 0x30;
 1102              		.loc 1 351 38 is_stmt 0
 1103 0464 33C73703 		div	a4,a5,s3
 352:main.c        ****                    
 1104              		.loc 1 352 37
 1105 0468 B3E73703 		rem	a5,a5,s3
 1106              	.LVL131:
 351:main.c        ****                   result[5] = (temp % 10) + 0x30;
 1107              		.loc 1 351 44
 1108 046c 33673703 		rem	a4,a4,s3
 352:main.c        ****                    
 1109              		.loc 1 352 43
 1110 0470 93870703 		addi	a5,a5,48
 352:main.c        ****                    
 1111              		.loc 1 352 29
GAS LISTING C:\Users\Duckb\AppData\Local\Temp\ccrX4L3r.s 			page 31


 1112 0474 BECC     		sw	a5,88(sp)
 351:main.c        ****                   result[5] = (temp % 10) + 0x30;
 1113              		.loc 1 351 50
 1114 0476 13070703 		addi	a4,a4,48
 351:main.c        ****                   result[5] = (temp % 10) + 0x30;
 1115              		.loc 1 351 29
 1116 047a BACA     		sw	a4,84(sp)
 352:main.c        ****                    
 1117              		.loc 1 352 19 is_stmt 1
 1118              		.loc 1 354 19
 1119 047c 97000000 		call	addToMessage2
 1119      E7800000 
 1120              	.LVL132:
 1121              	.L65:
 355:main.c        ****                   addToMessage(message, &currentPos, "OK!", 3);
 1122              		.loc 1 355 19
 1123 0484 37060000 		lui	a2,%hi(.LC2)
 1124 0488 8D46     		li	a3,3
 1125 048a 13060600 		addi	a2,a2,%lo(.LC2)
 1126              	.L64:
 356:main.c        ****                   
 357:main.c        ****                 break;
 358:main.c        ****                 case 11:
 359:main.c        ****                   addToMessage(message, &currentPos, "ID-000", 6);
 360:main.c        ****                   addToMessage(message, &currentPos, "OK!", 3);
 361:main.c        ****                 break;
 362:main.c        ****                 case 12:
 363:main.c        ****                   addToMessage(message, &currentPos, "ID*000", 6);
 364:main.c        ****                   
 365:main.c        ****                   addToMessage(message, &currentPos, "ERR", 3);
 1127              		.loc 1 365 19 is_stmt 0
 1128 048e 4C10     		addi	a1,sp,36
 1129 0490 6809     		addi	a0,sp,156
 1130 0492 97000000 		call	addToMessage
 1130      E7800000 
 1131              	.LVL133:
 366:main.c        ****                 break;
 1132              		.loc 1 366 17 is_stmt 1
 1133              	.L44:
 1134              	.LBE37:
 367:main.c        ****               }
 368:main.c        **** 
 369:main.c        **** 
 370:main.c        ****               message[15] = '\0';
 1135              		.loc 1 370 15
 371:main.c        ****               message[16] = '\n';
 1136              		.loc 1 371 27 is_stmt 0
 1137 049a A947     		li	a5,10
 370:main.c        ****               message[16] = '\n';
 1138              		.loc 1 370 27
 1139 049c 82CD     		sw	zero,216(sp)
 1140              		.loc 1 371 15 is_stmt 1
 1141              		.loc 1 371 27 is_stmt 0
 1142 049e BECF     		sw	a5,220(sp)
 323:main.c        ****               cTest=0;       
 1143              		.loc 1 323 24
 1144 04a0 014B     		li	s6,0
GAS LISTING C:\Users\Duckb\AppData\Local\Temp\ccrX4L3r.s 			page 32


 325:main.c        **** 
 1145              		.loc 1 325 30
 1146 04a2 814B     		li	s7,0
 321:main.c        ****               currentPos = 0;
 1147              		.loc 1 321 30
 1148 04a4 014C     		li	s8,0
 1149              	.LVL134:
 1150              	.L41:
 1151              	.LBE36:
 372:main.c        **** 
 373:main.c        **** 
 374:main.c        ****               
 375:main.c        ****               
 376:main.c        **** 
 377:main.c        ****             }
 378:main.c        **** 
 379:main.c        ****          
 380:main.c        ****             
 381:main.c        ****             
 382:main.c        **** 
 383:main.c        ****             
 384:main.c        ****             if(usart_flag_get(USART0, USART_FLAG_TBE) && message[currentMessage] != '\n'){
 1152              		.loc 1 384 13 is_stmt 1
 1153              		.loc 1 384 16 is_stmt 0
 1154 04a6 374A0140 		li	s4,1073823744
 1155 04aa 9D45     		li	a1,7
 1156 04ac 13050A80 		addi	a0,s4,-2048
 1157 04b0 97000000 		call	usart_flag_get
 1157      E7800000 
 1158              	.LVL135:
 1159              		.loc 1 384 15
 1160 04b8 05C1     		beq	a0,zero,.L47
 1161              		.loc 1 384 65 discriminator 1
 1162 04ba 93172C00 		slli	a5,s8,2
 1163 04be 9812     		addi	a4,sp,352
 1164 04c0 BA97     		add	a5,a4,a5
 1165 04c2 83A5C7F3 		lw	a1,-196(a5)
 1166              		.loc 1 384 55 discriminator 1
 1167 04c6 63893501 		beq	a1,s3,.L47
 385:main.c        ****               usart_data_transmit(USART0, message[currentMessage++]);
 1168              		.loc 1 385 15 is_stmt 1
 1169 04ca 13050A80 		addi	a0,s4,-2048
 1170              		.loc 1 385 65 is_stmt 0
 1171 04ce 050C     		addi	s8,s8,1
 1172              	.LVL136:
 1173              		.loc 1 385 15
 1174 04d0 97000000 		call	usart_data_transmit
 1174      E7800000 
 1175              	.LVL137:
 1176              	.L47:
 386:main.c        ****             }
 387:main.c        ****           
 388:main.c        ****             
 389:main.c        **** 
 390:main.c        **** 
 391:main.c        ****                
 392:main.c        **** 
GAS LISTING C:\Users\Duckb\AppData\Local\Temp\ccrX4L3r.s 			page 33


 393:main.c        ****             
 394:main.c        ****             updateTimer(timer);           
 1177              		.loc 1 394 13 is_stmt 1
 1178 04d8 23005103 		sb	s5,32(sp)
 1179 04dc A3008102 		sb	s0,33(sp)
 1180 04e0 23019102 		sb	s1,34(sp)
 1181 04e4 0255     		lw	a0,32(sp)
 1182 04e6 97000000 		call	updateTimer
 1182      E7800000 
 1183              	.LVL138:
 395:main.c        ****             adc_software_trigger_enable(ADC0, //Trigger another ADC conversion!
 1184              		.loc 1 395 13
 1185 04ee 37250140 		li	a0,1073815552
 1186 04f2 8545     		li	a1,1
 1187 04f4 13050540 		addi	a0,a0,1024
 1188 04f8 97000000 		call	adc_software_trigger_enable
 1188      E7800000 
 1189              	.LVL139:
 1190 0500 EDB6     		j	.L19
 1191              	.LVL140:
 1192              	.L45:
 1193              	.LBB39:
 1194              	.LBB38:
 343:main.c        ****                   }
 1195              		.loc 1 343 21
 343:main.c        ****                   }
 1196              		.loc 1 343 31 is_stmt 0
 1197 0502 1307D002 		li	a4,45
 1198 0506 99B7     		j	.L63
 1199              	.L42:
 359:main.c        ****                   addToMessage(message, &currentPos, "OK!", 3);
 1200              		.loc 1 359 19 is_stmt 1
 1201 0508 37060000 		lui	a2,%hi(.LC3)
 1202 050c 9946     		li	a3,6
 1203 050e 13060600 		addi	a2,a2,%lo(.LC3)
 1204 0512 4C10     		addi	a1,sp,36
 1205 0514 6809     		addi	a0,sp,156
 1206 0516 97000000 		call	addToMessage
 1206      E7800000 
 1207              	.LVL141:
 360:main.c        ****                 break;
 1208              		.loc 1 360 19
 1209 051e 9DB7     		j	.L65
 1210              	.L43:
 363:main.c        ****                   
 1211              		.loc 1 363 19
 1212 0520 37060000 		lui	a2,%hi(.LC4)
 1213 0524 9946     		li	a3,6
 1214 0526 13060600 		addi	a2,a2,%lo(.LC4)
 1215 052a 4C10     		addi	a1,sp,36
 1216 052c 6809     		addi	a0,sp,156
 1217 052e 97000000 		call	addToMessage
 1217      E7800000 
 1218              	.LVL142:
 365:main.c        ****                 break;
 1219              		.loc 1 365 19
 1220 0536 37060000 		lui	a2,%hi(.LC5)
GAS LISTING C:\Users\Duckb\AppData\Local\Temp\ccrX4L3r.s 			page 34


 1221 053a 8D46     		li	a3,3
 1222 053c 13060600 		addi	a2,a2,%lo(.LC5)
 1223 0540 B9B7     		j	.L64
 1224              	.LBE38:
 1225              	.LBE39:
 1226              		.cfi_endproc
 1227              	.LFE8:
 1229              		.section	.rodata
 1230              		.align	2
 1231              		.set	.LANCHOR0,. + 0
 1232              	.LC0:
 1233 0000 01000000 		.word	1
 1234 0004 04000000 		.word	4
 1235 0008 07000000 		.word	7
 1236 000c 0E000000 		.word	14
 1237 0010 02000000 		.word	2
 1238 0014 05000000 		.word	5
 1239 0018 08000000 		.word	8
 1240 001c 00000000 		.word	0
 1241 0020 03000000 		.word	3
 1242 0024 06000000 		.word	6
 1243 0028 09000000 		.word	9
 1244 002c 0F000000 		.word	15
 1245 0030 0A000000 		.word	10
 1246 0034 0B000000 		.word	11
 1247 0038 0C000000 		.word	12
 1248 003c 0D000000 		.word	13
 1249              	.LC1:
 1250 0040 5345540A 		.string	"SET\n"
 1250      00
 1251 0045 00       		.string	""
 1252              		.section	.rodata.main.str1.4,"aMS",@progbits,1
 1253              		.align	2
 1254              	.LC2:
 1255 0000 4F4B2100 		.string	"OK!"
 1256              	.LC3:
 1257 0004 49442D30 		.string	"ID-000"
 1257      303000
 1258 000b 00       		.zero	1
 1259              	.LC4:
 1260 000c 49442A30 		.string	"ID*000"
 1260      303000
 1261 0013 00       		.zero	1
 1262              	.LC5:
 1263 0014 45525200 		.string	"ERR"
 1264              		.text
 1265              	.Letext0:
 1266              		.file 2 "c:\\programming\\assembler\\toolchain-gd32v-v202-win\\toolchain-gd32v-v202-win\\compiler\
 1267              		.file 3 "c:\\programming\\assembler\\toolchain-gd32v-v202-win\\toolchain-gd32v-v202-win\\compiler\
 1268              		.file 4 "./../../firmware/GD32VF103_standard_peripheral/gd32vf103.h"
 1269              		.file 5 "./../../firmware/GD32VF103_standard_peripheral/Include/gd32vf103_rcu.h"
 1270              		.file 6 "./../../firmware/GD32VF103_standard_peripheral/Include/gd32vf103_usart.h"
 1271              		.file 7 "c:\\programming\\assembler\\toolchain-gd32v-v202-win\\toolchain-gd32v-v202-win\\compiler\
 1272              		.file 8 "c:\\programming\\assembler\\toolchain-gd32v-v202-win\\toolchain-gd32v-v202-win\\compiler\
 1273              		.file 9 "c:\\programming\\assembler\\toolchain-gd32v-v202-win\\toolchain-gd32v-v202-win\\compiler\
 1274              		.file 10 "c:\\programming\\assembler\\toolchain-gd32v-v202-win\\toolchain-gd32v-v202-win\\compiler
 1275              		.file 11 "./../../firmware/GD32VF103_standard_peripheral/system_gd32vf103.h"
GAS LISTING C:\Users\Duckb\AppData\Local\Temp\ccrX4L3r.s 			page 35


 1276              		.file 12 "c:\\programming\\assembler\\toolchain-gd32v-v202-win\\toolchain-gd32v-v202-win\\compiler
 1277              		.file 13 "lcd.h"
 1278              		.file 14 "./../../firmware/GD32VF103_standard_peripheral/Include/gd32vf103_rtc.h"
 1279              		.file 15 "<built-in>"
 1280              		.file 16 "drivers.h"
 1281              		.file 17 "adc.h"
 1282              		.file 18 "usart.h"
 1283              		.file 19 "./../../firmware/GD32VF103_standard_peripheral/Include/gd32vf103_eclic.h"
 1284              		.file 20 "./../../firmware/GD32VF103_standard_peripheral/Include/gd32vf103_adc.h"
 1285              		.file 21 "./../../firmware/GD32VF103_standard_peripheral/Include/gd32vf103_pmu.h"
 1286              		.file 22 "./../../firmware/GD32VF103_standard_peripheral/Include/gd32vf103_bkp.h"
GAS LISTING C:\Users\Duckb\AppData\Local\Temp\ccrX4L3r.s 			page 36

