GAS LISTING C:\Users\Duckb\AppData\Local\Temp\ccnb9RvZ.s 			page 1


   1              		.file	"main.c"
   2              		.option nopic
   3              		.attribute arch, "rv32i2p0_m2p0_a2p0_c2p0"
   4              		.attribute unaligned_access, 0
   5              		.attribute stack_align, 16
   6              		.text
   7              	.Ltext0:
   8              		.cfi_sections	.debug_frame
   9              		.section	.text.initPoint,"ax",@progbits
  10              		.align	1
  11              		.globl	initPoint
  13              	initPoint:
  14              	.LFB2:
  15              		.file 1 "main.c"
   1:main.c        **** #include "gd32vf103.h"
   2:main.c        **** #include "drivers.h"
   3:main.c        **** #include "lcd.h"
   4:main.c        **** #include "dac.h"
   5:main.c        **** #include "pwm.h"
   6:main.c        **** #include "adc.h"
   7:main.c        **** #include "eclicw.h"
   8:main.c        **** 
   9:main.c        **** typedef struct point{
  10:main.c        ****   int x, y;
  11:main.c        **** }Point;
  12:main.c        **** 
  13:main.c        **** void initPoint(int x, int y, Point *p){
  16              		.loc 1 13 39
  17              		.cfi_startproc
  18              	.LVL0:
  14:main.c        ****   p->x = x;
  19              		.loc 1 14 3
  20              		.loc 1 14 8 is_stmt 0
  21 0000 08C2     		sw	a0,0(a2)
  15:main.c        ****   p->y = y;
  22              		.loc 1 15 3 is_stmt 1
  23              		.loc 1 15 8 is_stmt 0
  24 0002 4CC2     		sw	a1,4(a2)
  16:main.c        **** }
  25              		.loc 1 16 1
  26 0004 8280     		ret
  27              		.cfi_endproc
  28              	.LFE2:
  30              		.section	.text.destroyPoint,"ax",@progbits
  31              		.align	1
  32              		.globl	destroyPoint
  34              	destroyPoint:
  35              	.LFB3:
  17:main.c        **** 
  18:main.c        **** void destroyPoint(Point *p){
  36              		.loc 1 18 28 is_stmt 1
  37              		.cfi_startproc
  38              	.LVL1:
  19:main.c        ****   free(p);
  39              		.loc 1 19 3
  40 0000 17030000 		tail	free
  40      67000300 
GAS LISTING C:\Users\Duckb\AppData\Local\Temp\ccnb9RvZ.s 			page 2


  41              	.LVL2:
  42              		.cfi_endproc
  43              	.LFE3:
  45              		.section	.text.drawPoint,"ax",@progbits
  46              		.align	1
  47              		.globl	drawPoint
  49              	drawPoint:
  50              	.LFB4:
  20:main.c        **** }
  21:main.c        **** 
  22:main.c        **** void drawPoint(Point *p){
  51              		.loc 1 22 25
  52              		.cfi_startproc
  53              	.LVL3:
  23:main.c        ****   LCD_DrawPoint(p->x, p->y, WHITE);
  54              		.loc 1 23 3
  55 0000 4C41     		lw	a1,4(a0)
  56 0002 0841     		lw	a0,0(a0)
  57              	.LVL4:
  58 0004 4166     		li	a2,65536
  59 0006 7D16     		addi	a2,a2,-1
  60 0008 17030000 		tail	LCD_DrawPoint
  60      67000300 
  61              	.LVL5:
  62              		.cfi_endproc
  63              	.LFE4:
  65              		.section	.text.movePoint,"ax",@progbits
  66              		.align	1
  67              		.globl	movePoint
  69              	movePoint:
  70              	.LFB5:
  24:main.c        **** }
  25:main.c        **** 
  26:main.c        **** void movePoint(Point *p, int *amountOfPoints){
  71              		.loc 1 26 46
  72              		.cfi_startproc
  73              	.LVL6:
  27:main.c        ****   LCD_DrawPoint(p->x, p->y, BLACK);
  74              		.loc 1 27 3
  26:main.c        ****   LCD_DrawPoint(p->x, p->y, BLACK);
  75              		.loc 1 26 46 is_stmt 0
  76 0000 4111     		addi	sp,sp,-16
  77              	.LCFI0:
  78              		.cfi_def_cfa_offset 16
  79 0002 22C4     		sw	s0,8(sp)
  80              		.loc 1 27 3
  81 0004 4C41     		lw	a1,4(a0)
  82              	.LVL7:
  83              		.cfi_offset 8, -8
  26:main.c        ****   LCD_DrawPoint(p->x, p->y, BLACK);
  84              		.loc 1 26 46
  85 0006 2A84     		mv	s0,a0
  86              		.loc 1 27 3
  87 0008 0841     		lw	a0,0(a0)
  88              	.LVL8:
  89 000a 0146     		li	a2,0
  26:main.c        ****   LCD_DrawPoint(p->x, p->y, BLACK);
GAS LISTING C:\Users\Duckb\AppData\Local\Temp\ccnb9RvZ.s 			page 3


  90              		.loc 1 26 46
  91 000c 06C6     		sw	ra,12(sp)
  92              		.cfi_offset 1, -4
  93              		.loc 1 27 3
  94 000e 97000000 		call	LCD_DrawPoint
  94      E7800000 
  95              	.LVL9:
  28:main.c        **** 
  29:main.c        ****   p->x++;
  96              		.loc 1 29 3 is_stmt 1
  97              		.loc 1 29 7 is_stmt 0
  98 0016 1C40     		lw	a5,0(s0)
  30:main.c        **** 
  31:main.c        ****   drawPoint(p);
  99              		.loc 1 31 3
 100 0018 2285     		mv	a0,s0
  32:main.c        **** 
  33:main.c        **** }
 101              		.loc 1 33 1
 102 001a B240     		lw	ra,12(sp)
 103              		.cfi_restore 1
  29:main.c        **** 
 104              		.loc 1 29 7
 105 001c 8507     		addi	a5,a5,1
 106 001e 1CC0     		sw	a5,0(s0)
  31:main.c        **** 
 107              		.loc 1 31 3 is_stmt 1
 108              		.loc 1 33 1 is_stmt 0
 109 0020 2244     		lw	s0,8(sp)
 110              		.cfi_restore 8
 111              	.LVL10:
 112 0022 4101     		addi	sp,sp,16
 113              	.LCFI1:
 114              		.cfi_def_cfa_offset 0
  31:main.c        **** 
 115              		.loc 1 31 3
 116 0024 17030000 		tail	drawPoint
 116      67000300 
 117              	.LVL11:
 118              		.cfi_endproc
 119              	.LFE5:
 121              		.section	.text.startup.main,"ax",@progbits
 122              		.align	1
 123              		.globl	main
 125              	main:
 126              	.LFB6:
  34:main.c        **** 
  35:main.c        **** 
  36:main.c        **** int main(void){
 127              		.loc 1 36 15 is_stmt 1
 128              		.cfi_startproc
  37:main.c        ****     int ms=0, s=0, key, pKey=-1, c=0, idle=0;
 129              		.loc 1 37 5
 130              	.LVL12:
  38:main.c        ****     int lookUpTbl[16]={10,1000,1000,1000,100,1000,1000,1000,1000,1000,1000,1000,1000,1000,1000,1000
 131              		.loc 1 38 5
  36:main.c        ****     int ms=0, s=0, key, pKey=-1, c=0, idle=0;
GAS LISTING C:\Users\Duckb\AppData\Local\Temp\ccnb9RvZ.s 			page 4


 132              		.loc 1 36 15 is_stmt 0
 133 0000 130101A3 		addi	sp,sp,-1488
 134              	.LCFI2:
 135              		.cfi_def_cfa_offset 1488
 136              		.loc 1 38 9
 137 0004 B7050000 		lui	a1,%hi(.LANCHOR0)
 138 0008 13060004 		li	a2,64
 139 000c 93850500 		addi	a1,a1,%lo(.LANCHOR0)
 140 0010 0808     		addi	a0,sp,16
  36:main.c        ****     int ms=0, s=0, key, pKey=-1, c=0, idle=0;
 141              		.loc 1 36 15
 142 0012 2326115C 		sw	ra,1484(sp)
 143 0016 2324815C 		sw	s0,1480(sp)
 144 001a 2322915C 		sw	s1,1476(sp)
 145 001e 2320215D 		sw	s2,1472(sp)
 146 0022 232E315B 		sw	s3,1468(sp)
 147 0026 232C415B 		sw	s4,1464(sp)
 148 002a 232A515B 		sw	s5,1460(sp)
 149 002e 2328615B 		sw	s6,1456(sp)
 150 0032 2326715B 		sw	s7,1452(sp)
 151              		.cfi_offset 1, -4
 152              		.cfi_offset 8, -8
 153              		.cfi_offset 9, -12
 154              		.cfi_offset 18, -16
 155              		.cfi_offset 19, -20
 156              		.cfi_offset 20, -24
 157              		.cfi_offset 21, -28
 158              		.cfi_offset 22, -32
 159              		.cfi_offset 23, -36
 160              		.loc 1 38 9
 161 0036 97000000 		call	memcpy
 161      E7800000 
 162              	.LVL13:
  39:main.c        ****     int dac=0, speed=-100;
 163              		.loc 1 39 5 is_stmt 1
  40:main.c        ****     int adcr, tmpr;
 164              		.loc 1 40 5
  41:main.c        ****     
  42:main.c        ****     Point points[170];
 165              		.loc 1 42 5
  43:main.c        ****     int amountOfPoints=-1, currentPoint=0, yOffset=0, currentSpeed=10;
 166              		.loc 1 43 5
 167              		.loc 1 43 9 is_stmt 0
 168 003e FD57     		li	a5,-1
 169 0040 3EC6     		sw	a5,12(sp)
 170              	.LVL14:
  44:main.c        **** 
  45:main.c        ****     for (int i = 0; i < 170; i++)
 171              		.loc 1 45 5 is_stmt 1
 172              	.LBB6:
 173              		.loc 1 45 10
 174 0042 1307015A 		addi	a4,sp,1440
 175              	.LBE6:
  43:main.c        ****     int amountOfPoints=-1, currentPoint=0, yOffset=0, currentSpeed=10;
 176              		.loc 1 43 9 is_stmt 0
 177 0046 9C08     		addi	a5,sp,80
 178              	.LBB11:
GAS LISTING C:\Users\Duckb\AppData\Local\Temp\ccnb9RvZ.s 			page 5


 179              	.LBB7:
 180              	.LBB8:
  14:main.c        ****   p->y = y;
 181              		.loc 1 14 8
 182 0048 7D56     		li	a2,-1
  15:main.c        **** }
 183              		.loc 1 15 8
 184 004a 93068002 		li	a3,40
 185              	.LVL15:
 186              	.L7:
 187              	.LBE8:
 188              	.LBE7:
  46:main.c        ****     {
  47:main.c        ****       initPoint(-1, 40, &points[i]);
 189              		.loc 1 47 7 is_stmt 1 discriminator 3
 190              	.LBB10:
 191              	.LBB9:
  14:main.c        ****   p->y = y;
 192              		.loc 1 14 3 discriminator 3
  14:main.c        ****   p->y = y;
 193              		.loc 1 14 8 is_stmt 0 discriminator 3
 194 004e 90C3     		sw	a2,0(a5)
  15:main.c        **** }
 195              		.loc 1 15 3 is_stmt 1 discriminator 3
  15:main.c        **** }
 196              		.loc 1 15 8 is_stmt 0 discriminator 3
 197 0050 D4C3     		sw	a3,4(a5)
 198              	.LVL16:
 199 0052 A107     		addi	a5,a5,8
 200              	.LBE9:
 201              	.LBE10:
  45:main.c        ****     {
 202              		.loc 1 45 5 discriminator 3
 203 0054 E31DF7FE 		bne	a4,a5,.L7
 204              	.LBE11:
  48:main.c        ****     }
  49:main.c        ****     
  50:main.c        ****   
  51:main.c        ****     int currentX = 0;
 205              		.loc 1 51 5 is_stmt 1
 206              	.LVL17:
  52:main.c        **** 
  53:main.c        ****     int lastAdcr = -1;
 207              		.loc 1 53 5
  54:main.c        **** 
  55:main.c        ****     t5omsi();                               // Initialize timer5 1kHz
 208              		.loc 1 55 5
 209 0058 97000000 		call	t5omsi
 209      E7800000 
 210              	.LVL18:
  56:main.c        ****     colinit();                              // Initialize column toolbox
 211              		.loc 1 56 5
 212 0060 97000000 		call	colinit
 212      E7800000 
 213              	.LVL19:
  57:main.c        ****     l88init();                              // Initialize 8*8 led toolbox
 214              		.loc 1 57 5
GAS LISTING C:\Users\Duckb\AppData\Local\Temp\ccnb9RvZ.s 			page 6


 215 0068 97000000 		call	l88init
 215      E7800000 
 216              	.LVL20:
  58:main.c        ****     keyinit();                              // Initialize keyboard toolbox
 217              		.loc 1 58 5
 218 0070 97000000 		call	keyinit
 218      E7800000 
 219              	.LVL21:
  59:main.c        ****     Lcd_SetType(LCD_NORMAL);                // or use LCD_INVERTED!
 220              		.loc 1 59 5
 221 0078 0145     		li	a0,0
 222 007a 97000000 		call	Lcd_SetType
 222      E7800000 
 223              	.LVL22:
  60:main.c        ****     Lcd_Init();
 224              		.loc 1 60 5
 225 0082 97000000 		call	Lcd_Init
 225      E7800000 
 226              	.LVL23:
  61:main.c        ****     ADC3powerUpInit(1);    
 227              		.loc 1 61 5
 228 008a 0545     		li	a0,1
 229 008c 97000000 		call	ADC3powerUpInit
 229      E7800000 
 230              	.LVL24:
  62:main.c        ****     LCD_Clear(BLACK);
 231              		.loc 1 62 5
 232 0094 0145     		li	a0,0
  63:main.c        **** 
  64:main.c        ****     
  65:main.c        **** 
  66:main.c        **** 
  67:main.c        ****     //LCD_ShowStr(10, 10, "POLL VERSION", WHITE, TRANSPARENT);
  68:main.c        **** 
  69:main.c        ****     while (1) {
  70:main.c        ****         idle++;                             // Manage Async events
  71:main.c        ****         LCD_WR_Queue();                   // Manage LCD com queue!
  72:main.c        **** 
  73:main.c        ****         
  74:main.c        **** 
  75:main.c        ****         if (adc_flag_get(ADC0,ADC_FLAG_EOC)==SET) { // ...ADC done?
 233              		.loc 1 75 13 is_stmt 0
 234 0096 37240140 		li	s0,1073815552
  76:main.c        ****           if (adc_flag_get(ADC0,ADC_FLAG_EOIC)==SET) { //...ch3 or ch16?
  77:main.c        ****             tmpr = adc_inserted_data_read(ADC0, ADC_INSERTED_CHANNEL_0);
  78:main.c        ****             //l88mem(6,((0x680-tmpr)/5)+25);
  79:main.c        ****             adc_flag_clear(ADC0, ADC_FLAG_EOC);
  80:main.c        ****             adc_flag_clear(ADC0, ADC_FLAG_EOIC);
  81:main.c        ****           } else {
  82:main.c        **** 
  83:main.c        ****             //adcr is the read value from the potentiometer transformed from analog to digital sign
  84:main.c        ****             adcr = adc_regular_data_read(ADC0); // ......get data
  85:main.c        ****             
  86:main.c        ****             lastAdcr = map(adcr, 0, 0, 4079, 79);
 235              		.loc 1 86 24
 236 009a 8569     		li	s3,4096
  62:main.c        **** 
GAS LISTING C:\Users\Duckb\AppData\Local\Temp\ccnb9RvZ.s 			page 7


 237              		.loc 1 62 5
 238 009c 97000000 		call	LCD_Clear
 238      E7800000 
 239              	.LVL25:
  53:main.c        **** 
 240              		.loc 1 53 9
 241 00a4 7D5A     		li	s4,-1
  43:main.c        **** 
 242              		.loc 1 43 55
 243 00a6 294B     		li	s6,10
  43:main.c        **** 
 244              		.loc 1 43 28
 245 00a8 8144     		li	s1,0
  37:main.c        ****     int lookUpTbl[16]={10,1000,1000,1000,100,1000,1000,1000,1000,1000,1000,1000,1000,1000,1000,1000
 246              		.loc 1 37 9
 247 00aa 0149     		li	s2,0
  75:main.c        ****           if (adc_flag_get(ADC0,ADC_FLAG_EOIC)==SET) { //...ch3 or ch16?
 248              		.loc 1 75 13
 249 00ac 13040440 		addi	s0,s0,1024
 250              		.loc 1 86 24
 251 00b0 BD19     		addi	s3,s3,-17
 252              	.LBB12:
  87:main.c        ****             
  88:main.c        **** 
  89:main.c        ****             adc_flag_clear(ADC0, ADC_FLAG_EOC); // ......clear IF
  90:main.c        ****           }
  91:main.c        ****         }
  92:main.c        **** 
  93:main.c        ****         if (t5expq()) {                     // Manage periodic tasks
  94:main.c        ****             l88row(colset());               // ...8*8LED and Keyboard
  95:main.c        ****             ms++;
  96:main.c        **** 
  97:main.c        ****            
  98:main.c        ****             if(ms >= currentSpeed){
  99:main.c        **** 
 100:main.c        ****               amountOfPoints++;
 101:main.c        **** 
 102:main.c        ****               if(amountOfPoints > 161){
 103:main.c        ****                 amountOfPoints--;
 104:main.c        ****               }
 105:main.c        ****               
 106:main.c        ****               
 107:main.c        ****               for (int i = 0; i < amountOfPoints; i++)
 108:main.c        ****               {
 109:main.c        ****                 if(points[i].x < 170){
 253              		.loc 1 109 19
 254 00b2 930A900A 		li	s5,169
 255              	.LVL26:
 256              	.L8:
 257              	.LBE12:
  69:main.c        ****         idle++;                             // Manage Async events
 258              		.loc 1 69 5 is_stmt 1
  70:main.c        ****         LCD_WR_Queue();                   // Manage LCD com queue!
 259              		.loc 1 70 9
  71:main.c        **** 
 260              		.loc 1 71 9
 261 00b6 97000000 		call	LCD_WR_Queue
GAS LISTING C:\Users\Duckb\AppData\Local\Temp\ccnb9RvZ.s 			page 8


 261      E7800000 
 262              	.LVL27:
  75:main.c        ****           if (adc_flag_get(ADC0,ADC_FLAG_EOIC)==SET) { //...ch3 or ch16?
 263              		.loc 1 75 9
  75:main.c        ****           if (adc_flag_get(ADC0,ADC_FLAG_EOIC)==SET) { //...ch3 or ch16?
 264              		.loc 1 75 13 is_stmt 0
 265 00be 8945     		li	a1,2
 266 00c0 2285     		mv	a0,s0
 267 00c2 97000000 		call	adc_flag_get
 267      E7800000 
 268              	.LVL28:
  75:main.c        ****           if (adc_flag_get(ADC0,ADC_FLAG_EOIC)==SET) { //...ch3 or ch16?
 269              		.loc 1 75 12
 270 00ca 8547     		li	a5,1
  75:main.c        ****           if (adc_flag_get(ADC0,ADC_FLAG_EOIC)==SET) { //...ch3 or ch16?
 271              		.loc 1 75 13
 272 00cc AA8B     		mv	s7,a0
  75:main.c        ****           if (adc_flag_get(ADC0,ADC_FLAG_EOIC)==SET) { //...ch3 or ch16?
 273              		.loc 1 75 12
 274 00ce 631CF502 		bne	a0,a5,.L9
  76:main.c        ****             tmpr = adc_inserted_data_read(ADC0, ADC_INSERTED_CHANNEL_0);
 275              		.loc 1 76 11 is_stmt 1
  76:main.c        ****             tmpr = adc_inserted_data_read(ADC0, ADC_INSERTED_CHANNEL_0);
 276              		.loc 1 76 15 is_stmt 0
 277 00d2 9145     		li	a1,4
 278 00d4 2285     		mv	a0,s0
 279 00d6 97000000 		call	adc_flag_get
 279      E7800000 
 280              	.LVL29:
  76:main.c        ****             tmpr = adc_inserted_data_read(ADC0, ADC_INSERTED_CHANNEL_0);
 281              		.loc 1 76 14
 282 00de 6315750B 		bne	a0,s7,.L10
  77:main.c        ****             //l88mem(6,((0x680-tmpr)/5)+25);
 283              		.loc 1 77 13 is_stmt 1
  77:main.c        ****             //l88mem(6,((0x680-tmpr)/5)+25);
 284              		.loc 1 77 20 is_stmt 0
 285 00e2 8145     		li	a1,0
 286 00e4 2285     		mv	a0,s0
 287 00e6 97000000 		call	adc_inserted_data_read
 287      E7800000 
 288              	.LVL30:
  79:main.c        ****             adc_flag_clear(ADC0, ADC_FLAG_EOIC);
 289              		.loc 1 79 13 is_stmt 1
 290 00ee 8945     		li	a1,2
 291 00f0 2285     		mv	a0,s0
 292 00f2 97000000 		call	adc_flag_clear
 292      E7800000 
 293              	.LVL31:
  80:main.c        ****           } else {
 294              		.loc 1 80 13
 295 00fa 9145     		li	a1,4
 296              	.L24:
  89:main.c        ****           }
 297              		.loc 1 89 13 is_stmt 0
 298 00fc 2285     		mv	a0,s0
 299 00fe 97000000 		call	adc_flag_clear
 299      E7800000 
GAS LISTING C:\Users\Duckb\AppData\Local\Temp\ccnb9RvZ.s 			page 9


 300              	.LVL32:
 301              	.L9:
  93:main.c        ****             l88row(colset());               // ...8*8LED and Keyboard
 302              		.loc 1 93 9 is_stmt 1
  93:main.c        ****             l88row(colset());               // ...8*8LED and Keyboard
 303              		.loc 1 93 13 is_stmt 0
 304 0106 97000000 		call	t5expq
 304      E7800000 
 305              	.LVL33:
  93:main.c        ****             l88row(colset());               // ...8*8LED and Keyboard
 306              		.loc 1 93 12
 307 010e 45D5     		beq	a0,zero,.L8
 308 0110 0509     		addi	s2,s2,1
 309              	.LVL34:
  94:main.c        ****             ms++;
 310              		.loc 1 94 13 is_stmt 1
 311 0112 97000000 		call	colset
 311      E7800000 
 312              	.LVL35:
 313 011a 97000000 		call	l88row
 313      E7800000 
 314              	.LVL36:
  95:main.c        **** 
 315              		.loc 1 95 13
  98:main.c        **** 
 316              		.loc 1 98 13
  98:main.c        **** 
 317              		.loc 1 98 15 is_stmt 0
 318 0122 63406905 		bgt	s6,s2,.L12
 100:main.c        **** 
 319              		.loc 1 100 15 is_stmt 1
 100:main.c        **** 
 320              		.loc 1 100 29 is_stmt 0
 321 0126 B247     		lw	a5,12(sp)
 102:main.c        ****                 amountOfPoints--;
 322              		.loc 1 102 17
 323 0128 1307100A 		li	a4,161
 100:main.c        **** 
 324              		.loc 1 100 29
 325 012c 8507     		addi	a5,a5,1
 102:main.c        ****                 amountOfPoints--;
 326              		.loc 1 102 15 is_stmt 1
 102:main.c        ****                 amountOfPoints--;
 327              		.loc 1 102 17 is_stmt 0
 328 012e 6343F700 		bgt	a5,a4,.L13
 100:main.c        **** 
 329              		.loc 1 100 29
 330 0132 3EC6     		sw	a5,12(sp)
 331              	.L13:
  37:main.c        ****     int lookUpTbl[16]={10,1000,1000,1000,100,1000,1000,1000,1000,1000,1000,1000,1000,1000,1000,1000
 332              		.loc 1 37 9 discriminator 1
 333 0134 13090105 		addi	s2,sp,80
 334              	.LVL37:
 335 0138 814B     		li	s7,0
 336              	.L14:
 337              	.LVL38:
 338              	.LBB13:
GAS LISTING C:\Users\Duckb\AppData\Local\Temp\ccnb9RvZ.s 			page 10


 107:main.c        ****               {
 339              		.loc 1 107 15 discriminator 1
 340 013a B247     		lw	a5,12(sp)
 341 013c 63C7FB06 		bgt	a5,s7,.L16
 342              	.LBE13:
 110:main.c        ****                   movePoint(&points[i], &amountOfPoints);
 111:main.c        **** 
 112:main.c        ****                 }
 113:main.c        ****                 
 114:main.c        ****               }
 115:main.c        **** 
 116:main.c        ****               points[currentPoint].y = lastAdcr;
 343              		.loc 1 116 15 is_stmt 1
 344              		.loc 1 116 38 is_stmt 0
 345 0140 93973400 		slli	a5,s1,3
 346 0144 1307015A 		addi	a4,sp,1440
 347 0148 BA97     		add	a5,a4,a5
 117:main.c        ****               points[currentPoint].x = -1;
 348              		.loc 1 117 38
 349 014a 7D57     		li	a4,-1
 116:main.c        ****               points[currentPoint].x = -1;
 350              		.loc 1 116 38
 351 014c 23AA47AB 		sw	s4,-1356(a5)
 352              		.loc 1 117 15 is_stmt 1
 353              		.loc 1 117 38 is_stmt 0
 354 0150 23A8E7AA 		sw	a4,-1360(a5)
 118:main.c        **** 
 119:main.c        **** 
 120:main.c        ****               currentPoint++;
 355              		.loc 1 120 15 is_stmt 1
 356              		.loc 1 120 27 is_stmt 0
 357 0154 8504     		addi	s1,s1,1
 358              	.LVL39:
 121:main.c        **** 
 122:main.c        ****               if(currentPoint > 160){
 359              		.loc 1 122 15 is_stmt 1
 360              		.loc 1 122 17 is_stmt 0
 361 0156 9307000A 		li	a5,160
 123:main.c        ****                 currentPoint = 0;
 124:main.c        ****               }
 125:main.c        **** 
 126:main.c        ****               ms = 0;
 362              		.loc 1 126 18
 363 015a 0149     		li	s2,0
 122:main.c        ****                 currentPoint = 0;
 364              		.loc 1 122 17
 365 015c 63D39700 		ble	s1,a5,.L12
 123:main.c        ****                 currentPoint = 0;
 366              		.loc 1 123 30
 367 0160 8144     		li	s1,0
 368              	.LVL40:
 369              	.L12:
 127:main.c        **** 
 128:main.c        ****               
 129:main.c        ****             }
 130:main.c        **** 
 131:main.c        ****             if((key=keyscan()) >= 0){
GAS LISTING C:\Users\Duckb\AppData\Local\Temp\ccnb9RvZ.s 			page 11


 370              		.loc 1 131 13 is_stmt 1
 371              		.loc 1 131 21 is_stmt 0
 372 0162 97000000 		call	keyscan
 372      E7800000 
 373              	.LVL41:
 374              		.loc 1 131 15
 375 016a 63480500 		blt	a0,zero,.L17
 132:main.c        ****               currentSpeed = lookUpTbl[key];
 376              		.loc 1 132 15 is_stmt 1
 377              		.loc 1 132 28 is_stmt 0
 378 016e 0A05     		slli	a0,a0,2
 379              	.LVL42:
 380 0170 9307015A 		addi	a5,sp,1440
 381 0174 3E95     		add	a0,a5,a0
 382 0176 032B05A7 		lw	s6,-1424(a0)
 383              	.LVL43:
 384              	.L17:
 133:main.c        ****             }
 134:main.c        **** 
 135:main.c        ****             adc_software_trigger_enable(ADC0, ADC_REGULAR_CHANNEL); //Trigger another ADC conversio
 385              		.loc 1 135 13 is_stmt 1
 386 017a 8545     		li	a1,1
 387 017c 2285     		mv	a0,s0
 388 017e 97000000 		call	adc_software_trigger_enable
 388      E7800000 
 389              	.LVL44:
 390 0186 05BF     		j	.L8
 391              	.L10:
  84:main.c        ****             
 392              		.loc 1 84 13
  84:main.c        ****             
 393              		.loc 1 84 20 is_stmt 0
 394 0188 2285     		mv	a0,s0
 395 018a 97000000 		call	adc_regular_data_read
 395      E7800000 
 396              	.LVL45:
  86:main.c        ****             
 397              		.loc 1 86 13 is_stmt 1
  86:main.c        ****             
 398              		.loc 1 86 24 is_stmt 0
 399 0192 8145     		li	a1,0
 400 0194 1307F004 		li	a4,79
 401 0198 CE86     		mv	a3,s3
 402 019a 0146     		li	a2,0
 403 019c 97000000 		call	map
 403      E7800000 
 404              	.LVL46:
 405 01a4 2A8A     		mv	s4,a0
 406              	.LVL47:
  89:main.c        ****           }
 407              		.loc 1 89 13 is_stmt 1
 408 01a6 8945     		li	a1,2
 409 01a8 91BF     		j	.L24
 410              	.LVL48:
 411              	.L16:
 412              	.LBB14:
 109:main.c        ****                   movePoint(&points[i], &amountOfPoints);
GAS LISTING C:\Users\Duckb\AppData\Local\Temp\ccnb9RvZ.s 			page 12


 413              		.loc 1 109 17
 109:main.c        ****                   movePoint(&points[i], &amountOfPoints);
 414              		.loc 1 109 19 is_stmt 0
 415 01aa 83270900 		lw	a5,0(s2)
 416 01ae 63C8FA00 		bgt	a5,s5,.L15
 110:main.c        **** 
 417              		.loc 1 110 19 is_stmt 1
 418 01b2 6C00     		addi	a1,sp,12
 419 01b4 4A85     		mv	a0,s2
 420 01b6 97000000 		call	movePoint
 420      E7800000 
 421              	.LVL49:
 422              	.L15:
 107:main.c        ****               {
 423              		.loc 1 107 52 is_stmt 0 discriminator 2
 424 01be 850B     		addi	s7,s7,1
 425              	.LVL50:
 426 01c0 2109     		addi	s2,s2,8
 427 01c2 A5BF     		j	.L14
 428              	.LBE14:
 429              		.cfi_endproc
 430              	.LFE6:
 432              		.section	.rodata
 433              		.align	2
 434              		.set	.LANCHOR0,. + 0
 435              	.LC0:
 436 0000 0A000000 		.word	10
 437 0004 E8030000 		.word	1000
 438 0008 E8030000 		.word	1000
 439 000c E8030000 		.word	1000
 440 0010 64000000 		.word	100
 441 0014 E8030000 		.word	1000
 442 0018 E8030000 		.word	1000
 443 001c E8030000 		.word	1000
 444 0020 E8030000 		.word	1000
 445 0024 E8030000 		.word	1000
 446 0028 E8030000 		.word	1000
 447 002c E8030000 		.word	1000
 448 0030 E8030000 		.word	1000
 449 0034 E8030000 		.word	1000
 450 0038 E8030000 		.word	1000
 451 003c E8030000 		.word	1000
 452              		.text
 453              	.Letext0:
 454              		.file 2 "c:\\programming\\assembler\\toolchain-gd32v-v202-win\\toolchain-gd32v-v202-win\\compiler\
 455              		.file 3 "c:\\programming\\assembler\\toolchain-gd32v-v202-win\\toolchain-gd32v-v202-win\\compiler\
 456              		.file 4 "c:\\programming\\assembler\\toolchain-gd32v-v202-win\\toolchain-gd32v-v202-win\\compiler\
 457              		.file 5 "c:\\programming\\assembler\\toolchain-gd32v-v202-win\\toolchain-gd32v-v202-win\\compiler\
 458              		.file 6 "c:\\programming\\assembler\\toolchain-gd32v-v202-win\\toolchain-gd32v-v202-win\\compiler\
 459              		.file 7 "c:\\programming\\assembler\\toolchain-gd32v-v202-win\\toolchain-gd32v-v202-win\\compiler\
 460              		.file 8 "./../../firmware/GD32VF103_standard_peripheral/system_gd32vf103.h"
 461              		.file 9 "c:\\programming\\assembler\\toolchain-gd32v-v202-win\\toolchain-gd32v-v202-win\\compiler\
 462              		.file 10 "lcd.h"
 463              		.file 11 "drivers.h"
 464              		.file 12 "adc.h"
 465              		.file 13 "./../../firmware/GD32VF103_standard_peripheral/Include/gd32vf103_adc.h"
 466              		.file 14 "./../../firmware/GD32VF103_standard_peripheral/gd32vf103.h"
GAS LISTING C:\Users\Duckb\AppData\Local\Temp\ccnb9RvZ.s 			page 13


 467              		.file 15 "<built-in>"
GAS LISTING C:\Users\Duckb\AppData\Local\Temp\ccnb9RvZ.s 			page 14

