GAS LISTING C:\Users\Duckb\AppData\Local\Temp\ccH5r1pr.s 			page 1


   1              		.file	"main.c"
   2              		.option nopic
   3              		.attribute arch, "rv32i2p0_m2p0_a2p0_c2p0"
   4              		.attribute unaligned_access, 0
   5              		.attribute stack_align, 16
   6              		.text
   7              	.Ltext0:
   8              		.cfi_sections	.debug_frame
   9              		.section	.text.rtcInit,"ax",@progbits
  10              		.align	1
  11              		.globl	rtcInit
  13              	rtcInit:
  14              	.LFB2:
  15              		.file 1 "main.c"
   1:main.c        **** #include "gd32vf103.h"
   2:main.c        **** #include "drivers.h"
   3:main.c        **** #include "adc.h"
   4:main.c        **** #include "lcd.h"
   5:main.c        **** #include "usart.h"
   6:main.c        **** #include "math.h"
   7:main.c        **** #define EI 1
   8:main.c        **** #define DI 0
   9:main.c        **** 
  10:main.c        **** //NOTES: Trigonometric functions work!
  11:main.c        **** 
  12:main.c        **** 
  13:main.c        **** void rtcInit(void){
  16              		.loc 1 13 19
  17              		.cfi_startproc
  14:main.c        ****    // enable power managemenet unit - perhaps enabled by default
  15:main.c        ****    rcu_periph_clock_enable(RCU_PMU);
  18              		.loc 1 15 4
  13:main.c        ****    // enable power managemenet unit - perhaps enabled by default
  19              		.loc 1 13 19 is_stmt 0
  20 0000 4111     		addi	sp,sp,-16
  21              	.LCFI0:
  22              		.cfi_def_cfa_offset 16
  23              		.loc 1 15 4
  24 0002 1305C071 		li	a0,1820
  13:main.c        ****    // enable power managemenet unit - perhaps enabled by default
  25              		.loc 1 13 19
  26 0006 06C6     		sw	ra,12(sp)
  27              		.cfi_offset 1, -4
  28              		.loc 1 15 4
  29 0008 97000000 		call	rcu_periph_clock_enable
  29      E7800000 
  30              	.LVL0:
  16:main.c        ****    // enable write access to the registers in the backup domain
  17:main.c        ****    pmu_backup_write_enable();
  31              		.loc 1 17 4 is_stmt 1
  32 0010 97000000 		call	pmu_backup_write_enable
  32      E7800000 
  33              	.LVL1:
  18:main.c        ****    // enable backup domain
  19:main.c        ****    rcu_periph_clock_enable(RCU_BKPI);
  34              		.loc 1 19 4
  35 0018 1305B071 		li	a0,1819
GAS LISTING C:\Users\Duckb\AppData\Local\Temp\ccH5r1pr.s 			page 2


  36 001c 97000000 		call	rcu_periph_clock_enable
  36      E7800000 
  37              	.LVL2:
  20:main.c        ****    // reset backup domain registers
  21:main.c        ****    bkp_deinit();
  38              		.loc 1 21 4
  39 0024 97000000 		call	bkp_deinit
  39      E7800000 
  40              	.LVL3:
  22:main.c        ****    // set the results of a previous calibration procedure
  23:main.c        ****    // bkp_rtc_calibration_value_set(x);
  24:main.c        **** 
  25:main.c        ****    // setup RTC
  26:main.c        ****    // enable external low speed XO
  27:main.c        ****    //rcu_osci_on(RCU_LXTAL);
  28:main.c        ****    if (rcu_osci_stab_wait(RCU_HXTAL)) {
  41              		.loc 1 28 4
  42              		.loc 1 28 8 is_stmt 0
  43 002c 4145     		li	a0,16
  44 002e 97000000 		call	rcu_osci_stab_wait
  44      E7800000 
  45              	.LVL4:
  46              		.loc 1 28 7
  47 0036 21CD     		beq	a0,zero,.L1
  29:main.c        ****      // use external low speed oscillaotr, i.e. 32.768 kHz
  30:main.c        ****      rcu_rtc_clock_config(RCU_RTCSRC_HXTAL_DIV_128);
  48              		.loc 1 30 6 is_stmt 1
  49 0038 13050030 		li	a0,768
  50 003c 97000000 		call	rcu_rtc_clock_config
  50      E7800000 
  51              	.LVL5:
  31:main.c        ****      rcu_periph_clock_enable(RCU_RTC);
  52              		.loc 1 31 6
  53 0044 0565     		li	a0,4096
  54 0046 1305F580 		addi	a0,a0,-2033
  55 004a 97000000 		call	rcu_periph_clock_enable
  55      E7800000 
  56              	.LVL6:
  32:main.c        ****      // wait until shadow registers are synced from the backup domain
  33:main.c        ****      // over the APB bus
  34:main.c        ****      rtc_register_sync_wait();
  57              		.loc 1 34 6
  58 0052 97000000 		call	rtc_register_sync_wait
  58      E7800000 
  59              	.LVL7:
  35:main.c        ****      // wait until shadow register changes are synced over APB
  36:main.c        ****      // to the backup doamin
  37:main.c        ****      rtc_lwoff_wait();
  60              		.loc 1 37 6
  61 005a 97000000 		call	rtc_lwoff_wait
  61      E7800000 
  62              	.LVL8:
  38:main.c        ****      // prescale to 1 second
  39:main.c        ****      rtc_prescaler_set(62500 - 1);
  63              		.loc 1 39 6
  64 0062 3D65     		li	a0,61440
  65 0064 13053542 		addi	a0,a0,1059
GAS LISTING C:\Users\Duckb\AppData\Local\Temp\ccH5r1pr.s 			page 3


  66 0068 97000000 		call	rtc_prescaler_set
  66      E7800000 
  67              	.LVL9:
  40:main.c        ****      rtc_lwoff_wait();
  68              		.loc 1 40 6
  69 0070 97000000 		call	rtc_lwoff_wait
  69      E7800000 
  70              	.LVL10:
  41:main.c        ****      rtc_flag_clear(RTC_INT_FLAG_SECOND);
  71              		.loc 1 41 6
  72 0078 0545     		li	a0,1
  73 007a 97000000 		call	rtc_flag_clear
  73      E7800000 
  74              	.LVL11:
  42:main.c        ****      //rtc_interrupt_enable(RTC_INT_SECOND);
  43:main.c        ****      rtc_lwoff_wait();
  75              		.loc 1 43 6
  44:main.c        ****    }
  45:main.c        **** }
  76              		.loc 1 45 1 is_stmt 0
  77 0082 B240     		lw	ra,12(sp)
  78              		.cfi_remember_state
  79              		.cfi_restore 1
  80 0084 4101     		addi	sp,sp,16
  81              	.LCFI1:
  82              		.cfi_def_cfa_offset 0
  43:main.c        ****    }
  83              		.loc 1 43 6
  84 0086 17030000 		tail	rtc_lwoff_wait
  84      67000300 
  85              	.LVL12:
  86              	.L1:
  87              	.LCFI2:
  88              		.cfi_restore_state
  89              		.loc 1 45 1
  90 008e B240     		lw	ra,12(sp)
  91              		.cfi_restore 1
  92 0090 4101     		addi	sp,sp,16
  93              	.LCFI3:
  94              		.cfi_def_cfa_offset 0
  95 0092 8280     		jr	ra
  96              		.cfi_endproc
  97              	.LFE2:
  99              		.section	.text.startup.main,"ax",@progbits
 100              		.align	1
 101              		.globl	main
 103              	main:
 104              	.LFB3:
  46:main.c        **** 
  47:main.c        **** int main(void){
 105              		.loc 1 47 15 is_stmt 1
 106              		.cfi_startproc
  48:main.c        ****     int ms=0, s=0, key, pKey=-1, c=0, idle=0, rtc, hh, mm, ss;
 107              		.loc 1 48 5
 108              	.LVL13:
  49:main.c        ****     int lookUpTbl[16]={1,4,7,14,2,5,8,0,3,6,9,15,10,11,12,13};
 109              		.loc 1 49 5
GAS LISTING C:\Users\Duckb\AppData\Local\Temp\ccH5r1pr.s 			page 4


  50:main.c        ****     int hexDigits[2] = {0}, currentDig=0;
 110              		.loc 1 50 5
  51:main.c        ****     int currentPosition[2] = {10, 0};
 111              		.loc 1 51 5
  52:main.c        ****     int dac=0, speed=-100;
 112              		.loc 1 52 5
  53:main.c        ****     int adcr, tmpr;
 113              		.loc 1 53 5
  54:main.c        ****     //char time[7]={0};
  55:main.c        **** 
  56:main.c        ****     t5omsi();                               // Initialize timer5 1kHz
 114              		.loc 1 56 5
  47:main.c        ****     int ms=0, s=0, key, pKey=-1, c=0, idle=0, rtc, hh, mm, ss;
 115              		.loc 1 47 15 is_stmt 0
 116 0000 4111     		addi	sp,sp,-16
 117              	.LCFI4:
 118              		.cfi_def_cfa_offset 16
 119 0002 06C6     		sw	ra,12(sp)
 120 0004 22C4     		sw	s0,8(sp)
 121              		.cfi_offset 1, -4
 122              		.cfi_offset 8, -8
 123              		.loc 1 56 5
 124 0006 97000000 		call	t5omsi
 124      E7800000 
 125              	.LVL14:
  57:main.c        ****     colinit();                              // Initialize column toolbox
 126              		.loc 1 57 5 is_stmt 1
 127 000e 97000000 		call	colinit
 127      E7800000 
 128              	.LVL15:
  58:main.c        ****     l88init();                              // Initialize 8*8 led toolbox
 129              		.loc 1 58 5
 130 0016 97000000 		call	l88init
 130      E7800000 
 131              	.LVL16:
  59:main.c        ****     keyinit();                              // Initialize keyboard toolbox
 132              		.loc 1 59 5
 133 001e 97000000 		call	keyinit
 133      E7800000 
 134              	.LVL17:
  60:main.c        ****     ADC3powerUpInit(1);                     // Initialize ADC0, Ch3
 135              		.loc 1 60 5
 136 0026 0545     		li	a0,1
 137 0028 97000000 		call	ADC3powerUpInit
 137      E7800000 
 138              	.LVL18:
  61:main.c        ****     Lcd_SetType(LCD_NORMAL);//NORMAL);                // or use LCD_INVERTED!
 139              		.loc 1 61 5
 140 0030 0145     		li	a0,0
 141 0032 97000000 		call	Lcd_SetType
 141      E7800000 
 142              	.LVL19:
  62:main.c        ****     Lcd_Init();
 143              		.loc 1 62 5
 144 003a 97000000 		call	Lcd_Init
 144      E7800000 
 145              	.LVL20:
GAS LISTING C:\Users\Duckb\AppData\Local\Temp\ccH5r1pr.s 			page 5


  63:main.c        ****     LCD_Clear(BLACK);
 146              		.loc 1 63 5
 147 0042 0145     		li	a0,0
  64:main.c        **** 
  65:main.c        **** 
  66:main.c        ****     while (1) {
  67:main.c        ****   
  68:main.c        ****         LCD_WR_Queue();                     // Manage LCD com queue!
  69:main.c        ****         
  70:main.c        ****         if (t5expq()) {                     // Manage periodic tasks
  71:main.c        ****           l88row(colset());               // ...8*8LED and 
  72:main.c        **** 
  73:main.c        ****           LCD_ShowNum1(10, 30, 0, 3, WHITE);
 148              		.loc 1 73 11 is_stmt 0
 149 0044 4164     		li	s0,65536
  63:main.c        ****     LCD_Clear(BLACK);
 150              		.loc 1 63 5
 151 0046 97000000 		call	LCD_Clear
 151      E7800000 
 152              	.LVL21:
 153              		.loc 1 73 11
 154 004e 7D14     		addi	s0,s0,-1
 155              	.L5:
  66:main.c        ****   
 156              		.loc 1 66 5 is_stmt 1
  68:main.c        ****         
 157              		.loc 1 68 9
 158 0050 97000000 		call	LCD_WR_Queue
 158      E7800000 
 159              	.LVL22:
  70:main.c        ****           l88row(colset());               // ...8*8LED and 
 160              		.loc 1 70 9
  70:main.c        ****           l88row(colset());               // ...8*8LED and 
 161              		.loc 1 70 13 is_stmt 0
 162 0058 97000000 		call	t5expq
 162      E7800000 
 163              	.LVL23:
  70:main.c        ****           l88row(colset());               // ...8*8LED and 
 164              		.loc 1 70 12
 165 0060 65D9     		beq	a0,zero,.L5
  71:main.c        **** 
 166              		.loc 1 71 11 is_stmt 1
 167 0062 97000000 		call	colset
 167      E7800000 
 168              	.LVL24:
 169 006a 97000000 		call	l88row
 169      E7800000 
 170              	.LVL25:
 171              		.loc 1 73 11
 172 0072 2287     		mv	a4,s0
 173 0074 8D46     		li	a3,3
 174 0076 13060000 		mv	a2,zero
 175 007a F945     		li	a1,30
 176 007c 2945     		li	a0,10
 177 007e 97000000 		call	LCD_ShowNum1
 177      E7800000 
 178              	.LVL26:
GAS LISTING C:\Users\Duckb\AppData\Local\Temp\ccH5r1pr.s 			page 6


 179 0086 E9B7     		j	.L5
 180              		.cfi_endproc
 181              	.LFE3:
 183              		.text
 184              	.Letext0:
 185              		.file 2 "c:\\programming\\assembler\\toolchain-gd32v-v202-win\\toolchain-gd32v-v202-win\\compiler\
 186              		.file 3 "c:\\programming\\assembler\\toolchain-gd32v-v202-win\\toolchain-gd32v-v202-win\\compiler\
 187              		.file 4 "./../../firmware/GD32VF103_standard_peripheral/Include/gd32vf103_rcu.h"
 188              		.file 5 "c:\\programming\\assembler\\toolchain-gd32v-v202-win\\toolchain-gd32v-v202-win\\compiler\
 189              		.file 6 "c:\\programming\\assembler\\toolchain-gd32v-v202-win\\toolchain-gd32v-v202-win\\compiler\
 190              		.file 7 "c:\\programming\\assembler\\toolchain-gd32v-v202-win\\toolchain-gd32v-v202-win\\compiler\
 191              		.file 8 "c:\\programming\\assembler\\toolchain-gd32v-v202-win\\toolchain-gd32v-v202-win\\compiler\
 192              		.file 9 "./../../firmware/GD32VF103_standard_peripheral/system_gd32vf103.h"
 193              		.file 10 "c:\\programming\\assembler\\toolchain-gd32v-v202-win\\toolchain-gd32v-v202-win\\compiler
 194              		.file 11 "lcd.h"
 195              		.file 12 "c:\\programming\\assembler\\toolchain-gd32v-v202-win\\toolchain-gd32v-v202-win\\compiler
 196              		.file 13 "drivers.h"
 197              		.file 14 "adc.h"
 198              		.file 15 "./../../firmware/GD32VF103_standard_peripheral/Include/gd32vf103_pmu.h"
 199              		.file 16 "./../../firmware/GD32VF103_standard_peripheral/Include/gd32vf103_bkp.h"
 200              		.file 17 "./../../firmware/GD32VF103_standard_peripheral/Include/gd32vf103_rtc.h"
GAS LISTING C:\Users\Duckb\AppData\Local\Temp\ccH5r1pr.s 			page 7


DEFINED SYMBOLS
                            *ABS*:0000000000000000 main.c
C:\Users\Duckb\AppData\Local\Temp\ccH5r1pr.s:13     .text.rtcInit:0000000000000000 rtcInit
C:\Users\Duckb\AppData\Local\Temp\ccH5r1pr.s:17     .text.rtcInit:0000000000000000 .L0 
C:\Users\Duckb\AppData\Local\Temp\ccH5r1pr.s:18     .text.rtcInit:0000000000000000 .L0 
C:\Users\Duckb\AppData\Local\Temp\ccH5r1pr.s:19     .text.rtcInit:0000000000000000 .L0 
C:\Users\Duckb\AppData\Local\Temp\ccH5r1pr.s:20     .text.rtcInit:0000000000000000 .L0 
C:\Users\Duckb\AppData\Local\Temp\ccH5r1pr.s:22     .text.rtcInit:0000000000000002 .L0 
C:\Users\Duckb\AppData\Local\Temp\ccH5r1pr.s:24     .text.rtcInit:0000000000000002 .L0 
C:\Users\Duckb\AppData\Local\Temp\ccH5r1pr.s:26     .text.rtcInit:0000000000000006 .L0 
C:\Users\Duckb\AppData\Local\Temp\ccH5r1pr.s:27     .text.rtcInit:0000000000000008 .L0 
C:\Users\Duckb\AppData\Local\Temp\ccH5r1pr.s:29     .text.rtcInit:0000000000000008 .L0 
C:\Users\Duckb\AppData\Local\Temp\ccH5r1pr.s:32     .text.rtcInit:0000000000000010 .L0 
C:\Users\Duckb\AppData\Local\Temp\ccH5r1pr.s:35     .text.rtcInit:0000000000000018 .L0 
C:\Users\Duckb\AppData\Local\Temp\ccH5r1pr.s:39     .text.rtcInit:0000000000000024 .L0 
C:\Users\Duckb\AppData\Local\Temp\ccH5r1pr.s:42     .text.rtcInit:000000000000002c .L0 
C:\Users\Duckb\AppData\Local\Temp\ccH5r1pr.s:43     .text.rtcInit:000000000000002c .L0 
C:\Users\Duckb\AppData\Local\Temp\ccH5r1pr.s:47     .text.rtcInit:0000000000000036 .L0 
C:\Users\Duckb\AppData\Local\Temp\ccH5r1pr.s:49     .text.rtcInit:0000000000000038 .L0 
C:\Users\Duckb\AppData\Local\Temp\ccH5r1pr.s:53     .text.rtcInit:0000000000000044 .L0 
C:\Users\Duckb\AppData\Local\Temp\ccH5r1pr.s:58     .text.rtcInit:0000000000000052 .L0 
C:\Users\Duckb\AppData\Local\Temp\ccH5r1pr.s:61     .text.rtcInit:000000000000005a .L0 
C:\Users\Duckb\AppData\Local\Temp\ccH5r1pr.s:64     .text.rtcInit:0000000000000062 .L0 
C:\Users\Duckb\AppData\Local\Temp\ccH5r1pr.s:69     .text.rtcInit:0000000000000070 .L0 
C:\Users\Duckb\AppData\Local\Temp\ccH5r1pr.s:72     .text.rtcInit:0000000000000078 .L0 
C:\Users\Duckb\AppData\Local\Temp\ccH5r1pr.s:76     .text.rtcInit:0000000000000082 .L0 
C:\Users\Duckb\AppData\Local\Temp\ccH5r1pr.s:77     .text.rtcInit:0000000000000082 .L0 
C:\Users\Duckb\AppData\Local\Temp\ccH5r1pr.s:78     .text.rtcInit:0000000000000084 .L0 
C:\Users\Duckb\AppData\Local\Temp\ccH5r1pr.s:79     .text.rtcInit:0000000000000084 .L0 
C:\Users\Duckb\AppData\Local\Temp\ccH5r1pr.s:82     .text.rtcInit:0000000000000086 .L0 
C:\Users\Duckb\AppData\Local\Temp\ccH5r1pr.s:84     .text.rtcInit:0000000000000086 .L0 
C:\Users\Duckb\AppData\Local\Temp\ccH5r1pr.s:88     .text.rtcInit:000000000000008e .L0 
C:\Users\Duckb\AppData\Local\Temp\ccH5r1pr.s:90     .text.rtcInit:000000000000008e .L0 
C:\Users\Duckb\AppData\Local\Temp\ccH5r1pr.s:91     .text.rtcInit:0000000000000090 .L0 
C:\Users\Duckb\AppData\Local\Temp\ccH5r1pr.s:94     .text.rtcInit:0000000000000092 .L0 
C:\Users\Duckb\AppData\Local\Temp\ccH5r1pr.s:96     .text.rtcInit:0000000000000094 .L0 
C:\Users\Duckb\AppData\Local\Temp\ccH5r1pr.s:103    .text.startup.main:0000000000000000 main
C:\Users\Duckb\AppData\Local\Temp\ccH5r1pr.s:106    .text.startup.main:0000000000000000 .L0 
C:\Users\Duckb\AppData\Local\Temp\ccH5r1pr.s:107    .text.startup.main:0000000000000000 .L0 
C:\Users\Duckb\AppData\Local\Temp\ccH5r1pr.s:109    .text.startup.main:0000000000000000 .L0 
C:\Users\Duckb\AppData\Local\Temp\ccH5r1pr.s:110    .text.startup.main:0000000000000000 .L0 
C:\Users\Duckb\AppData\Local\Temp\ccH5r1pr.s:111    .text.startup.main:0000000000000000 .L0 
C:\Users\Duckb\AppData\Local\Temp\ccH5r1pr.s:112    .text.startup.main:0000000000000000 .L0 
C:\Users\Duckb\AppData\Local\Temp\ccH5r1pr.s:113    .text.startup.main:0000000000000000 .L0 
C:\Users\Duckb\AppData\Local\Temp\ccH5r1pr.s:114    .text.startup.main:0000000000000000 .L0 
C:\Users\Duckb\AppData\Local\Temp\ccH5r1pr.s:115    .text.startup.main:0000000000000000 .L0 
C:\Users\Duckb\AppData\Local\Temp\ccH5r1pr.s:116    .text.startup.main:0000000000000000 .L0 
C:\Users\Duckb\AppData\Local\Temp\ccH5r1pr.s:118    .text.startup.main:0000000000000002 .L0 
C:\Users\Duckb\AppData\Local\Temp\ccH5r1pr.s:121    .text.startup.main:0000000000000006 .L0 
C:\Users\Duckb\AppData\Local\Temp\ccH5r1pr.s:122    .text.startup.main:0000000000000006 .L0 
C:\Users\Duckb\AppData\Local\Temp\ccH5r1pr.s:124    .text.startup.main:0000000000000006 .L0 
C:\Users\Duckb\AppData\Local\Temp\ccH5r1pr.s:127    .text.startup.main:000000000000000e .L0 
C:\Users\Duckb\AppData\Local\Temp\ccH5r1pr.s:130    .text.startup.main:0000000000000016 .L0 
C:\Users\Duckb\AppData\Local\Temp\ccH5r1pr.s:133    .text.startup.main:000000000000001e .L0 
C:\Users\Duckb\AppData\Local\Temp\ccH5r1pr.s:136    .text.startup.main:0000000000000026 .L0 
C:\Users\Duckb\AppData\Local\Temp\ccH5r1pr.s:140    .text.startup.main:0000000000000030 .L0 
C:\Users\Duckb\AppData\Local\Temp\ccH5r1pr.s:144    .text.startup.main:000000000000003a .L0 
GAS LISTING C:\Users\Duckb\AppData\Local\Temp\ccH5r1pr.s 			page 8


C:\Users\Duckb\AppData\Local\Temp\ccH5r1pr.s:147    .text.startup.main:0000000000000042 .L0 
C:\Users\Duckb\AppData\Local\Temp\ccH5r1pr.s:149    .text.startup.main:0000000000000044 .L0 
C:\Users\Duckb\AppData\Local\Temp\ccH5r1pr.s:151    .text.startup.main:0000000000000046 .L0 
C:\Users\Duckb\AppData\Local\Temp\ccH5r1pr.s:154    .text.startup.main:000000000000004e .L0 
C:\Users\Duckb\AppData\Local\Temp\ccH5r1pr.s:157    .text.startup.main:0000000000000050 .L0 
C:\Users\Duckb\AppData\Local\Temp\ccH5r1pr.s:158    .text.startup.main:0000000000000050 .L0 
C:\Users\Duckb\AppData\Local\Temp\ccH5r1pr.s:161    .text.startup.main:0000000000000058 .L0 
C:\Users\Duckb\AppData\Local\Temp\ccH5r1pr.s:162    .text.startup.main:0000000000000058 .L0 
C:\Users\Duckb\AppData\Local\Temp\ccH5r1pr.s:165    .text.startup.main:0000000000000060 .L0 
C:\Users\Duckb\AppData\Local\Temp\ccH5r1pr.s:167    .text.startup.main:0000000000000062 .L0 
C:\Users\Duckb\AppData\Local\Temp\ccH5r1pr.s:172    .text.startup.main:0000000000000072 .L0 
C:\Users\Duckb\AppData\Local\Temp\ccH5r1pr.s:180    .text.startup.main:0000000000000088 .L0 
C:\Users\Duckb\AppData\Local\Temp\ccH5r1pr.s:99     .text.rtcInit:0000000000000094 .L0 
C:\Users\Duckb\AppData\Local\Temp\ccH5r1pr.s:183    .text.startup.main:0000000000000088 .L0 
                     .debug_frame:0000000000000000 .L0 
C:\Users\Duckb\AppData\Local\Temp\ccH5r1pr.s:86     .text.rtcInit:000000000000008e .L1
C:\Users\Duckb\AppData\Local\Temp\ccH5r1pr.s:155    .text.startup.main:0000000000000050 .L5
C:\Users\Duckb\AppData\Local\Temp\ccH5r1pr.s:2340   .debug_abbrev:0000000000000000 .Ldebug_abbrev0
C:\Users\Duckb\AppData\Local\Temp\ccH5r1pr.s:3479   .debug_str:00000000000006ee .LASF183
C:\Users\Duckb\AppData\Local\Temp\ccH5r1pr.s:3319   .debug_str:0000000000000387 .LASF184
C:\Users\Duckb\AppData\Local\Temp\ccH5r1pr.s:3385   .debug_str:00000000000004ea .LASF185
C:\Users\Duckb\AppData\Local\Temp\ccH5r1pr.s:3127   .debug_ranges:0000000000000000 .Ldebug_ranges0
C:\Users\Duckb\AppData\Local\Temp\ccH5r1pr.s:3135   .debug_line:0000000000000000 .Ldebug_line0
C:\Users\Duckb\AppData\Local\Temp\ccH5r1pr.s:3365   .debug_str:0000000000000480 .LASF0
C:\Users\Duckb\AppData\Local\Temp\ccH5r1pr.s:3461   .debug_str:0000000000000695 .LASF1
C:\Users\Duckb\AppData\Local\Temp\ccH5r1pr.s:3207   .debug_str:0000000000000172 .LASF2
C:\Users\Duckb\AppData\Local\Temp\ccH5r1pr.s:3391   .debug_str:0000000000000554 .LASF3
C:\Users\Duckb\AppData\Local\Temp\ccH5r1pr.s:3467   .debug_str:00000000000006b6 .LASF4
C:\Users\Duckb\AppData\Local\Temp\ccH5r1pr.s:3483   .debug_str:000000000000077f .LASF5
C:\Users\Duckb\AppData\Local\Temp\ccH5r1pr.s:3165   .debug_str:0000000000000087 .LASF6
C:\Users\Duckb\AppData\Local\Temp\ccH5r1pr.s:3263   .debug_str:0000000000000273 .LASF10
C:\Users\Duckb\AppData\Local\Temp\ccH5r1pr.s:3293   .debug_str:000000000000030e .LASF7
C:\Users\Duckb\AppData\Local\Temp\ccH5r1pr.s:3239   .debug_str:00000000000001ff .LASF8
C:\Users\Duckb\AppData\Local\Temp\ccH5r1pr.s:3173   .debug_str:00000000000000bb .LASF9
C:\Users\Duckb\AppData\Local\Temp\ccH5r1pr.s:3557   .debug_str:0000000000000906 .LASF11
C:\Users\Duckb\AppData\Local\Temp\ccH5r1pr.s:3283   .debug_str:00000000000002cb .LASF165
C:\Users\Duckb\AppData\Local\Temp\ccH5r1pr.s:3145   .debug_str:0000000000000027 .LASF12
C:\Users\Duckb\AppData\Local\Temp\ccH5r1pr.s:3209   .debug_str:000000000000017e .LASF13
C:\Users\Duckb\AppData\Local\Temp\ccH5r1pr.s:3203   .debug_str:0000000000000163 .LASF14
C:\Users\Duckb\AppData\Local\Temp\ccH5r1pr.s:3465   .debug_str:00000000000006ad .LASF15
C:\Users\Duckb\AppData\Local\Temp\ccH5r1pr.s:3237   .debug_str:00000000000001f5 .LASF16
C:\Users\Duckb\AppData\Local\Temp\ccH5r1pr.s:3373   .debug_str:00000000000004a8 .LASF17
C:\Users\Duckb\AppData\Local\Temp\ccH5r1pr.s:3375   .debug_str:00000000000004b3 .LASF18
C:\Users\Duckb\AppData\Local\Temp\ccH5r1pr.s:3377   .debug_str:00000000000004be .LASF19
C:\Users\Duckb\AppData\Local\Temp\ccH5r1pr.s:3379   .debug_str:00000000000004c9 .LASF20
C:\Users\Duckb\AppData\Local\Temp\ccH5r1pr.s:3381   .debug_str:00000000000004d4 .LASF21
C:\Users\Duckb\AppData\Local\Temp\ccH5r1pr.s:3383   .debug_str:00000000000004df .LASF22
C:\Users\Duckb\AppData\Local\Temp\ccH5r1pr.s:3477   .debug_str:00000000000006e4 .LASF23
C:\Users\Duckb\AppData\Local\Temp\ccH5r1pr.s:3141   .debug_str:0000000000000015 .LASF24
C:\Users\Duckb\AppData\Local\Temp\ccH5r1pr.s:3143   .debug_str:000000000000001e .LASF25
C:\Users\Duckb\AppData\Local\Temp\ccH5r1pr.s:3347   .debug_str:0000000000000412 .LASF26
C:\Users\Duckb\AppData\Local\Temp\ccH5r1pr.s:3349   .debug_str:000000000000041d .LASF27
C:\Users\Duckb\AppData\Local\Temp\ccH5r1pr.s:3175   .debug_str:00000000000000d2 .LASF28
C:\Users\Duckb\AppData\Local\Temp\ccH5r1pr.s:3177   .debug_str:00000000000000dc .LASF29
C:\Users\Duckb\AppData\Local\Temp\ccH5r1pr.s:3523   .debug_str:000000000000086e .LASF30
C:\Users\Duckb\AppData\Local\Temp\ccH5r1pr.s:3443   .debug_str:000000000000064a .LASF31
C:\Users\Duckb\AppData\Local\Temp\ccH5r1pr.s:3255   .debug_str:0000000000000256 .LASF32
GAS LISTING C:\Users\Duckb\AppData\Local\Temp\ccH5r1pr.s 			page 9


C:\Users\Duckb\AppData\Local\Temp\ccH5r1pr.s:3199   .debug_str:0000000000000153 .LASF33
C:\Users\Duckb\AppData\Local\Temp\ccH5r1pr.s:3449   .debug_str:0000000000000665 .LASF34
C:\Users\Duckb\AppData\Local\Temp\ccH5r1pr.s:3495   .debug_str:00000000000007c5 .LASF35
C:\Users\Duckb\AppData\Local\Temp\ccH5r1pr.s:3309   .debug_str:0000000000000358 .LASF36
C:\Users\Duckb\AppData\Local\Temp\ccH5r1pr.s:3301   .debug_str:0000000000000338 .LASF37
C:\Users\Duckb\AppData\Local\Temp\ccH5r1pr.s:3157   .debug_str:0000000000000063 .LASF38
C:\Users\Duckb\AppData\Local\Temp\ccH5r1pr.s:3181   .debug_str:00000000000000ef .LASF39
C:\Users\Duckb\AppData\Local\Temp\ccH5r1pr.s:3285   .debug_str:00000000000002db .LASF40
C:\Users\Duckb\AppData\Local\Temp\ccH5r1pr.s:3287   .debug_str:00000000000002e5 .LASF41
C:\Users\Duckb\AppData\Local\Temp\ccH5r1pr.s:3187   .debug_str:0000000000000109 .LASF42
C:\Users\Duckb\AppData\Local\Temp\ccH5r1pr.s:3191   .debug_str:0000000000000123 .LASF43
C:\Users\Duckb\AppData\Local\Temp\ccH5r1pr.s:3297   .debug_str:0000000000000326 .LASF44
C:\Users\Duckb\AppData\Local\Temp\ccH5r1pr.s:3299   .debug_str:000000000000032f .LASF45
C:\Users\Duckb\AppData\Local\Temp\ccH5r1pr.s:3371   .debug_str:000000000000049d .LASF46
C:\Users\Duckb\AppData\Local\Temp\ccH5r1pr.s:3139   .debug_str:000000000000000c .LASF47
C:\Users\Duckb\AppData\Local\Temp\ccH5r1pr.s:3345   .debug_str:0000000000000407 .LASF48
C:\Users\Duckb\AppData\Local\Temp\ccH5r1pr.s:3259   .debug_str:0000000000000264 .LASF49
C:\Users\Duckb\AppData\Local\Temp\ccH5r1pr.s:3469   .debug_str:00000000000006c0 .LASF50
C:\Users\Duckb\AppData\Local\Temp\ccH5r1pr.s:3327   .debug_str:000000000000039f .LASF51
C:\Users\Duckb\AppData\Local\Temp\ccH5r1pr.s:3463   .debug_str:00000000000006a2 .LASF52
C:\Users\Duckb\AppData\Local\Temp\ccH5r1pr.s:3229   .debug_str:00000000000001d4 .LASF53
C:\Users\Duckb\AppData\Local\Temp\ccH5r1pr.s:3541   .debug_str:00000000000008c2 .LASF54
C:\Users\Duckb\AppData\Local\Temp\ccH5r1pr.s:3493   .debug_str:00000000000007b9 .LASF55
C:\Users\Duckb\AppData\Local\Temp\ccH5r1pr.s:3451   .debug_str:000000000000066e .LASF56
C:\Users\Duckb\AppData\Local\Temp\ccH5r1pr.s:3361   .debug_str:0000000000000461 .LASF57
C:\Users\Duckb\AppData\Local\Temp\ccH5r1pr.s:3163   .debug_str:0000000000000080 .LASF58
C:\Users\Duckb\AppData\Local\Temp\ccH5r1pr.s:3447   .debug_str:000000000000065d .LASF59
C:\Users\Duckb\AppData\Local\Temp\ccH5r1pr.s:3513   .debug_str:0000000000000837 .LASF60
C:\Users\Duckb\AppData\Local\Temp\ccH5r1pr.s:3317   .debug_str:0000000000000381 .LASF61
C:\Users\Duckb\AppData\Local\Temp\ccH5r1pr.s:3281   .debug_str:00000000000002c4 .LASF62
C:\Users\Duckb\AppData\Local\Temp\ccH5r1pr.s:3437   .debug_str:0000000000000634 .LASF63
C:\Users\Duckb\AppData\Local\Temp\ccH5r1pr.s:3439   .debug_str:000000000000063c .LASF64
C:\Users\Duckb\AppData\Local\Temp\ccH5r1pr.s:3409   .debug_str:00000000000005a1 .LASF65
C:\Users\Duckb\AppData\Local\Temp\ccH5r1pr.s:3491   .debug_str:00000000000007b1 .LASF66
C:\Users\Duckb\AppData\Local\Temp\ccH5r1pr.s:3337   .debug_str:00000000000003cd .LASF67
C:\Users\Duckb\AppData\Local\Temp\ccH5r1pr.s:3397   .debug_str:0000000000000571 .LASF68
C:\Users\Duckb\AppData\Local\Temp\ccH5r1pr.s:3273   .debug_str:00000000000002a7 .LASF73
C:\Users\Duckb\AppData\Local\Temp\ccH5r1pr.s:3473   .debug_str:00000000000006d1 .LASF69
C:\Users\Duckb\AppData\Local\Temp\ccH5r1pr.s:3431   .debug_str:000000000000061f .LASF70
C:\Users\Duckb\AppData\Local\Temp\ccH5r1pr.s:3265   .debug_str:000000000000027e .LASF71
C:\Users\Duckb\AppData\Local\Temp\ccH5r1pr.s:3509   .debug_str:000000000000082c .LASF72
C:\Users\Duckb\AppData\Local\Temp\ccH5r1pr.s:3279   .debug_str:00000000000002bf .LASF74
C:\Users\Duckb\AppData\Local\Temp\ccH5r1pr.s:3197   .debug_str:000000000000014a .LASF75
C:\Users\Duckb\AppData\Local\Temp\ccH5r1pr.s:3537   .debug_str:00000000000008b4 .LASF76
C:\Users\Duckb\AppData\Local\Temp\ccH5r1pr.s:3215   .debug_str:0000000000000195 .LASF77
C:\Users\Duckb\AppData\Local\Temp\ccH5r1pr.s:3559   .debug_str:000000000000090f .LASF78
C:\Users\Duckb\AppData\Local\Temp\ccH5r1pr.s:3339   .debug_str:00000000000003df .LASF79
C:\Users\Duckb\AppData\Local\Temp\ccH5r1pr.s:3331   .debug_str:00000000000003b0 .LASF80
C:\Users\Duckb\AppData\Local\Temp\ccH5r1pr.s:3445   .debug_str:0000000000000653 .LASF81
C:\Users\Duckb\AppData\Local\Temp\ccH5r1pr.s:3399   .debug_str:000000000000057a .LASF82
C:\Users\Duckb\AppData\Local\Temp\ccH5r1pr.s:3531   .debug_str:000000000000088b .LASF83
C:\Users\Duckb\AppData\Local\Temp\ccH5r1pr.s:3219   .debug_str:00000000000001a4 .LASF84
C:\Users\Duckb\AppData\Local\Temp\ccH5r1pr.s:3147   .debug_str:0000000000000030 .LASF85
C:\Users\Duckb\AppData\Local\Temp\ccH5r1pr.s:3137   .debug_str:0000000000000000 .LASF86
C:\Users\Duckb\AppData\Local\Temp\ccH5r1pr.s:3481   .debug_str:0000000000000776 .LASF87
C:\Users\Duckb\AppData\Local\Temp\ccH5r1pr.s:3233   .debug_str:00000000000001e6 .LASF88
C:\Users\Duckb\AppData\Local\Temp\ccH5r1pr.s:3351   .debug_str:0000000000000428 .LASF89
GAS LISTING C:\Users\Duckb\AppData\Local\Temp\ccH5r1pr.s 			page 10


C:\Users\Duckb\AppData\Local\Temp\ccH5r1pr.s:3421   .debug_str:00000000000005e0 .LASF90
C:\Users\Duckb\AppData\Local\Temp\ccH5r1pr.s:3261   .debug_str:000000000000026e .LASF91
C:\Users\Duckb\AppData\Local\Temp\ccH5r1pr.s:3401   .debug_str:0000000000000584 .LASF92
C:\Users\Duckb\AppData\Local\Temp\ccH5r1pr.s:3389   .debug_str:000000000000054e .LASF93
C:\Users\Duckb\AppData\Local\Temp\ccH5r1pr.s:3459   .debug_str:000000000000068f .LASF94
C:\Users\Duckb\AppData\Local\Temp\ccH5r1pr.s:3411   .debug_str:00000000000005ac .LASF95
C:\Users\Duckb\AppData\Local\Temp\ccH5r1pr.s:3231   .debug_str:00000000000001df .LASF96
C:\Users\Duckb\AppData\Local\Temp\ccH5r1pr.s:3295   .debug_str:0000000000000320 .LASF97
C:\Users\Duckb\AppData\Local\Temp\ccH5r1pr.s:3179   .debug_str:00000000000000e6 .LASF98
C:\Users\Duckb\AppData\Local\Temp\ccH5r1pr.s:3223   .debug_str:00000000000001ba .LASF99
C:\Users\Duckb\AppData\Local\Temp\ccH5r1pr.s:3275   .debug_str:00000000000002af .LASF100
C:\Users\Duckb\AppData\Local\Temp\ccH5r1pr.s:3329   .debug_str:00000000000003a9 .LASF101
C:\Users\Duckb\AppData\Local\Temp\ccH5r1pr.s:3441   .debug_str:0000000000000644 .LASF102
C:\Users\Duckb\AppData\Local\Temp\ccH5r1pr.s:3205   .debug_str:000000000000016b .LASF103
C:\Users\Duckb\AppData\Local\Temp\ccH5r1pr.s:3211   .debug_str:0000000000000187 .LASF104
C:\Users\Duckb\AppData\Local\Temp\ccH5r1pr.s:3525   .debug_str:0000000000000877 .LASF105
C:\Users\Duckb\AppData\Local\Temp\ccH5r1pr.s:3457   .debug_str:0000000000000686 .LASF106
C:\Users\Duckb\AppData\Local\Temp\ccH5r1pr.s:3249   .debug_str:000000000000022f .LASF107
C:\Users\Duckb\AppData\Local\Temp\ccH5r1pr.s:3303   .debug_str:0000000000000340 .LASF108
C:\Users\Duckb\AppData\Local\Temp\ccH5r1pr.s:3323   .debug_str:0000000000000393 .LASF109
C:\Users\Duckb\AppData\Local\Temp\ccH5r1pr.s:3413   .debug_str:00000000000005b4 .LASF110
C:\Users\Duckb\AppData\Local\Temp\ccH5r1pr.s:3403   .debug_str:000000000000058b .LASF111
C:\Users\Duckb\AppData\Local\Temp\ccH5r1pr.s:3433   .debug_str:0000000000000627 .LASF112
C:\Users\Duckb\AppData\Local\Temp\ccH5r1pr.s:3453   .debug_str:000000000000067a .LASF113
C:\Users\Duckb\AppData\Local\Temp\ccH5r1pr.s:3235   .debug_str:00000000000001ee .LASF114
C:\Users\Duckb\AppData\Local\Temp\ccH5r1pr.s:3245   .debug_str:000000000000021f .LASF115
C:\Users\Duckb\AppData\Local\Temp\ccH5r1pr.s:3271   .debug_str:000000000000029f .LASF116
C:\Users\Duckb\AppData\Local\Temp\ccH5r1pr.s:3419   .debug_str:00000000000005db .LASF117
C:\Users\Duckb\AppData\Local\Temp\ccH5r1pr.s:3155   .debug_str:0000000000000058 .LASF118
C:\Users\Duckb\AppData\Local\Temp\ccH5r1pr.s:3427   .debug_str:00000000000005f7 .LASF119
C:\Users\Duckb\AppData\Local\Temp\ccH5r1pr.s:3423   .debug_str:00000000000005e5 .LASF120
C:\Users\Duckb\AppData\Local\Temp\ccH5r1pr.s:3357   .debug_str:0000000000000447 .LASF121
C:\Users\Duckb\AppData\Local\Temp\ccH5r1pr.s:3425   .debug_str:00000000000005ed .LASF122
C:\Users\Duckb\AppData\Local\Temp\ccH5r1pr.s:3315   .debug_str:0000000000000379 .LASF123
C:\Users\Duckb\AppData\Local\Temp\ccH5r1pr.s:3277   .debug_str:00000000000002b5 .LASF124
C:\Users\Duckb\AppData\Local\Temp\ccH5r1pr.s:3549   .debug_str:00000000000008ef .LASF125
C:\Users\Duckb\AppData\Local\Temp\ccH5r1pr.s:3367   .debug_str:0000000000000486 .LASF126
C:\Users\Duckb\AppData\Local\Temp\ccH5r1pr.s:3291   .debug_str:0000000000000306 .LASF127
C:\Users\Duckb\AppData\Local\Temp\ccH5r1pr.s:3247   .debug_str:0000000000000227 .LASF128
C:\Users\Duckb\AppData\Local\Temp\ccH5r1pr.s:3321   .debug_str:000000000000038e .LASF129
C:\Users\Duckb\AppData\Local\Temp\ccH5r1pr.s:3161   .debug_str:0000000000000077 .LASF130
C:\Users\Duckb\AppData\Local\Temp\ccH5r1pr.s:3517   .debug_str:000000000000084a .LASF131
C:\Users\Duckb\AppData\Local\Temp\ccH5r1pr.s:3225   .debug_str:00000000000001c2 .LASF132
C:\Users\Duckb\AppData\Local\Temp\ccH5r1pr.s:3217   .debug_str:000000000000019f .LASF133
C:\Users\Duckb\AppData\Local\Temp\ccH5r1pr.s:3455   .debug_str:0000000000000681 .LASF134
C:\Users\Duckb\AppData\Local\Temp\ccH5r1pr.s:3407   .debug_str:000000000000059a .LASF135
C:\Users\Duckb\AppData\Local\Temp\ccH5r1pr.s:3511   .debug_str:0000000000000831 .LASF136
C:\Users\Duckb\AppData\Local\Temp\ccH5r1pr.s:3305   .debug_str:0000000000000346 .LASF137
C:\Users\Duckb\AppData\Local\Temp\ccH5r1pr.s:3393   .debug_str:0000000000000562 .LASF138
C:\Users\Duckb\AppData\Local\Temp\ccH5r1pr.s:3151   .debug_str:0000000000000043 .LASF139
C:\Users\Duckb\AppData\Local\Temp\ccH5r1pr.s:3435   .debug_str:000000000000062e .LASF140
C:\Users\Duckb\AppData\Local\Temp\ccH5r1pr.s:3325   .debug_str:0000000000000399 .LASF141
C:\Users\Duckb\AppData\Local\Temp\ccH5r1pr.s:3487   .debug_str:00000000000007a5 .LASF142
C:\Users\Duckb\AppData\Local\Temp\ccH5r1pr.s:3503   .debug_str:00000000000007ff .LASF143
C:\Users\Duckb\AppData\Local\Temp\ccH5r1pr.s:3475   .debug_str:00000000000006d7 .LASF144
C:\Users\Duckb\AppData\Local\Temp\ccH5r1pr.s:3313   .debug_str:000000000000036c .LASF145
C:\Users\Duckb\AppData\Local\Temp\ccH5r1pr.s:3533   .debug_str:0000000000000896 .LASF146
GAS LISTING C:\Users\Duckb\AppData\Local\Temp\ccH5r1pr.s 			page 11


C:\Users\Duckb\AppData\Local\Temp\ccH5r1pr.s:3359   .debug_str:0000000000000452 .LASF147
C:\Users\Duckb\AppData\Local\Temp\ccH5r1pr.s:3307   .debug_str:000000000000034d .LASF148
C:\Users\Duckb\AppData\Local\Temp\ccH5r1pr.s:3539   .debug_str:00000000000008bd .LASF149
C:\Users\Duckb\AppData\Local\Temp\ccH5r1pr.s:3355   .debug_str:000000000000043a .LASF150
C:\Users\Duckb\AppData\Local\Temp\ccH5r1pr.s:3547   .debug_str:00000000000008e1 .LASF151
C:\Users\Duckb\AppData\Local\Temp\ccH5r1pr.s:3195   .debug_str:000000000000013c .LASF152
C:\Users\Duckb\AppData\Local\Temp\ccH5r1pr.s:3515   .debug_str:0000000000000840 .LASF153
C:\Users\Duckb\AppData\Local\Temp\ccH5r1pr.s:3311   .debug_str:0000000000000360 .LASF154
C:\Users\Duckb\AppData\Local\Temp\ccH5r1pr.s:3159   .debug_str:000000000000006a .LASF155
C:\Users\Duckb\AppData\Local\Temp\ccH5r1pr.s:3253   .debug_str:0000000000000248 .LASF156
C:\Users\Duckb\AppData\Local\Temp\ccH5r1pr.s:3193   .debug_str:000000000000012d .LASF157
C:\Users\Duckb\AppData\Local\Temp\ccH5r1pr.s:3251   .debug_str:0000000000000237 .LASF158
C:\Users\Duckb\AppData\Local\Temp\ccH5r1pr.s:3167   .debug_str:0000000000000090 .LASF159
C:\Users\Duckb\AppData\Local\Temp\ccH5r1pr.s:3169   .debug_str:000000000000009f .LASF160
C:\Users\Duckb\AppData\Local\Temp\ccH5r1pr.s:3395   .debug_str:0000000000000568 .LASF161
C:\Users\Duckb\AppData\Local\Temp\ccH5r1pr.s:3343   .debug_str:0000000000000400 .LASF162
C:\Users\Duckb\AppData\Local\Temp\ccH5r1pr.s:3335   .debug_str:00000000000003c4 .LASF163
C:\Users\Duckb\AppData\Local\Temp\ccH5r1pr.s:3527   .debug_str:000000000000087d .LASF164
C:\Users\Duckb\AppData\Local\Temp\ccH5r1pr.s:3183   .debug_str:00000000000000f9 .LASF208
C:\Users\Duckb\AppData\Local\Temp\ccH5r1pr.s:3269   .debug_str:0000000000000293 .LASF166
C:\Users\Duckb\AppData\Local\Temp\ccH5r1pr.s:3499   .debug_str:00000000000007de .LASF167
C:\Users\Duckb\AppData\Local\Temp\ccH5r1pr.s:3353   .debug_str:0000000000000430 .LASF168
C:\Users\Duckb\AppData\Local\Temp\ccH5r1pr.s:3171   .debug_str:00000000000000b0 .LASF169
C:\Users\Duckb\AppData\Local\Temp\ccH5r1pr.s:3243   .debug_str:0000000000000218 .LASF170
C:\Users\Duckb\AppData\Local\Temp\ccH5r1pr.s:3497   .debug_str:00000000000007cd .LASF209
C:\Users\Duckb\AppData\Local\Temp\ccH5r1pr.s:3501   .debug_str:00000000000007f1 .LASF171
C:\Users\Duckb\AppData\Local\Temp\ccH5r1pr.s:3429   .debug_str:0000000000000610 .LASF172
C:\Users\Duckb\AppData\Local\Temp\ccH5r1pr.s:3189   .debug_str:0000000000000113 .LASF173
C:\Users\Duckb\AppData\Local\Temp\ccH5r1pr.s:3553   .debug_str:00000000000008f9 .LASF210
C:\Users\Duckb\AppData\Local\Temp\ccH5r1pr.s:104    .text.startup.main:0000000000000000 .LFB3
C:\Users\Duckb\AppData\Local\Temp\ccH5r1pr.s:181    .text.startup.main:0000000000000088 .LFE3
C:\Users\Duckb\AppData\Local\Temp\ccH5r1pr.s:3071   .debug_loc:0000000000000000 .LLST1
C:\Users\Duckb\AppData\Local\Temp\ccH5r1pr.s:3185   .debug_str:0000000000000104 .LASF174
C:\Users\Duckb\AppData\Local\Temp\ccH5r1pr.s:3519   .debug_str:0000000000000854 .LASF175
C:\Users\Duckb\AppData\Local\Temp\ccH5r1pr.s:3543   .debug_str:00000000000008ce .LASF176
C:\Users\Duckb\AppData\Local\Temp\ccH5r1pr.s:3333   .debug_str:00000000000003ba .LASF177
C:\Users\Duckb\AppData\Local\Temp\ccH5r1pr.s:3241   .debug_str:000000000000020d .LASF178
C:\Users\Duckb\AppData\Local\Temp\ccH5r1pr.s:3507   .debug_str:000000000000081c .LASF179
C:\Users\Duckb\AppData\Local\Temp\ccH5r1pr.s:3529   .debug_str:0000000000000885 .LASF180
C:\Users\Duckb\AppData\Local\Temp\ccH5r1pr.s:3551   .debug_str:00000000000008f4 .LASF181
C:\Users\Duckb\AppData\Local\Temp\ccH5r1pr.s:3257   .debug_str:000000000000025f .LASF182
C:\Users\Duckb\AppData\Local\Temp\ccH5r1pr.s:125    .text.startup.main:000000000000000e .LVL14
C:\Users\Duckb\AppData\Local\Temp\ccH5r1pr.s:128    .text.startup.main:0000000000000016 .LVL15
C:\Users\Duckb\AppData\Local\Temp\ccH5r1pr.s:131    .text.startup.main:000000000000001e .LVL16
C:\Users\Duckb\AppData\Local\Temp\ccH5r1pr.s:134    .text.startup.main:0000000000000026 .LVL17
C:\Users\Duckb\AppData\Local\Temp\ccH5r1pr.s:138    .text.startup.main:0000000000000030 .LVL18
C:\Users\Duckb\AppData\Local\Temp\ccH5r1pr.s:142    .text.startup.main:000000000000003a .LVL19
C:\Users\Duckb\AppData\Local\Temp\ccH5r1pr.s:145    .text.startup.main:0000000000000042 .LVL20
C:\Users\Duckb\AppData\Local\Temp\ccH5r1pr.s:152    .text.startup.main:000000000000004e .LVL21
C:\Users\Duckb\AppData\Local\Temp\ccH5r1pr.s:159    .text.startup.main:0000000000000058 .LVL22
C:\Users\Duckb\AppData\Local\Temp\ccH5r1pr.s:163    .text.startup.main:0000000000000060 .LVL23
C:\Users\Duckb\AppData\Local\Temp\ccH5r1pr.s:168    .text.startup.main:000000000000006a .LVL24
C:\Users\Duckb\AppData\Local\Temp\ccH5r1pr.s:170    .text.startup.main:0000000000000072 .LVL25
C:\Users\Duckb\AppData\Local\Temp\ccH5r1pr.s:178    .text.startup.main:0000000000000086 .LVL26
C:\Users\Duckb\AppData\Local\Temp\ccH5r1pr.s:3555   .debug_str:00000000000008fe .LASF211
C:\Users\Duckb\AppData\Local\Temp\ccH5r1pr.s:14     .text.rtcInit:0000000000000000 .LFB2
C:\Users\Duckb\AppData\Local\Temp\ccH5r1pr.s:97     .text.rtcInit:0000000000000094 .LFE2
GAS LISTING C:\Users\Duckb\AppData\Local\Temp\ccH5r1pr.s 			page 12


C:\Users\Duckb\AppData\Local\Temp\ccH5r1pr.s:3084   .debug_loc:0000000000000020 .LLST0
C:\Users\Duckb\AppData\Local\Temp\ccH5r1pr.s:30     .text.rtcInit:0000000000000010 .LVL0
C:\Users\Duckb\AppData\Local\Temp\ccH5r1pr.s:33     .text.rtcInit:0000000000000018 .LVL1
C:\Users\Duckb\AppData\Local\Temp\ccH5r1pr.s:37     .text.rtcInit:0000000000000024 .LVL2
C:\Users\Duckb\AppData\Local\Temp\ccH5r1pr.s:40     .text.rtcInit:000000000000002c .LVL3
C:\Users\Duckb\AppData\Local\Temp\ccH5r1pr.s:45     .text.rtcInit:0000000000000036 .LVL4
C:\Users\Duckb\AppData\Local\Temp\ccH5r1pr.s:51     .text.rtcInit:0000000000000044 .LVL5
C:\Users\Duckb\AppData\Local\Temp\ccH5r1pr.s:56     .text.rtcInit:0000000000000052 .LVL6
C:\Users\Duckb\AppData\Local\Temp\ccH5r1pr.s:59     .text.rtcInit:000000000000005a .LVL7
C:\Users\Duckb\AppData\Local\Temp\ccH5r1pr.s:62     .text.rtcInit:0000000000000062 .LVL8
C:\Users\Duckb\AppData\Local\Temp\ccH5r1pr.s:67     .text.rtcInit:0000000000000070 .LVL9
C:\Users\Duckb\AppData\Local\Temp\ccH5r1pr.s:70     .text.rtcInit:0000000000000078 .LVL10
C:\Users\Duckb\AppData\Local\Temp\ccH5r1pr.s:74     .text.rtcInit:0000000000000082 .LVL11
C:\Users\Duckb\AppData\Local\Temp\ccH5r1pr.s:85     .text.rtcInit:000000000000008e .LVL12
C:\Users\Duckb\AppData\Local\Temp\ccH5r1pr.s:3489   .debug_str:00000000000007aa .LASF186
C:\Users\Duckb\AppData\Local\Temp\ccH5r1pr.s:3221   .debug_str:00000000000001b2 .LASF187
C:\Users\Duckb\AppData\Local\Temp\ccH5r1pr.s:3387   .debug_str:0000000000000546 .LASF188
C:\Users\Duckb\AppData\Local\Temp\ccH5r1pr.s:3213   .debug_str:000000000000018d .LASF189
C:\Users\Duckb\AppData\Local\Temp\ccH5r1pr.s:3505   .debug_str:000000000000080c .LASF190
C:\Users\Duckb\AppData\Local\Temp\ccH5r1pr.s:3417   .debug_str:00000000000005cf .LASF191
C:\Users\Duckb\AppData\Local\Temp\ccH5r1pr.s:3545   .debug_str:00000000000008d8 .LASF192
C:\Users\Duckb\AppData\Local\Temp\ccH5r1pr.s:3227   .debug_str:00000000000001ca .LASF193
C:\Users\Duckb\AppData\Local\Temp\ccH5r1pr.s:3369   .debug_str:0000000000000490 .LASF194
C:\Users\Duckb\AppData\Local\Temp\ccH5r1pr.s:3405   .debug_str:0000000000000593 .LASF195
C:\Users\Duckb\AppData\Local\Temp\ccH5r1pr.s:3201   .debug_str:000000000000015c .LASF196
C:\Users\Duckb\AppData\Local\Temp\ccH5r1pr.s:3471   .debug_str:00000000000006ca .LASF197
C:\Users\Duckb\AppData\Local\Temp\ccH5r1pr.s:3153   .debug_str:000000000000004b .LASF198
C:\Users\Duckb\AppData\Local\Temp\ccH5r1pr.s:3341   .debug_str:00000000000003e8 .LASF199
C:\Users\Duckb\AppData\Local\Temp\ccH5r1pr.s:3363   .debug_str:0000000000000468 .LASF200
C:\Users\Duckb\AppData\Local\Temp\ccH5r1pr.s:3149   .debug_str:0000000000000038 .LASF201
C:\Users\Duckb\AppData\Local\Temp\ccH5r1pr.s:3485   .debug_str:0000000000000792 .LASF202
C:\Users\Duckb\AppData\Local\Temp\ccH5r1pr.s:3521   .debug_str:0000000000000859 .LASF203
C:\Users\Duckb\AppData\Local\Temp\ccH5r1pr.s:3289   .debug_str:00000000000002ef .LASF204
C:\Users\Duckb\AppData\Local\Temp\ccH5r1pr.s:3535   .debug_str:00000000000008a5 .LASF205
C:\Users\Duckb\AppData\Local\Temp\ccH5r1pr.s:3415   .debug_str:00000000000005bd .LASF206
C:\Users\Duckb\AppData\Local\Temp\ccH5r1pr.s:3267   .debug_str:0000000000000284 .LASF207
C:\Users\Duckb\AppData\Local\Temp\ccH5r1pr.s:117    .text.startup.main:0000000000000002 .LCFI4
C:\Users\Duckb\AppData\Local\Temp\ccH5r1pr.s:21     .text.rtcInit:0000000000000002 .LCFI0
C:\Users\Duckb\AppData\Local\Temp\ccH5r1pr.s:81     .text.rtcInit:0000000000000086 .LCFI1
C:\Users\Duckb\AppData\Local\Temp\ccH5r1pr.s:87     .text.rtcInit:000000000000008e .LCFI2
C:\Users\Duckb\AppData\Local\Temp\ccH5r1pr.s:93     .text.rtcInit:0000000000000092 .LCFI3
C:\Users\Duckb\AppData\Local\Temp\ccH5r1pr.s:202    .debug_info:0000000000000000 .Ldebug_info0

UNDEFINED SYMBOLS
rcu_periph_clock_enable
pmu_backup_write_enable
bkp_deinit
rcu_osci_stab_wait
rcu_rtc_clock_config
rtc_register_sync_wait
rtc_lwoff_wait
rtc_prescaler_set
rtc_flag_clear
t5omsi
colinit
l88init
keyinit
GAS LISTING C:\Users\Duckb\AppData\Local\Temp\ccH5r1pr.s 			page 13


ADC3powerUpInit
Lcd_SetType
Lcd_Init
LCD_Clear
LCD_WR_Queue
t5expq
colset
l88row
LCD_ShowNum1
