GAS LISTING C:\Users\Duckb\AppData\Local\Temp\ccr5VLZp.s 			page 1


   1              		.file	"main.c"
   2              		.option nopic
   3              		.attribute arch, "rv32i2p0_m2p0_a2p0_c2p0"
   4              		.attribute unaligned_access, 0
   5              		.attribute stack_align, 16
   6              		.text
   7              	.Ltext0:
   8              		.cfi_sections	.debug_frame
   9              		.section	.text.rtcInit,"ax",@progbits
  10              		.align	1
  11              		.globl	rtcInit
  13              	rtcInit:
  14              	.LFB2:
  15              		.file 1 "main.c"
   1:main.c        **** #include "gd32vf103.h"
   2:main.c        **** #include "drivers.h"
   3:main.c        **** #include "adc.h"
   4:main.c        **** #include "lcd.h"
   5:main.c        **** #include "usart.h"
   6:main.c        **** #define EI 1
   7:main.c        **** #define DI 0
   8:main.c        **** 
   9:main.c        **** void rtcInit(void){
  16              		.loc 1 9 19
  17              		.cfi_startproc
  10:main.c        ****    // enable power managemenet unit - perhaps enabled by default
  11:main.c        ****    rcu_periph_clock_enable(RCU_PMU);
  18              		.loc 1 11 4
   9:main.c        ****    // enable power managemenet unit - perhaps enabled by default
  19              		.loc 1 9 19 is_stmt 0
  20 0000 4111     		addi	sp,sp,-16
  21              	.LCFI0:
  22              		.cfi_def_cfa_offset 16
  23              		.loc 1 11 4
  24 0002 1305C071 		li	a0,1820
   9:main.c        ****    // enable power managemenet unit - perhaps enabled by default
  25              		.loc 1 9 19
  26 0006 06C6     		sw	ra,12(sp)
  27              		.cfi_offset 1, -4
  28              		.loc 1 11 4
  29 0008 97000000 		call	rcu_periph_clock_enable
  29      E7800000 
  30              	.LVL0:
  12:main.c        ****    // enable write access to the registers in the backup domain
  13:main.c        ****    pmu_backup_write_enable();
  31              		.loc 1 13 4 is_stmt 1
  32 0010 97000000 		call	pmu_backup_write_enable
  32      E7800000 
  33              	.LVL1:
  14:main.c        ****    // enable backup domain
  15:main.c        ****    rcu_periph_clock_enable(RCU_BKPI);
  34              		.loc 1 15 4
  35 0018 1305B071 		li	a0,1819
  36 001c 97000000 		call	rcu_periph_clock_enable
  36      E7800000 
  37              	.LVL2:
  16:main.c        ****    // reset backup domain registers
GAS LISTING C:\Users\Duckb\AppData\Local\Temp\ccr5VLZp.s 			page 2


  17:main.c        ****    bkp_deinit();
  38              		.loc 1 17 4
  39 0024 97000000 		call	bkp_deinit
  39      E7800000 
  40              	.LVL3:
  18:main.c        ****    // set the results of a previous calibration procedure
  19:main.c        ****    // bkp_rtc_calibration_value_set(x);
  20:main.c        **** 
  21:main.c        ****    // setup RTC
  22:main.c        ****    // enable external low speed XO
  23:main.c        ****    //rcu_osci_on(RCU_LXTAL);
  24:main.c        ****    if (rcu_osci_stab_wait(RCU_HXTAL)) {
  41              		.loc 1 24 4
  42              		.loc 1 24 8 is_stmt 0
  43 002c 4145     		li	a0,16
  44 002e 97000000 		call	rcu_osci_stab_wait
  44      E7800000 
  45              	.LVL4:
  46              		.loc 1 24 7
  47 0036 21CD     		beq	a0,zero,.L1
  25:main.c        ****      // use external low speed oscillaotr, i.e. 32.768 kHz
  26:main.c        ****      rcu_rtc_clock_config(RCU_RTCSRC_HXTAL_DIV_128);
  48              		.loc 1 26 6 is_stmt 1
  49 0038 13050030 		li	a0,768
  50 003c 97000000 		call	rcu_rtc_clock_config
  50      E7800000 
  51              	.LVL5:
  27:main.c        ****      rcu_periph_clock_enable(RCU_RTC);
  52              		.loc 1 27 6
  53 0044 0565     		li	a0,4096
  54 0046 1305F580 		addi	a0,a0,-2033
  55 004a 97000000 		call	rcu_periph_clock_enable
  55      E7800000 
  56              	.LVL6:
  28:main.c        ****      // wait until shadow registers are synced from the backup domain
  29:main.c        ****      // over the APB bus
  30:main.c        ****      rtc_register_sync_wait();
  57              		.loc 1 30 6
  58 0052 97000000 		call	rtc_register_sync_wait
  58      E7800000 
  59              	.LVL7:
  31:main.c        ****      // wait until shadow register changes are synced over APB
  32:main.c        ****      // to the backup doamin
  33:main.c        ****      rtc_lwoff_wait();
  60              		.loc 1 33 6
  61 005a 97000000 		call	rtc_lwoff_wait
  61      E7800000 
  62              	.LVL8:
  34:main.c        ****      // prescale to 1 second
  35:main.c        ****      rtc_prescaler_set(62500 - 1);
  63              		.loc 1 35 6
  64 0062 3D65     		li	a0,61440
  65 0064 13053542 		addi	a0,a0,1059
  66 0068 97000000 		call	rtc_prescaler_set
  66      E7800000 
  67              	.LVL9:
  36:main.c        ****      rtc_lwoff_wait();
GAS LISTING C:\Users\Duckb\AppData\Local\Temp\ccr5VLZp.s 			page 3


  68              		.loc 1 36 6
  69 0070 97000000 		call	rtc_lwoff_wait
  69      E7800000 
  70              	.LVL10:
  37:main.c        ****      rtc_flag_clear(RTC_INT_FLAG_SECOND);
  71              		.loc 1 37 6
  72 0078 0545     		li	a0,1
  73 007a 97000000 		call	rtc_flag_clear
  73      E7800000 
  74              	.LVL11:
  38:main.c        ****      //rtc_interrupt_enable(RTC_INT_SECOND);
  39:main.c        ****      rtc_lwoff_wait();
  75              		.loc 1 39 6
  40:main.c        ****    }
  41:main.c        **** }
  76              		.loc 1 41 1 is_stmt 0
  77 0082 B240     		lw	ra,12(sp)
  78              		.cfi_remember_state
  79              		.cfi_restore 1
  80 0084 4101     		addi	sp,sp,16
  81              	.LCFI1:
  82              		.cfi_def_cfa_offset 0
  39:main.c        ****    }
  83              		.loc 1 39 6
  84 0086 17030000 		tail	rtc_lwoff_wait
  84      67000300 
  85              	.LVL12:
  86              	.L1:
  87              	.LCFI2:
  88              		.cfi_restore_state
  89              		.loc 1 41 1
  90 008e B240     		lw	ra,12(sp)
  91              		.cfi_restore 1
  92 0090 4101     		addi	sp,sp,16
  93              	.LCFI3:
  94              		.cfi_def_cfa_offset 0
  95 0092 8280     		jr	ra
  96              		.cfi_endproc
  97              	.LFE2:
  99              		.section	.text.startup.main,"ax",@progbits
 100              		.align	1
 101              		.globl	main
 103              	main:
 104              	.LFB3:
  42:main.c        **** 
  43:main.c        **** int main(void){
 105              		.loc 1 43 15 is_stmt 1
 106              		.cfi_startproc
  44:main.c        ****     int ms=0, s=0, key, pKey=-1, c=0, idle=0, rtc, hh, mm, ss;
 107              		.loc 1 44 5
 108              	.LVL13:
  45:main.c        ****     int lookUpTbl[16]={1,4,7,14,2,5,8,0,3,6,9,15,10,11,12,13};
 109              		.loc 1 45 5
  43:main.c        ****     int ms=0, s=0, key, pKey=-1, c=0, idle=0, rtc, hh, mm, ss;
 110              		.loc 1 43 15 is_stmt 0
 111 0000 7571     		addi	sp,sp,-144
 112              	.LCFI4:
GAS LISTING C:\Users\Duckb\AppData\Local\Temp\ccr5VLZp.s 			page 4


 113              		.cfi_def_cfa_offset 144
 114              		.loc 1 45 9
 115 0002 B7050000 		lui	a1,%hi(.LANCHOR0)
 116 0006 13060004 		li	a2,64
 117 000a 93850500 		addi	a1,a1,%lo(.LANCHOR0)
 118 000e 0810     		addi	a0,sp,32
  43:main.c        ****     int ms=0, s=0, key, pKey=-1, c=0, idle=0, rtc, hh, mm, ss;
 119              		.loc 1 43 15
 120 0010 06C7     		sw	ra,140(sp)
 121 0012 22C5     		sw	s0,136(sp)
 122 0014 26C3     		sw	s1,132(sp)
 123 0016 4AC1     		sw	s2,128(sp)
 124 0018 D2DC     		sw	s4,120(sp)
 125 001a D6DA     		sw	s5,116(sp)
 126 001c DAD8     		sw	s6,112(sp)
 127 001e CEDE     		sw	s3,124(sp)
 128 0020 DED6     		sw	s7,108(sp)
 129              		.cfi_offset 1, -4
 130              		.cfi_offset 8, -8
 131              		.cfi_offset 9, -12
 132              		.cfi_offset 18, -16
 133              		.cfi_offset 20, -24
 134              		.cfi_offset 21, -28
 135              		.cfi_offset 22, -32
 136              		.cfi_offset 19, -20
 137              		.cfi_offset 23, -36
 138              		.loc 1 45 9
 139 0022 97000000 		call	memcpy
 139      E7800000 
 140              	.LVL14:
  46:main.c        ****     int hexDigits[2] = {0}, currentDig=0;
 141              		.loc 1 46 5 is_stmt 1
  47:main.c        ****     int currentPosition[2] = {10, 0};
 142              		.loc 1 47 9 is_stmt 0
 143 002a A947     		li	a5,10
 144 002c 3ECC     		sw	a5,24(sp)
  46:main.c        ****     int hexDigits[2] = {0}, currentDig=0;
 145              		.loc 1 46 9
 146 002e 02C8     		sw	zero,16(sp)
 147 0030 02CA     		sw	zero,20(sp)
 148              	.LVL15:
 149              		.loc 1 47 5 is_stmt 1
 150              		.loc 1 47 9 is_stmt 0
 151 0032 02CE     		sw	zero,28(sp)
  48:main.c        ****     int dac=0, speed=-100;
 152              		.loc 1 48 5 is_stmt 1
 153              	.LVL16:
  49:main.c        ****     int adcr, tmpr;
 154              		.loc 1 49 5
  50:main.c        ****     //char time[7]={0};
  51:main.c        **** 
  52:main.c        ****     t5omsi();                               // Initialize timer5 1kHz
 155              		.loc 1 52 5
 156 0034 97000000 		call	t5omsi
 156      E7800000 
 157              	.LVL17:
  53:main.c        ****     colinit();                              // Initialize column toolbox
GAS LISTING C:\Users\Duckb\AppData\Local\Temp\ccr5VLZp.s 			page 5


 158              		.loc 1 53 5
 159 003c 97000000 		call	colinit
 159      E7800000 
 160              	.LVL18:
  54:main.c        ****     l88init();                              // Initialize 8*8 led toolbox
 161              		.loc 1 54 5
 162 0044 97000000 		call	l88init
 162      E7800000 
 163              	.LVL19:
  55:main.c        ****     keyinit();                              // Initialize keyboard toolbox
 164              		.loc 1 55 5
 165 004c 97000000 		call	keyinit
 165      E7800000 
 166              	.LVL20:
  56:main.c        ****     ADC3powerUpInit(1);                     // Initialize ADC0, Ch3
 167              		.loc 1 56 5
 168 0054 0545     		li	a0,1
 169 0056 97000000 		call	ADC3powerUpInit
 169      E7800000 
 170              	.LVL21:
  57:main.c        ****     Lcd_SetType(LCD_NORMAL);//NORMAL);                // or use LCD_INVERTED!
 171              		.loc 1 57 5
 172 005e 0145     		li	a0,0
 173 0060 97000000 		call	Lcd_SetType
 173      E7800000 
 174              	.LVL22:
  58:main.c        ****     Lcd_Init();
 175              		.loc 1 58 5
 176 0068 97000000 		call	Lcd_Init
 176      E7800000 
 177              	.LVL23:
  59:main.c        ****     LCD_Clear(BLACK);
 178              		.loc 1 59 5
 179 0070 0145     		li	a0,0
 180 0072 97000000 		call	LCD_Clear
 180      E7800000 
 181              	.LVL24:
  60:main.c        ****     //rtcInit();                              // Initialize RTC
  61:main.c        ****     //rtc_counter_set(3600+60+1);
  62:main.c        ****     u0init(EI);                             // Initialize USART0 toolbox
 182              		.loc 1 62 5
 183 007a 0545     		li	a0,1
  63:main.c        **** 
  64:main.c        ****     eclic_global_interrupt_enable();        // !!! INTERRUPT ENABLED !!!
  65:main.c        **** 
  66:main.c        ****     while (1) {
  67:main.c        ****         idle++;                             // Manage Async events
  68:main.c        ****         LCD_WR_Queue();                     // Manage LCD com queue!
  69:main.c        ****         //u0_TX_Queue();                      // Manage U(S)ART TX Queue!
  70:main.c        ****         if (adc_flag_get(ADC0,ADC_FLAG_EOC)==SET) { // ...ADC done?
 184              		.loc 1 70 13 is_stmt 0
 185 007c 37240140 		li	s0,1073815552
  71:main.c        ****           if (adc_flag_get(ADC0,ADC_FLAG_EOIC)==SET) { //...ch3 or ch16?
  72:main.c        ****             tmpr = adc_inserted_data_read(ADC0, ADC_INSERTED_CHANNEL_0);
  73:main.c        ****             //l88mem(6,((0x680-tmpr)/5)+25);
  74:main.c        ****             // usart_data_transmit(USART0, ((0x680-tmpr)/5)+25); // USRAT0 TX!
  75:main.c        ****             adc_flag_clear(ADC0, ADC_FLAG_EOC);
GAS LISTING C:\Users\Duckb\AppData\Local\Temp\ccr5VLZp.s 			page 6


  76:main.c        ****             adc_flag_clear(ADC0, ADC_FLAG_EOIC);
  77:main.c        ****           } else {
  78:main.c        ****             adcr = adc_regular_data_read(ADC0); // ......get data
  79:main.c        **** 
  80:main.c        ****             adc_flag_clear(ADC0, ADC_FLAG_EOC); // ......clear IF
  81:main.c        ****           }
  82:main.c        ****         }
  83:main.c        ****         if (usart_flag_get(USART0,USART_FLAG_RBNE)){ // USART0 RX?
 186              		.loc 1 83 13
 187 0080 B7440140 		li	s1,1073823744
  84:main.c        ****           // l88mem(6,usart_data_receive(USART0)); // Yes: Retrive & display!
  85:main.c        **** 
  86:main.c        ****           if(usart_data_receive(USART0) == 127){
  87:main.c        ****             LCD_DeleteChar(&currentPosition[0], &currentPosition[1], BLACK); 
  88:main.c        **** 
  89:main.c        ****           }else{
  90:main.c        **** 
  91:main.c        ****             LCD_ShowChar(currentPosition[0],currentPosition[1],usart_data_receive(USART0), OPAQUE, 
 188              		.loc 1 91 13
 189 0084 416B     		li	s6,65536
  62:main.c        **** 
 190              		.loc 1 62 5
 191 0086 97000000 		call	u0init
 191      E7800000 
 192              	.LVL25:
  64:main.c        **** 
 193              		.loc 1 64 5 is_stmt 1
  46:main.c        ****     int currentPosition[2] = {10, 0};
 194              		.loc 1 46 29 is_stmt 0
 195 008e 014A     		li	s4,0
  64:main.c        **** 
 196              		.loc 1 64 5
 197 0090 97000000 		call	eclic_global_interrupt_enable
 197      E7800000 
 198              	.LVL26:
  44:main.c        ****     int lookUpTbl[16]={1,4,7,14,2,5,8,0,3,6,9,15,10,11,12,13};
 199              		.loc 1 44 15
 200 0098 814A     		li	s5,0
  44:main.c        ****     int lookUpTbl[16]={1,4,7,14,2,5,8,0,3,6,9,15,10,11,12,13};
 201              		.loc 1 44 9
 202 009a 0149     		li	s2,0
  70:main.c        ****           if (adc_flag_get(ADC0,ADC_FLAG_EOIC)==SET) { //...ch3 or ch16?
 203              		.loc 1 70 13
 204 009c 13040440 		addi	s0,s0,1024
  83:main.c        ****           // l88mem(6,usart_data_receive(USART0)); // Yes: Retrive & display!
 205              		.loc 1 83 13
 206 00a0 93840480 		addi	s1,s1,-2048
 207              		.loc 1 91 13
 208 00a4 7D1B     		addi	s6,s6,-1
 209              	.LVL27:
 210              	.L17:
  44:main.c        ****     int lookUpTbl[16]={1,4,7,14,2,5,8,0,3,6,9,15,10,11,12,13};
 211              		.loc 1 44 9
 212 00a6 8149     		li	s3,0
 213              	.LVL28:
 214              	.L11:
  66:main.c        ****         idle++;                             // Manage Async events
GAS LISTING C:\Users\Duckb\AppData\Local\Temp\ccr5VLZp.s 			page 7


 215              		.loc 1 66 5 is_stmt 1
  67:main.c        ****         LCD_WR_Queue();                     // Manage LCD com queue!
 216              		.loc 1 67 9
  68:main.c        ****         //u0_TX_Queue();                      // Manage U(S)ART TX Queue!
 217              		.loc 1 68 9 is_stmt 0
 218 00a8 97000000 		call	LCD_WR_Queue
 218      E7800000 
 219              	.LVL29:
  70:main.c        ****           if (adc_flag_get(ADC0,ADC_FLAG_EOIC)==SET) { //...ch3 or ch16?
 220              		.loc 1 70 13
 221 00b0 8945     		li	a1,2
 222 00b2 2285     		mv	a0,s0
 223 00b4 97000000 		call	adc_flag_get
 223      E7800000 
 224              	.LVL30:
  70:main.c        ****           if (adc_flag_get(ADC0,ADC_FLAG_EOIC)==SET) { //...ch3 or ch16?
 225              		.loc 1 70 12
 226 00bc 8547     		li	a5,1
  67:main.c        ****         LCD_WR_Queue();                     // Manage LCD com queue!
 227              		.loc 1 67 13
 228 00be 8509     		addi	s3,s3,1
 229              	.LVL31:
  68:main.c        ****         //u0_TX_Queue();                      // Manage U(S)ART TX Queue!
 230              		.loc 1 68 9 is_stmt 1
  70:main.c        ****           if (adc_flag_get(ADC0,ADC_FLAG_EOIC)==SET) { //...ch3 or ch16?
 231              		.loc 1 70 9
  70:main.c        ****           if (adc_flag_get(ADC0,ADC_FLAG_EOIC)==SET) { //...ch3 or ch16?
 232              		.loc 1 70 13 is_stmt 0
 233 00c0 AA8B     		mv	s7,a0
  70:main.c        ****           if (adc_flag_get(ADC0,ADC_FLAG_EOIC)==SET) { //...ch3 or ch16?
 234              		.loc 1 70 12
 235 00c2 631CF502 		bne	a0,a5,.L5
  71:main.c        ****             tmpr = adc_inserted_data_read(ADC0, ADC_INSERTED_CHANNEL_0);
 236              		.loc 1 71 11 is_stmt 1
  71:main.c        ****             tmpr = adc_inserted_data_read(ADC0, ADC_INSERTED_CHANNEL_0);
 237              		.loc 1 71 15 is_stmt 0
 238 00c6 9145     		li	a1,4
 239 00c8 2285     		mv	a0,s0
 240 00ca 97000000 		call	adc_flag_get
 240      E7800000 
 241              	.LVL32:
  71:main.c        ****             tmpr = adc_inserted_data_read(ADC0, ADC_INSERTED_CHANNEL_0);
 242              		.loc 1 71 14
 243 00d2 631A750D 		bne	a0,s7,.L6
  72:main.c        ****             //l88mem(6,((0x680-tmpr)/5)+25);
 244              		.loc 1 72 13 is_stmt 1
  72:main.c        ****             //l88mem(6,((0x680-tmpr)/5)+25);
 245              		.loc 1 72 20 is_stmt 0
 246 00d6 8145     		li	a1,0
 247 00d8 2285     		mv	a0,s0
 248 00da 97000000 		call	adc_inserted_data_read
 248      E7800000 
 249              	.LVL33:
  75:main.c        ****             adc_flag_clear(ADC0, ADC_FLAG_EOIC);
 250              		.loc 1 75 13 is_stmt 1
 251 00e2 8945     		li	a1,2
 252 00e4 2285     		mv	a0,s0
GAS LISTING C:\Users\Duckb\AppData\Local\Temp\ccr5VLZp.s 			page 8


 253 00e6 97000000 		call	adc_flag_clear
 253      E7800000 
 254              	.LVL34:
  76:main.c        ****           } else {
 255              		.loc 1 76 13
 256 00ee 9145     		li	a1,4
 257              	.L21:
  80:main.c        ****           }
 258              		.loc 1 80 13 is_stmt 0
 259 00f0 2285     		mv	a0,s0
 260 00f2 97000000 		call	adc_flag_clear
 260      E7800000 
 261              	.LVL35:
 262              	.L5:
  83:main.c        ****           // l88mem(6,usart_data_receive(USART0)); // Yes: Retrive & display!
 263              		.loc 1 83 9 is_stmt 1
  83:main.c        ****           // l88mem(6,usart_data_receive(USART0)); // Yes: Retrive & display!
 264              		.loc 1 83 13 is_stmt 0
 265 00fa 9545     		li	a1,5
 266 00fc 2685     		mv	a0,s1
 267 00fe 97000000 		call	usart_flag_get
 267      E7800000 
 268              	.LVL36:
  83:main.c        ****           // l88mem(6,usart_data_receive(USART0)); // Yes: Retrive & display!
 269              		.loc 1 83 12
 270 0106 0DC1     		beq	a0,zero,.L8
  86:main.c        ****             LCD_DeleteChar(&currentPosition[0], &currentPosition[1], BLACK); 
 271              		.loc 1 86 11 is_stmt 1
  86:main.c        ****             LCD_DeleteChar(&currentPosition[0], &currentPosition[1], BLACK); 
 272              		.loc 1 86 14 is_stmt 0
 273 0108 2685     		mv	a0,s1
 274 010a 97000000 		call	usart_data_receive
 274      E7800000 
 275              	.LVL37:
  86:main.c        ****             LCD_DeleteChar(&currentPosition[0], &currentPosition[1], BLACK); 
 276              		.loc 1 86 13
 277 0112 9307F007 		li	a5,127
 278 0116 631FF508 		bne	a0,a5,.L9
  87:main.c        **** 
 279              		.loc 1 87 13 is_stmt 1
 280 011a 0146     		li	a2,0
 281 011c 6C08     		addi	a1,sp,28
 282 011e 2808     		addi	a0,sp,24
 283 0120 97000000 		call	LCD_DeleteChar
 283      E7800000 
 284              	.LVL38:
 285              	.L8:
  92:main.c        ****             currentPosition[0] += 10;
  93:main.c        **** 
  94:main.c        ****             if(currentPosition[0] >= 150){
  95:main.c        ****               currentPosition[1] += 20;
  96:main.c        ****               currentPosition[0] = 10;
  97:main.c        ****             }
  98:main.c        **** 
  99:main.c        ****           }
 100:main.c        ****           
 101:main.c        ****         }
GAS LISTING C:\Users\Duckb\AppData\Local\Temp\ccr5VLZp.s 			page 9


 102:main.c        **** 
 103:main.c        ****         if (t5expq()) {                     // Manage periodic tasks
 286              		.loc 1 103 9
 287              		.loc 1 103 13 is_stmt 0
 288 0128 97000000 		call	t5expq
 288      E7800000 
 289              	.LVL39:
 290              		.loc 1 103 12
 291 0130 25DD     		beq	a0,zero,.L11
 104:main.c        ****             l88row(colset());               // ...8*8LED and Keyboard
 292              		.loc 1 104 13 is_stmt 1
 293 0132 97000000 		call	colset
 293      E7800000 
 294              	.LVL40:
 295 013a 97000000 		call	l88row
 295      E7800000 
 296              	.LVL41:
 105:main.c        ****             ms++;                           // ...One second heart beat
 297              		.loc 1 105 13
 298              		.loc 1 105 15 is_stmt 0
 299 0142 0509     		addi	s2,s2,1
 300              	.LVL42:
 106:main.c        ****             if (ms==1000){
 301              		.loc 1 106 13 is_stmt 1
 302              		.loc 1 106 16 is_stmt 0
 303 0144 9307803E 		li	a5,1000
 304 0148 631CF900 		bne	s2,a5,.L12
 107:main.c        ****               ms=0;
 305              		.loc 1 107 15 is_stmt 1
 306              	.LVL43:
 108:main.c        ****               l88mem(0,s++);
 307              		.loc 1 108 15
 308 014c 13891A00 		addi	s2,s5,1
 309              	.LVL44:
 310 0150 D685     		mv	a1,s5
 311 0152 0145     		li	a0,0
 312 0154 CA8A     		mv	s5,s2
 313 0156 97000000 		call	l88mem
 313      E7800000 
 314              	.LVL45:
 107:main.c        ****               ms=0;
 315              		.loc 1 107 17 is_stmt 0
 316 015e 0149     		li	s2,0
 317              	.LVL46:
 318              	.L12:
 109:main.c        ****               //LCD_ShowStr(10, 30, digits[s%10], WHITE, OPAQUE);
 110:main.c        ****               //LCD_ShowChar(10, 50, 0x7E, OPAQUE, WHITE);
 111:main.c        ****             }
 112:main.c        ****             if ((key=keyscan())>=0) {       // ...Any key pressed?
 319              		.loc 1 112 13 is_stmt 1
 320              		.loc 1 112 22 is_stmt 0
 321 0160 97000000 		call	keyscan
 321      E7800000 
 322              	.LVL47:
 323              		.loc 1 112 16
 324 0168 634A0508 		blt	a0,zero,.L13
 113:main.c        ****               hexDigits[currentDig] = lookUpTbl[key];
GAS LISTING C:\Users\Duckb\AppData\Local\Temp\ccr5VLZp.s 			page 10


 325              		.loc 1 113 15 is_stmt 1
 326              		.loc 1 113 37 is_stmt 0
 327 016c 9810     		addi	a4,sp,96
 328              		.loc 1 113 48
 329 016e 0A05     		slli	a0,a0,2
 330              	.LVL48:
 331              		.loc 1 113 37
 332 0170 93172A00 		slli	a5,s4,2
 333              		.loc 1 113 48
 334 0174 3A95     		add	a0,a4,a0
 335              		.loc 1 113 37
 336 0176 BA97     		add	a5,a4,a5
 337 0178 032705FC 		lw	a4,-64(a0)
 338 017c 23A8E7FA 		sw	a4,-80(a5)
 114:main.c        **** 
 115:main.c        ****               if(currentDig == 1){
 339              		.loc 1 115 15 is_stmt 1
 340 0180 C245     		lw	a1,16(sp)
 341              		.loc 1 115 17 is_stmt 0
 342 0182 63010A0A 		beq	s4,zero,.L14
 343              	.LBB2:
 116:main.c        **** 
 117:main.c        ****                 uint16_t total = hexDigits[0] + hexDigits[1];
 344              		.loc 1 117 17 is_stmt 1
 345              		.loc 1 117 47 is_stmt 0
 346 0186 D247     		lw	a5,20(sp)
 347              		.loc 1 117 26
 348 0188 BE95     		add	a1,a1,a5
 349 018a C205     		slli	a1,a1,16
 350 018c C181     		srli	a1,a1,16
 351              	.LVL49:
 118:main.c        ****                 
 119:main.c        ****                 if(total == 127){
 352              		.loc 1 119 17 is_stmt 1
 353              		.loc 1 119 19 is_stmt 0
 354 018e 9307F007 		li	a5,127
 355 0192 6390F506 		bne	a1,a5,.L15
 120:main.c        ****                   
 121:main.c        ****                   usart_data_transmit(USART0, 127);
 356              		.loc 1 121 19 is_stmt 1
 357 0196 9305F007 		li	a1,127
 358              	.LVL50:
 359              	.L22:
 122:main.c        ****                 }
 123:main.c        ****                 else if(total > 31){
 124:main.c        **** 
 125:main.c        ****                   usart_data_transmit(USART0, total);
 360              		.loc 1 125 19
 361 019a 2685     		mv	a0,s1
 362 019c 97000000 		call	usart_data_transmit
 362      E7800000 
 363              	.LVL51:
 364 01a4 91A8     		j	.L16
 365              	.LVL52:
 366              	.L6:
 367              	.LBE2:
  78:main.c        **** 
GAS LISTING C:\Users\Duckb\AppData\Local\Temp\ccr5VLZp.s 			page 11


 368              		.loc 1 78 13
  78:main.c        **** 
 369              		.loc 1 78 20 is_stmt 0
 370 01a6 2285     		mv	a0,s0
 371 01a8 97000000 		call	adc_regular_data_read
 371      E7800000 
 372              	.LVL53:
  80:main.c        ****           }
 373              		.loc 1 80 13 is_stmt 1
 374 01b0 8945     		li	a1,2
 375 01b2 3DBF     		j	.L21
 376              	.L9:
  91:main.c        ****             currentPosition[0] += 10;
 377              		.loc 1 91 13
 378 01b4 F245     		lw	a1,28(sp)
  91:main.c        ****             currentPosition[0] += 10;
 379              		.loc 1 91 64 is_stmt 0
 380 01b6 2685     		mv	a0,s1
  91:main.c        ****             currentPosition[0] += 10;
 381              		.loc 1 91 13
 382 01b8 E24B     		lw	s7,24(sp)
 383 01ba 2EC6     		sw	a1,12(sp)
  91:main.c        ****             currentPosition[0] += 10;
 384              		.loc 1 91 64
 385 01bc 97000000 		call	usart_data_receive
 385      E7800000 
 386              	.LVL54:
  91:main.c        ****             currentPosition[0] += 10;
 387              		.loc 1 91 13
 388 01c4 B245     		lw	a1,12(sp)
 389 01c6 5A87     		mv	a4,s6
 390 01c8 1376F50F 		andi	a2,a0,0xff
 391 01cc 8146     		li	a3,0
 392 01ce 5E85     		mv	a0,s7
 393 01d0 97000000 		call	LCD_ShowChar
 393      E7800000 
 394              	.LVL55:
  92:main.c        **** 
 395              		.loc 1 92 13 is_stmt 1
  92:main.c        **** 
 396              		.loc 1 92 32 is_stmt 0
 397 01d8 E247     		lw	a5,24(sp)
  94:main.c        ****               currentPosition[1] += 20;
 398              		.loc 1 94 15
 399 01da 13075009 		li	a4,149
  92:main.c        **** 
 400              		.loc 1 92 32
 401 01de A907     		addi	a5,a5,10
 402 01e0 3ECC     		sw	a5,24(sp)
  94:main.c        ****               currentPosition[1] += 20;
 403              		.loc 1 94 13 is_stmt 1
  94:main.c        ****               currentPosition[1] += 20;
 404              		.loc 1 94 15 is_stmt 0
 405 01e2 E353F7F4 		ble	a5,a4,.L8
  95:main.c        ****               currentPosition[0] = 10;
 406              		.loc 1 95 15 is_stmt 1
  95:main.c        ****               currentPosition[0] = 10;
GAS LISTING C:\Users\Duckb\AppData\Local\Temp\ccr5VLZp.s 			page 12


 407              		.loc 1 95 34 is_stmt 0
 408 01e6 F247     		lw	a5,28(sp)
 409 01e8 D107     		addi	a5,a5,20
 410 01ea 3ECE     		sw	a5,28(sp)
  96:main.c        ****             }
 411              		.loc 1 96 15 is_stmt 1
  96:main.c        ****             }
 412              		.loc 1 96 34 is_stmt 0
 413 01ec A947     		li	a5,10
 414 01ee 3ECC     		sw	a5,24(sp)
 415 01f0 25BF     		j	.L8
 416              	.LVL56:
 417              	.L15:
 418              	.LBB3:
 123:main.c        **** 
 419              		.loc 1 123 22 is_stmt 1
 123:main.c        **** 
 420              		.loc 1 123 24 is_stmt 0
 421 01f2 FD47     		li	a5,31
 422 01f4 E3E3B7FA 		bgtu	a1,a5,.L22
 423              	.LVL57:
 424              	.L16:
 425              	.LBE3:
 126:main.c        **** 
 127:main.c        **** 
 128:main.c        ****                 }
 129:main.c        ****                 
 130:main.c        ****                 
 131:main.c        ****                 
 132:main.c        **** 
 133:main.c        ****               }
 134:main.c        **** 
 135:main.c        ****               if(currentDig == 0){
 136:main.c        ****                 hexDigits[0] *= 16;
 137:main.c        ****               }
 138:main.c        **** 
 139:main.c        ****               currentDig++;
 426              		.loc 1 139 15 is_stmt 1
 140:main.c        **** 
 141:main.c        ****               currentDig %= 2;
 427              		.loc 1 141 15
 428              		.loc 1 141 26 is_stmt 0
 429 01f8 134A1A00 		xori	s4,s4,1
 430              	.LVL58:
 431              	.L13:
 142:main.c        ****             }
 143:main.c        ****             l88mem(2,idle>>8);              // ...Performance monitor
 432              		.loc 1 143 13 is_stmt 1
 433 01fc 93D58940 		srai	a1,s3,8
 434 0200 0945     		li	a0,2
 435 0202 97000000 		call	l88mem
 435      E7800000 
 436              	.LVL59:
 144:main.c        ****             l88mem(3,idle); idle=0;
 437              		.loc 1 144 13
 438 020a CE85     		mv	a1,s3
 439 020c 0D45     		li	a0,3
GAS LISTING C:\Users\Duckb\AppData\Local\Temp\ccr5VLZp.s 			page 13


 440 020e 97000000 		call	l88mem
 440      E7800000 
 441              	.LVL60:
 442              		.loc 1 144 29
 145:main.c        ****             adc_software_trigger_enable(ADC0, //Trigger another ADC conversion!
 443              		.loc 1 145 13
 444 0216 8545     		li	a1,1
 445 0218 2285     		mv	a0,s0
 446 021a 97000000 		call	adc_software_trigger_enable
 446      E7800000 
 447              	.LVL61:
 448 0222 51B5     		j	.L17
 449              	.LVL62:
 450              	.L14:
 135:main.c        ****                 hexDigits[0] *= 16;
 451              		.loc 1 135 15
 136:main.c        ****               }
 452              		.loc 1 136 17
 136:main.c        ****               }
 453              		.loc 1 136 30 is_stmt 0
 454 0224 9205     		slli	a1,a1,4
 455 0226 2EC8     		sw	a1,16(sp)
 456 0228 C1BF     		j	.L16
 457              		.cfi_endproc
 458              	.LFE3:
 460              		.section	.rodata
 461              		.align	2
 462              		.set	.LANCHOR0,. + 0
 463              	.LC0:
 464 0000 01000000 		.word	1
 465 0004 04000000 		.word	4
 466 0008 07000000 		.word	7
 467 000c 0E000000 		.word	14
 468 0010 02000000 		.word	2
 469 0014 05000000 		.word	5
 470 0018 08000000 		.word	8
 471 001c 00000000 		.word	0
 472 0020 03000000 		.word	3
 473 0024 06000000 		.word	6
 474 0028 09000000 		.word	9
 475 002c 0F000000 		.word	15
 476 0030 0A000000 		.word	10
 477 0034 0B000000 		.word	11
 478 0038 0C000000 		.word	12
 479 003c 0D000000 		.word	13
 480              		.text
 481              	.Letext0:
 482              		.file 2 "c:\\programming\\assembler\\toolchain-gd32v-v202-win\\toolchain-gd32v-v202-win\\compiler\
 483              		.file 3 "c:\\programming\\assembler\\toolchain-gd32v-v202-win\\toolchain-gd32v-v202-win\\compiler\
 484              		.file 4 "./../../firmware/GD32VF103_standard_peripheral/gd32vf103.h"
 485              		.file 5 "./../../firmware/GD32VF103_standard_peripheral/Include/gd32vf103_rcu.h"
 486              		.file 6 "./../../firmware/GD32VF103_standard_peripheral/Include/gd32vf103_usart.h"
 487              		.file 7 "c:\\programming\\assembler\\toolchain-gd32v-v202-win\\toolchain-gd32v-v202-win\\compiler\
 488              		.file 8 "c:\\programming\\assembler\\toolchain-gd32v-v202-win\\toolchain-gd32v-v202-win\\compiler\
 489              		.file 9 "c:\\programming\\assembler\\toolchain-gd32v-v202-win\\toolchain-gd32v-v202-win\\compiler\
 490              		.file 10 "c:\\programming\\assembler\\toolchain-gd32v-v202-win\\toolchain-gd32v-v202-win\\compiler
 491              		.file 11 "./../../firmware/GD32VF103_standard_peripheral/system_gd32vf103.h"
GAS LISTING C:\Users\Duckb\AppData\Local\Temp\ccr5VLZp.s 			page 14


 492              		.file 12 "c:\\programming\\assembler\\toolchain-gd32v-v202-win\\toolchain-gd32v-v202-win\\compiler
 493              		.file 13 "lcd.h"
 494              		.file 14 "drivers.h"
 495              		.file 15 "adc.h"
 496              		.file 16 "usart.h"
 497              		.file 17 "./../../firmware/GD32VF103_standard_peripheral/Include/gd32vf103_eclic.h"
 498              		.file 18 "./../../firmware/GD32VF103_standard_peripheral/Include/gd32vf103_adc.h"
 499              		.file 19 "./../../firmware/GD32VF103_standard_peripheral/Include/gd32vf103_pmu.h"
 500              		.file 20 "./../../firmware/GD32VF103_standard_peripheral/Include/gd32vf103_bkp.h"
 501              		.file 21 "./../../firmware/GD32VF103_standard_peripheral/Include/gd32vf103_rtc.h"
 502              		.file 22 "<built-in>"
GAS LISTING C:\Users\Duckb\AppData\Local\Temp\ccr5VLZp.s 			page 15

