GAS LISTING C:\Users\Duckb\AppData\Local\Temp\ccimqVQb.s 			page 1


   1              		.file	"main.c"
   2              		.option nopic
   3              		.attribute arch, "rv32i2p0_m2p0_a2p0_c2p0"
   4              		.attribute unaligned_access, 0
   5              		.attribute stack_align, 16
   6              		.text
   7              	.Ltext0:
   8              		.cfi_sections	.debug_frame
   9              		.section	.text.rtcInit,"ax",@progbits
  10              		.align	1
  11              		.globl	rtcInit
  13              	rtcInit:
  14              	.LFB2:
  15              		.file 1 "main.c"
   1:main.c        **** #include "gd32vf103.h"
   2:main.c        **** #include "drivers.h"
   3:main.c        **** #include "adc.h"
   4:main.c        **** #include "lcd.h"
   5:main.c        **** #include "usart.h"
   6:main.c        **** #define EI 1
   7:main.c        **** #define DI 0
   8:main.c        **** 
   9:main.c        **** void rtcInit(void){
  16              		.loc 1 9 19
  17              		.cfi_startproc
  10:main.c        ****    // enable power managemenet unit - perhaps enabled by default
  11:main.c        ****    rcu_periph_clock_enable(RCU_PMU);
  18              		.loc 1 11 4
   9:main.c        ****    // enable power managemenet unit - perhaps enabled by default
  19              		.loc 1 9 19 is_stmt 0
  20 0000 4111     		addi	sp,sp,-16
  21              	.LCFI0:
  22              		.cfi_def_cfa_offset 16
  23              		.loc 1 11 4
  24 0002 1305C071 		li	a0,1820
   9:main.c        ****    // enable power managemenet unit - perhaps enabled by default
  25              		.loc 1 9 19
  26 0006 06C6     		sw	ra,12(sp)
  27              		.cfi_offset 1, -4
  28              		.loc 1 11 4
  29 0008 97000000 		call	rcu_periph_clock_enable
  29      E7800000 
  30              	.LVL0:
  12:main.c        ****    // enable write access to the registers in the backup domain
  13:main.c        ****    pmu_backup_write_enable();
  31              		.loc 1 13 4 is_stmt 1
  32 0010 97000000 		call	pmu_backup_write_enable
  32      E7800000 
  33              	.LVL1:
  14:main.c        ****    // enable backup domain
  15:main.c        ****    rcu_periph_clock_enable(RCU_BKPI);
  34              		.loc 1 15 4
  35 0018 1305B071 		li	a0,1819
  36 001c 97000000 		call	rcu_periph_clock_enable
  36      E7800000 
  37              	.LVL2:
  16:main.c        ****    // reset backup domain registers
GAS LISTING C:\Users\Duckb\AppData\Local\Temp\ccimqVQb.s 			page 2


  17:main.c        ****    bkp_deinit();
  38              		.loc 1 17 4
  39 0024 97000000 		call	bkp_deinit
  39      E7800000 
  40              	.LVL3:
  18:main.c        ****    // set the results of a previous calibration procedure
  19:main.c        ****    // bkp_rtc_calibration_value_set(x);
  20:main.c        **** 
  21:main.c        ****    // setup RTC
  22:main.c        ****    // enable external low speed XO
  23:main.c        ****    //rcu_osci_on(RCU_LXTAL);
  24:main.c        ****    if (rcu_osci_stab_wait(RCU_HXTAL)) {
  41              		.loc 1 24 4
  42              		.loc 1 24 8 is_stmt 0
  43 002c 4145     		li	a0,16
  44 002e 97000000 		call	rcu_osci_stab_wait
  44      E7800000 
  45              	.LVL4:
  46              		.loc 1 24 7
  47 0036 21CD     		beq	a0,zero,.L1
  25:main.c        ****      // use external low speed oscillaotr, i.e. 32.768 kHz
  26:main.c        ****      rcu_rtc_clock_config(RCU_RTCSRC_HXTAL_DIV_128);
  48              		.loc 1 26 6 is_stmt 1
  49 0038 13050030 		li	a0,768
  50 003c 97000000 		call	rcu_rtc_clock_config
  50      E7800000 
  51              	.LVL5:
  27:main.c        ****      rcu_periph_clock_enable(RCU_RTC);
  52              		.loc 1 27 6
  53 0044 0565     		li	a0,4096
  54 0046 1305F580 		addi	a0,a0,-2033
  55 004a 97000000 		call	rcu_periph_clock_enable
  55      E7800000 
  56              	.LVL6:
  28:main.c        ****      // wait until shadow registers are synced from the backup domain
  29:main.c        ****      // over the APB bus
  30:main.c        ****      rtc_register_sync_wait();
  57              		.loc 1 30 6
  58 0052 97000000 		call	rtc_register_sync_wait
  58      E7800000 
  59              	.LVL7:
  31:main.c        ****      // wait until shadow register changes are synced over APB
  32:main.c        ****      // to the backup doamin
  33:main.c        ****      rtc_lwoff_wait();
  60              		.loc 1 33 6
  61 005a 97000000 		call	rtc_lwoff_wait
  61      E7800000 
  62              	.LVL8:
  34:main.c        ****      // prescale to 1 second
  35:main.c        ****      rtc_prescaler_set(62500 - 1);
  63              		.loc 1 35 6
  64 0062 3D65     		li	a0,61440
  65 0064 13053542 		addi	a0,a0,1059
  66 0068 97000000 		call	rtc_prescaler_set
  66      E7800000 
  67              	.LVL9:
  36:main.c        ****      rtc_lwoff_wait();
GAS LISTING C:\Users\Duckb\AppData\Local\Temp\ccimqVQb.s 			page 3


  68              		.loc 1 36 6
  69 0070 97000000 		call	rtc_lwoff_wait
  69      E7800000 
  70              	.LVL10:
  37:main.c        ****      rtc_flag_clear(RTC_INT_FLAG_SECOND);
  71              		.loc 1 37 6
  72 0078 0545     		li	a0,1
  73 007a 97000000 		call	rtc_flag_clear
  73      E7800000 
  74              	.LVL11:
  38:main.c        ****      //rtc_interrupt_enable(RTC_INT_SECOND);
  39:main.c        ****      rtc_lwoff_wait();
  75              		.loc 1 39 6
  40:main.c        ****    }
  41:main.c        **** }
  76              		.loc 1 41 1 is_stmt 0
  77 0082 B240     		lw	ra,12(sp)
  78              		.cfi_remember_state
  79              		.cfi_restore 1
  80 0084 4101     		addi	sp,sp,16
  81              	.LCFI1:
  82              		.cfi_def_cfa_offset 0
  39:main.c        ****    }
  83              		.loc 1 39 6
  84 0086 17030000 		tail	rtc_lwoff_wait
  84      67000300 
  85              	.LVL12:
  86              	.L1:
  87              	.LCFI2:
  88              		.cfi_restore_state
  89              		.loc 1 41 1
  90 008e B240     		lw	ra,12(sp)
  91              		.cfi_restore 1
  92 0090 4101     		addi	sp,sp,16
  93              	.LCFI3:
  94              		.cfi_def_cfa_offset 0
  95 0092 8280     		jr	ra
  96              		.cfi_endproc
  97              	.LFE2:
  99              		.section	.text.addToMessage,"ax",@progbits
 100              		.align	1
 101              		.globl	addToMessage
 103              	addToMessage:
 104              	.LFB3:
  42:main.c        **** 
  43:main.c        **** void addToMessage(int *message, int *currentPos, char *newChar, int charAmount)
  44:main.c        **** {
 105              		.loc 1 44 1 is_stmt 1
 106              		.cfi_startproc
 107              	.LVL13:
  45:main.c        **** 
  46:main.c        ****   for (int i = 0; i < charAmount; i++)
 108              		.loc 1 46 3
 109              	.LBB2:
 110              		.loc 1 46 8
 111              		.loc 1 46 12 is_stmt 0
 112 0000 0147     		li	a4,0
GAS LISTING C:\Users\Duckb\AppData\Local\Temp\ccimqVQb.s 			page 4


 113              	.LVL14:
 114              	.L5:
 115              		.loc 1 46 3 discriminator 1
 116 0002 6343D700 		blt	a4,a3,.L6
 117              	.LBE2:
  47:main.c        ****   {
  48:main.c        ****     message[(*currentPos)++] = newChar[i];
  49:main.c        ****   }
  50:main.c        ****   
  51:main.c        **** }
 118              		.loc 1 51 1
 119 0006 8280     		ret
 120              	.L6:
 121              	.LBB3:
  48:main.c        ****   }
 122              		.loc 1 48 5 is_stmt 1 discriminator 3
  48:main.c        ****   }
 123              		.loc 1 48 39 is_stmt 0 discriminator 3
 124 0008 B307E600 		add	a5,a2,a4
 125 000c 03C80700 		lbu	a6,0(a5)
  48:main.c        ****   }
 126              		.loc 1 48 14 discriminator 3
 127 0010 9C41     		lw	a5,0(a1)
  46:main.c        ****   {
 128              		.loc 1 46 36 discriminator 3
 129 0012 0507     		addi	a4,a4,1
 130              	.LVL15:
  48:main.c        ****   }
 131              		.loc 1 48 26 discriminator 3
 132 0014 93881700 		addi	a7,a5,1
  48:main.c        ****   }
 133              		.loc 1 48 30 discriminator 3
 134 0018 8A07     		slli	a5,a5,2
  48:main.c        ****   }
 135              		.loc 1 48 26 discriminator 3
 136 001a 23A01501 		sw	a7,0(a1)
  48:main.c        ****   }
 137              		.loc 1 48 30 discriminator 3
 138 001e AA97     		add	a5,a0,a5
  48:main.c        ****   }
 139              		.loc 1 48 39 discriminator 3
 140 0020 23A00701 		sw	a6,0(a5)
 141 0024 F9BF     		j	.L5
 142              	.LBE3:
 143              		.cfi_endproc
 144              	.LFE3:
 146              		.section	.text.addToMessage2,"ax",@progbits
 147              		.align	1
 148              		.globl	addToMessage2
 150              	addToMessage2:
 151              	.LFB4:
  52:main.c        **** 
  53:main.c        **** 
  54:main.c        **** void addToMessage2(int *message, int *currentPos, int *newChar, int charAmount)
  55:main.c        **** {
 152              		.loc 1 55 1 is_stmt 1
 153              		.cfi_startproc
GAS LISTING C:\Users\Duckb\AppData\Local\Temp\ccimqVQb.s 			page 5


 154              	.LVL16:
  56:main.c        **** 
  57:main.c        ****   for (int i = 0; i < charAmount; i++)
 155              		.loc 1 57 3
 156              	.LBB4:
 157              		.loc 1 57 8
 158              		.loc 1 57 12 is_stmt 0
 159 0000 0147     		li	a4,0
 160              	.LVL17:
 161              	.L8:
 162              		.loc 1 57 3 discriminator 1
 163 0002 6343D700 		blt	a4,a3,.L9
 164              	.LBE4:
  58:main.c        ****   {
  59:main.c        ****     message[(*currentPos)++] = newChar[i];
  60:main.c        ****   }
  61:main.c        ****   
  62:main.c        **** }
 165              		.loc 1 62 1
 166 0006 8280     		ret
 167              	.L9:
 168              	.LBB5:
  59:main.c        ****   }
 169              		.loc 1 59 5 is_stmt 1 discriminator 3
  59:main.c        ****   }
 170              		.loc 1 59 14 is_stmt 0 discriminator 3
 171 0008 9C41     		lw	a5,0(a1)
  59:main.c        ****   }
 172              		.loc 1 59 26 discriminator 3
 173 000a 13881700 		addi	a6,a5,1
 174 000e 23A00501 		sw	a6,0(a1)
  59:main.c        ****   }
 175              		.loc 1 59 39 discriminator 3
 176 0012 13182700 		slli	a6,a4,2
 177 0016 3298     		add	a6,a2,a6
 178 0018 03280800 		lw	a6,0(a6)
  59:main.c        ****   }
 179              		.loc 1 59 30 discriminator 3
 180 001c 8A07     		slli	a5,a5,2
 181 001e AA97     		add	a5,a0,a5
 182 0020 23A00701 		sw	a6,0(a5)
  57:main.c        ****   {
 183              		.loc 1 57 36 discriminator 3
 184 0024 0507     		addi	a4,a4,1
 185              	.LVL18:
 186 0026 F1BF     		j	.L8
 187              	.LBE5:
 188              		.cfi_endproc
 189              	.LFE4:
 191              		.section	.text.startup.main,"ax",@progbits
 192              		.align	1
 193              		.globl	main
 195              	main:
 196              	.LFB5:
  63:main.c        **** 
  64:main.c        **** int main(void){
 197              		.loc 1 64 15 is_stmt 1
GAS LISTING C:\Users\Duckb\AppData\Local\Temp\ccimqVQb.s 			page 6


 198              		.cfi_startproc
  65:main.c        ****     int ms=0, s=0, key, pKey=-1, c=0, idle=0, rtc, hh, mm, ss;
 199              		.loc 1 65 5
 200              	.LVL19:
  66:main.c        ****     int lookUpTbl[16]={1,4,7,14,2,5,8,0,3,6,9,15,10,11,12,13};
 201              		.loc 1 66 5
  64:main.c        ****     int ms=0, s=0, key, pKey=-1, c=0, idle=0, rtc, hh, mm, ss;
 202              		.loc 1 64 15 is_stmt 0
 203 0000 7171     		addi	sp,sp,-176
 204              	.LCFI4:
 205              		.cfi_def_cfa_offset 176
 206              		.loc 1 66 9
 207 0002 B7050000 		lui	a1,%hi(.LANCHOR0)
 208 0006 13060004 		li	a2,64
 209 000a 93850500 		addi	a1,a1,%lo(.LANCHOR0)
 210 000e 8800     		addi	a0,sp,64
  64:main.c        ****     int ms=0, s=0, key, pKey=-1, c=0, idle=0, rtc, hh, mm, ss;
 211              		.loc 1 64 15
 212 0010 06D7     		sw	ra,172(sp)
 213 0012 22D5     		sw	s0,168(sp)
 214 0014 26D3     		sw	s1,164(sp)
 215 0016 4ECF     		sw	s3,156(sp)
 216 0018 52CD     		sw	s4,152(sp)
 217 001a 56CB     		sw	s5,148(sp)
 218 001c 5AC9     		sw	s6,144(sp)
 219 001e 5EC7     		sw	s7,140(sp)
 220 0020 62C5     		sw	s8,136(sp)
 221 0022 66C3     		sw	s9,132(sp)
 222 0024 4AD1     		sw	s2,160(sp)
 223 0026 6AC1     		sw	s10,128(sp)
 224              		.cfi_offset 1, -4
 225              		.cfi_offset 8, -8
 226              		.cfi_offset 9, -12
 227              		.cfi_offset 19, -20
 228              		.cfi_offset 20, -24
 229              		.cfi_offset 21, -28
 230              		.cfi_offset 22, -32
 231              		.cfi_offset 23, -36
 232              		.cfi_offset 24, -40
 233              		.cfi_offset 25, -44
 234              		.cfi_offset 18, -16
 235              		.cfi_offset 26, -48
 236              		.loc 1 66 9
 237 0028 97000000 		call	memcpy
 237      E7800000 
 238              	.LVL20:
  67:main.c        ****     int currentPos=0, currentMessage=0;
 239              		.loc 1 67 5 is_stmt 1
  68:main.c        **** 
  69:main.c        ****     int result[6] = {0};
 240              		.loc 1 69 9 is_stmt 0
 241 0030 6146     		li	a2,24
 242 0032 8145     		li	a1,0
 243 0034 0808     		addi	a0,sp,16
  67:main.c        ****     int currentPos=0, currentMessage=0;
 244              		.loc 1 67 9
 245 0036 02C0     		sw	zero,0(sp)
GAS LISTING C:\Users\Duckb\AppData\Local\Temp\ccimqVQb.s 			page 7


 246              	.LVL21:
 247              		.loc 1 69 5 is_stmt 1
 248              		.loc 1 69 9 is_stmt 0
 249 0038 97000000 		call	memset
 249      E7800000 
 250              	.LVL22:
  70:main.c        ****     
  71:main.c        ****     int message[6];
 251              		.loc 1 71 5 is_stmt 1
  72:main.c        ****     message[6] = '\n';
 252              		.loc 1 72 5
 253              		.loc 1 72 16 is_stmt 0
 254 0040 A947     		li	a5,10
 255 0042 BEC0     		sw	a5,64(sp)
  73:main.c        **** 
  74:main.c        ****     int analysis[3], currentAnalysis=0, startAnalysis=0;
 256              		.loc 1 74 5 is_stmt 1
 257              	.LVL23:
  75:main.c        ****     
  76:main.c        **** 
  77:main.c        ****     int currentX=10;
 258              		.loc 1 77 5
  78:main.c        ****     int dac=0, speed=-100;
 259              		.loc 1 78 5
  79:main.c        ****     int adcr, tmpr;
 260              		.loc 1 79 5
  80:main.c        ****     //char time[7]={0};
  81:main.c        **** 
  82:main.c        ****     t5omsi();                               // Initialize timer5 1kHz
 261              		.loc 1 82 5
 262 0044 97000000 		call	t5omsi
 262      E7800000 
 263              	.LVL24:
  83:main.c        ****     colinit();                              // Initialize column toolbox
 264              		.loc 1 83 5
 265 004c 97000000 		call	colinit
 265      E7800000 
 266              	.LVL25:
  84:main.c        ****     l88init();                              // Initialize 8*8 led toolbox
 267              		.loc 1 84 5
 268 0054 97000000 		call	l88init
 268      E7800000 
 269              	.LVL26:
  85:main.c        ****     keyinit();                              // Initialize keyboard toolbox
 270              		.loc 1 85 5
 271 005c 97000000 		call	keyinit
 271      E7800000 
 272              	.LVL27:
  86:main.c        ****     ADC3powerUpInit(1);                     // Initialize ADC0, Ch3
 273              		.loc 1 86 5
 274 0064 0545     		li	a0,1
 275 0066 97000000 		call	ADC3powerUpInit
 275      E7800000 
 276              	.LVL28:
  87:main.c        ****     Lcd_SetType(LCD_NORMAL);//NORMAL);                // or use LCD_INVERTED!
 277              		.loc 1 87 5
 278 006e 0145     		li	a0,0
GAS LISTING C:\Users\Duckb\AppData\Local\Temp\ccimqVQb.s 			page 8


 279 0070 97000000 		call	Lcd_SetType
 279      E7800000 
 280              	.LVL29:
  88:main.c        ****     Lcd_Init();
 281              		.loc 1 88 5
 282 0078 97000000 		call	Lcd_Init
 282      E7800000 
 283              	.LVL30:
  89:main.c        ****     LCD_Clear(BLACK);
 284              		.loc 1 89 5
 285 0080 0145     		li	a0,0
 286 0082 97000000 		call	LCD_Clear
 286      E7800000 
 287              	.LVL31:
  90:main.c        **** 
  91:main.c        **** 
  92:main.c        ****     // addToMessage(message, &currentPos, "ID-000", 6);
  93:main.c        **** 
  94:main.c        **** 
  95:main.c        ****     //rtcInit();                              // Initialize RTC
  96:main.c        ****     //rtc_counter_set(3600+60+1);
  97:main.c        ****     u0init(EI);                             // Initialize USART0 toolbox
 288              		.loc 1 97 5
 289 008a 0545     		li	a0,1
  98:main.c        ****     
  99:main.c        **** 
 100:main.c        ****     eclic_global_interrupt_enable();        // !!! INTERRUPT ENABLED !!!
 101:main.c        **** 
 102:main.c        ****     while (1) {
 103:main.c        ****         idle++;                             // Manage Async events
 104:main.c        ****         LCD_WR_Queue();                     // Manage LCD com queue!
 105:main.c        ****         //u0_TX_Queue();                      // Manage U(S)ART TX Queue!
 106:main.c        ****         if (adc_flag_get(ADC0,ADC_FLAG_EOC)==SET) { // ...ADC done?
 290              		.loc 1 106 13 is_stmt 0
 291 008c 37240140 		li	s0,1073815552
 107:main.c        ****           if (adc_flag_get(ADC0,ADC_FLAG_EOIC)==SET) { //...ch3 or ch16?
 108:main.c        ****             tmpr = adc_inserted_data_read(ADC0, ADC_INSERTED_CHANNEL_0);
 109:main.c        ****             l88mem(6,((0x680-tmpr)/5)+25);
 110:main.c        ****             // usart_data_transmit(USART0, ((0x680-tmpr)/5)+25); // USRAT0 TX!
 111:main.c        ****             adc_flag_clear(ADC0, ADC_FLAG_EOC);
 112:main.c        ****             adc_flag_clear(ADC0, ADC_FLAG_EOIC);
 113:main.c        ****           } else {
 114:main.c        ****             adcr = adc_regular_data_read(ADC0); // ......get data
 115:main.c        ****             // usart_data_transmit(USART0, adcr);
 116:main.c        **** 
 117:main.c        ****             adc_flag_clear(ADC0, ADC_FLAG_EOC); // ......clear IF
 118:main.c        ****             adc_software_trigger_enable(ADC0, ADC_REGULAR_CHANNEL);
 119:main.c        ****           }
 120:main.c        ****         }
 121:main.c        **** 
 122:main.c        **** 
 123:main.c        ****         if(usart_flag_get(USART0, USART_FLAG_RBNE)){
 292              		.loc 1 123 12
 293 0090 B7440140 		li	s1,1073823744
  97:main.c        ****     
 294              		.loc 1 97 5
 295 0094 97000000 		call	u0init
GAS LISTING C:\Users\Duckb\AppData\Local\Temp\ccimqVQb.s 			page 9


 295      E7800000 
 296              	.LVL32:
 100:main.c        **** 
 297              		.loc 1 100 5 is_stmt 1
  77:main.c        ****     int dac=0, speed=-100;
 298              		.loc 1 77 9 is_stmt 0
 299 009c A94B     		li	s7,10
 100:main.c        **** 
 300              		.loc 1 100 5
 301 009e 97000000 		call	eclic_global_interrupt_enable
 301      E7800000 
 302              	.LVL33:
  74:main.c        ****     
 303              		.loc 1 74 41
 304 00a6 814C     		li	s9,0
  74:main.c        ****     
 305              		.loc 1 74 22
 306 00a8 014B     		li	s6,0
  67:main.c        **** 
 307              		.loc 1 67 23
 308 00aa 014C     		li	s8,0
 106:main.c        ****           if (adc_flag_get(ADC0,ADC_FLAG_EOIC)==SET) { //...ch3 or ch16?
 309              		.loc 1 106 13
 310 00ac 13040440 		addi	s0,s0,1024
 109:main.c        ****             // usart_data_transmit(USART0, ((0x680-tmpr)/5)+25); // USRAT0 TX!
 311              		.loc 1 109 35
 312 00b0 9549     		li	s3,5
 313              		.loc 1 123 12
 314 00b2 93840480 		addi	s1,s1,-2048
 315              	.LBB6:
 124:main.c        **** 
 125:main.c        ****           if(usart_data_receive(USART0) == analysis[0]){
 126:main.c        ****             currentX+=10;
 127:main.c        ****           }
 128:main.c        **** 
 129:main.c        ****           LCD_ShowChar((currentX+=10), 30, usart_data_receive(USART0), OPAQUE, WHITE);
 130:main.c        ****         }
 131:main.c        **** 
 132:main.c        ****       
 133:main.c        ****         if (t5expq()) {                     // Manage periodic tasks
 134:main.c        ****             l88row(colset());               // ...8*8LED and Keyboard
 135:main.c        **** 
 136:main.c        **** 
 137:main.c        ****             if((key=keyscan()) >= 0){
 138:main.c        ****               
 139:main.c        ****               currentMessage = 0;
 140:main.c        ****               currentPos = 0;
 141:main.c        ****               currentX = 10;
 142:main.c        **** 
 143:main.c        ****               currentAnalysis=0;
 144:main.c        ****               startAnalysis=1;
 145:main.c        **** 
 146:main.c        ****               analysis[0] = 'O';
 147:main.c        ****               analysis[1] = 'K';
 148:main.c        ****               analysis[2] = '!';
 149:main.c        **** 
 150:main.c        ****               switch(lookUpTbl[key]){
GAS LISTING C:\Users\Duckb\AppData\Local\Temp\ccimqVQb.s 			page 10


 151:main.c        ****                 case 10:
 152:main.c        **** 
 153:main.c        ****                   // int result[6] = {0};
 154:main.c        ****                   result[0] = 'I';
 155:main.c        ****                   result[1] = 'D';
 156:main.c        **** 
 157:main.c        ****                   result[2] = '+'; //temp will most likely be positive
 158:main.c        ****                   if(((0x680-tmpr)/5)+25 < 0){
 159:main.c        ****                     result[2] = '-';
 160:main.c        ****                   }
 161:main.c        **** 
 162:main.c        ****             
 163:main.c        ****                   result[3] = '0';
 164:main.c        **** 
 165:main.c        ****                   int temp = ((0x680-tmpr)/5)+25;
 166:main.c        **** 
 167:main.c        ****                   result[4] = ((temp / 10) % 10) + 0x30;
 168:main.c        ****                   result[5] = (temp % 10) + 0x30;
 169:main.c        ****                    
 170:main.c        ****                   addToMessage2(message, &currentPos, result, 6);
 171:main.c        **** 
 172:main.c        ****                   
 173:main.c        ****                 break;
 174:main.c        ****                 case 11:
 175:main.c        ****                   addToMessage(message, &currentPos, "ID-000", 6);
 316              		.loc 1 175 19
 317 00b6 370A0000 		lui	s4,%hi(.LC1)
 176:main.c        ****                 break;
 177:main.c        ****                 case 12:
 178:main.c        ****                   addToMessage(message, &currentPos, "ID*000", 6);
 318              		.loc 1 178 19
 319 00ba B70A0000 		lui	s5,%hi(.LC2)
 320              	.LVL34:
 321              	.L11:
 322              	.LBE6:
 102:main.c        ****         idle++;                             // Manage Async events
 323              		.loc 1 102 5 is_stmt 1
 103:main.c        ****         LCD_WR_Queue();                     // Manage LCD com queue!
 324              		.loc 1 103 9
 104:main.c        ****         //u0_TX_Queue();                      // Manage U(S)ART TX Queue!
 325              		.loc 1 104 9
 326 00be 97000000 		call	LCD_WR_Queue
 326      E7800000 
 327              	.LVL35:
 106:main.c        ****           if (adc_flag_get(ADC0,ADC_FLAG_EOIC)==SET) { //...ch3 or ch16?
 328              		.loc 1 106 9
 106:main.c        ****           if (adc_flag_get(ADC0,ADC_FLAG_EOIC)==SET) { //...ch3 or ch16?
 329              		.loc 1 106 13 is_stmt 0
 330 00c6 8945     		li	a1,2
 331 00c8 2285     		mv	a0,s0
 332 00ca 97000000 		call	adc_flag_get
 332      E7800000 
 333              	.LVL36:
 106:main.c        ****           if (adc_flag_get(ADC0,ADC_FLAG_EOIC)==SET) { //...ch3 or ch16?
 334              		.loc 1 106 12
 335 00d2 8547     		li	a5,1
 106:main.c        ****           if (adc_flag_get(ADC0,ADC_FLAG_EOIC)==SET) { //...ch3 or ch16?
GAS LISTING C:\Users\Duckb\AppData\Local\Temp\ccimqVQb.s 			page 11


 336              		.loc 1 106 13
 337 00d4 2A8D     		mv	s10,a0
 106:main.c        ****           if (adc_flag_get(ADC0,ADC_FLAG_EOIC)==SET) { //...ch3 or ch16?
 338              		.loc 1 106 12
 339 00d6 6318F504 		bne	a0,a5,.L12
 107:main.c        ****             tmpr = adc_inserted_data_read(ADC0, ADC_INSERTED_CHANNEL_0);
 340              		.loc 1 107 11 is_stmt 1
 107:main.c        ****             tmpr = adc_inserted_data_read(ADC0, ADC_INSERTED_CHANNEL_0);
 341              		.loc 1 107 15 is_stmt 0
 342 00da 9145     		li	a1,4
 343 00dc 2285     		mv	a0,s0
 344 00de 97000000 		call	adc_flag_get
 344      E7800000 
 345              	.LVL37:
 107:main.c        ****             tmpr = adc_inserted_data_read(ADC0, ADC_INSERTED_CHANNEL_0);
 346              		.loc 1 107 14
 347 00e6 631EA517 		bne	a0,s10,.L13
 108:main.c        ****             l88mem(6,((0x680-tmpr)/5)+25);
 348              		.loc 1 108 13 is_stmt 1
 108:main.c        ****             l88mem(6,((0x680-tmpr)/5)+25);
 349              		.loc 1 108 20 is_stmt 0
 350 00ea 8145     		li	a1,0
 351 00ec 2285     		mv	a0,s0
 352 00ee 97000000 		call	adc_inserted_data_read
 352      E7800000 
 353              	.LVL38:
 109:main.c        ****             // usart_data_transmit(USART0, ((0x680-tmpr)/5)+25); // USRAT0 TX!
 354              		.loc 1 109 29
 355 00f6 93050068 		li	a1,1664
 356 00fa 898D     		sub	a1,a1,a0
 109:main.c        ****             // usart_data_transmit(USART0, ((0x680-tmpr)/5)+25); // USRAT0 TX!
 357              		.loc 1 109 35
 358 00fc B3C53503 		div	a1,a1,s3
 108:main.c        ****             l88mem(6,((0x680-tmpr)/5)+25);
 359              		.loc 1 108 20
 360 0100 2A89     		mv	s2,a0
 361              	.LVL39:
 109:main.c        ****             // usart_data_transmit(USART0, ((0x680-tmpr)/5)+25); // USRAT0 TX!
 362              		.loc 1 109 13 is_stmt 1
 363 0102 1945     		li	a0,6
 364              	.LVL40:
 365 0104 E505     		addi	a1,a1,25
 366 0106 97000000 		call	l88mem
 366      E7800000 
 367              	.LVL41:
 111:main.c        ****             adc_flag_clear(ADC0, ADC_FLAG_EOIC);
 368              		.loc 1 111 13
 369 010e 8945     		li	a1,2
 370 0110 2285     		mv	a0,s0
 371 0112 97000000 		call	adc_flag_clear
 371      E7800000 
 372              	.LVL42:
 112:main.c        ****           } else {
 373              		.loc 1 112 13
 374 011a 9145     		li	a1,4
 375 011c 2285     		mv	a0,s0
 376 011e 97000000 		call	adc_flag_clear
GAS LISTING C:\Users\Duckb\AppData\Local\Temp\ccimqVQb.s 			page 12


 376      E7800000 
 377              	.LVL43:
 378              	.L12:
 123:main.c        **** 
 379              		.loc 1 123 9
 123:main.c        **** 
 380              		.loc 1 123 12 is_stmt 0
 381 0126 9545     		li	a1,5
 382 0128 2685     		mv	a0,s1
 383 012a 97000000 		call	usart_flag_get
 383      E7800000 
 384              	.LVL44:
 123:main.c        **** 
 385              		.loc 1 123 11
 386 0132 1DC9     		beq	a0,zero,.L14
 125:main.c        ****             currentX+=10;
 387              		.loc 1 125 11 is_stmt 1
 125:main.c        ****             currentX+=10;
 388              		.loc 1 125 14 is_stmt 0
 389 0134 2685     		mv	a0,s1
 390 0136 97000000 		call	usart_data_receive
 390      E7800000 
 391              	.LVL45:
 125:main.c        ****             currentX+=10;
 392              		.loc 1 125 13
 393 013e 9247     		lw	a5,4(sp)
 394 0140 6313F500 		bne	a0,a5,.L15
 395 0144 A90B     		addi	s7,s7,10
 396              	.LVL46:
 397              	.L15:
 129:main.c        ****         }
 398              		.loc 1 129 11 is_stmt 1
 129:main.c        ****         }
 399              		.loc 1 129 44 is_stmt 0
 400 0146 2685     		mv	a0,s1
 401 0148 97000000 		call	usart_data_receive
 401      E7800000 
 402              	.LVL47:
 129:main.c        ****         }
 403              		.loc 1 129 33
 404 0150 A90B     		addi	s7,s7,10
 405              	.LVL48:
 129:main.c        ****         }
 406              		.loc 1 129 11
 407 0152 4167     		li	a4,65536
 408 0154 1376F50F 		andi	a2,a0,0xff
 409 0158 7D17     		addi	a4,a4,-1
 410 015a 8146     		li	a3,0
 411 015c F945     		li	a1,30
 412 015e 5E85     		mv	a0,s7
 413 0160 97000000 		call	LCD_ShowChar
 413      E7800000 
 414              	.LVL49:
 415              	.L14:
 133:main.c        ****             l88row(colset());               // ...8*8LED and Keyboard
 416              		.loc 1 133 9 is_stmt 1
 133:main.c        ****             l88row(colset());               // ...8*8LED and Keyboard
GAS LISTING C:\Users\Duckb\AppData\Local\Temp\ccimqVQb.s 			page 13


 417              		.loc 1 133 13 is_stmt 0
 418 0168 97000000 		call	t5expq
 418      E7800000 
 419              	.LVL50:
 133:main.c        ****             l88row(colset());               // ...8*8LED and Keyboard
 420              		.loc 1 133 12
 421 0170 39D5     		beq	a0,zero,.L11
 134:main.c        **** 
 422              		.loc 1 134 13 is_stmt 1
 423 0172 97000000 		call	colset
 423      E7800000 
 424              	.LVL51:
 425 017a 97000000 		call	l88row
 425      E7800000 
 426              	.LVL52:
 137:main.c        ****               
 427              		.loc 1 137 13
 137:main.c        ****               
 428              		.loc 1 137 21 is_stmt 0
 429 0182 97000000 		call	keyscan
 429      E7800000 
 430              	.LVL53:
 137:main.c        ****               
 431              		.loc 1 137 15
 432 018a 634F0508 		blt	a0,zero,.L17
 139:main.c        ****               currentPos = 0;
 433              		.loc 1 139 15 is_stmt 1
 434              	.LVL54:
 140:main.c        ****               currentX = 10;
 435              		.loc 1 140 15
 146:main.c        ****               analysis[1] = 'K';
 436              		.loc 1 146 27 is_stmt 0
 437 018e 9307F004 		li	a5,79
 438 0192 3EC2     		sw	a5,4(sp)
 147:main.c        ****               analysis[2] = '!';
 439              		.loc 1 147 27
 440 0194 9307B004 		li	a5,75
 441 0198 3EC4     		sw	a5,8(sp)
 148:main.c        **** 
 442              		.loc 1 148 27
 443 019a 93071002 		li	a5,33
 444 019e 3EC6     		sw	a5,12(sp)
 150:main.c        ****                 case 10:
 445              		.loc 1 150 31
 446 01a0 0A05     		slli	a0,a0,2
 447              	.LVL55:
 448 01a2 1C01     		addi	a5,sp,128
 449 01a4 3E95     		add	a0,a5,a0
 450 01a6 832705FC 		lw	a5,-64(a0)
 140:main.c        ****               currentX = 10;
 451              		.loc 1 140 26
 452 01aa 02C0     		sw	zero,0(sp)
 141:main.c        **** 
 453              		.loc 1 141 15 is_stmt 1
 454              	.LVL56:
 143:main.c        ****               startAnalysis=1;
 455              		.loc 1 143 15
GAS LISTING C:\Users\Duckb\AppData\Local\Temp\ccimqVQb.s 			page 14


 144:main.c        **** 
 456              		.loc 1 144 15
 146:main.c        ****               analysis[1] = 'K';
 457              		.loc 1 146 15
 147:main.c        ****               analysis[2] = '!';
 458              		.loc 1 147 15
 148:main.c        **** 
 459              		.loc 1 148 15
 150:main.c        ****                 case 10:
 460              		.loc 1 150 15
 461 01ac 2D47     		li	a4,11
 462 01ae 638FE70C 		beq	a5,a4,.L18
 463 01b2 3147     		li	a4,12
 464 01b4 6386E70E 		beq	a5,a4,.L19
 465 01b8 2947     		li	a4,10
 466 01ba 639EE704 		bne	a5,a4,.L20
 467              	.LBB7:
 154:main.c        ****                   result[1] = 'D';
 468              		.loc 1 154 19
 154:main.c        ****                   result[1] = 'D';
 469              		.loc 1 154 29 is_stmt 0
 470 01be 93079004 		li	a5,73
 471 01c2 3EC8     		sw	a5,16(sp)
 155:main.c        **** 
 472              		.loc 1 155 19 is_stmt 1
 155:main.c        **** 
 473              		.loc 1 155 29 is_stmt 0
 474 01c4 93074004 		li	a5,68
 475 01c8 3ECA     		sw	a5,20(sp)
 157:main.c        ****                   if(((0x680-tmpr)/5)+25 < 0){
 476              		.loc 1 157 19 is_stmt 1
 158:main.c        ****                     result[2] = '-';
 477              		.loc 1 158 19
 158:main.c        ****                     result[2] = '-';
 478              		.loc 1 158 29 is_stmt 0
 479 01ca 93070068 		li	a5,1664
 480 01ce B3872741 		sub	a5,a5,s2
 158:main.c        ****                     result[2] = '-';
 481              		.loc 1 158 21
 482 01d2 1307F0F7 		li	a4,-129
 483 01d6 63C8E70A 		blt	a5,a4,.L21
 157:main.c        ****                   if(((0x680-tmpr)/5)+25 < 0){
 484              		.loc 1 157 29
 485 01da 1307B002 		li	a4,43
 486              	.L35:
 165:main.c        **** 
 487              		.loc 1 165 43
 488 01de B3C73703 		div	a5,a5,s3
 167:main.c        ****                   result[5] = (temp % 10) + 0x30;
 489              		.loc 1 167 38
 490 01e2 A946     		li	a3,10
 159:main.c        ****                   }
 491              		.loc 1 159 31
 492 01e4 3ACC     		sw	a4,24(sp)
 163:main.c        **** 
 493              		.loc 1 163 19 is_stmt 1
 163:main.c        **** 
GAS LISTING C:\Users\Duckb\AppData\Local\Temp\ccimqVQb.s 			page 15


 494              		.loc 1 163 29 is_stmt 0
 495 01e6 13070003 		li	a4,48
 496 01ea 3ACE     		sw	a4,28(sp)
 165:main.c        **** 
 497              		.loc 1 165 19 is_stmt 1
 170:main.c        **** 
 498              		.loc 1 170 19 is_stmt 0
 499 01ec 1008     		addi	a2,sp,16
 500 01ee 8A85     		mv	a1,sp
 501 01f0 2810     		addi	a0,sp,40
 165:main.c        **** 
 502              		.loc 1 165 23
 503 01f2 E507     		addi	a5,a5,25
 504              	.LVL57:
 167:main.c        ****                   result[5] = (temp % 10) + 0x30;
 505              		.loc 1 167 19 is_stmt 1
 167:main.c        ****                   result[5] = (temp % 10) + 0x30;
 506              		.loc 1 167 38 is_stmt 0
 507 01f4 33C7D702 		div	a4,a5,a3
 168:main.c        ****                    
 508              		.loc 1 168 37
 509 01f8 B3E7D702 		rem	a5,a5,a3
 510              	.LVL58:
 167:main.c        ****                   result[5] = (temp % 10) + 0x30;
 511              		.loc 1 167 44
 512 01fc 3367D702 		rem	a4,a4,a3
 168:main.c        ****                    
 513              		.loc 1 168 43
 514 0200 93870703 		addi	a5,a5,48
 170:main.c        **** 
 515              		.loc 1 170 19
 516 0204 9946     		li	a3,6
 168:main.c        ****                    
 517              		.loc 1 168 29
 518 0206 3ED2     		sw	a5,36(sp)
 167:main.c        ****                   result[5] = (temp % 10) + 0x30;
 519              		.loc 1 167 50
 520 0208 13070703 		addi	a4,a4,48
 167:main.c        ****                   result[5] = (temp % 10) + 0x30;
 521              		.loc 1 167 29
 522 020c 3AD0     		sw	a4,32(sp)
 168:main.c        ****                    
 523              		.loc 1 168 19 is_stmt 1
 170:main.c        **** 
 524              		.loc 1 170 19
 525 020e 97000000 		call	addToMessage2
 525      E7800000 
 526              	.LVL59:
 173:main.c        ****                 case 11:
 527              		.loc 1 173 17
 528              	.L20:
 529              	.LBE7:
 179:main.c        ****                   analysis[0] = 'E';
 180:main.c        ****                   analysis[1] = 'R';
 181:main.c        ****                   analysis[2] = 'R';
 182:main.c        ****                 break;
 183:main.c        ****               }
GAS LISTING C:\Users\Duckb\AppData\Local\Temp\ccimqVQb.s 			page 16


 184:main.c        **** 
 185:main.c        ****               
 186:main.c        ****               LCD_Clear(BLACK);
 530              		.loc 1 186 15
 531 0216 0145     		li	a0,0
 532 0218 97000000 		call	LCD_Clear
 532      E7800000 
 533              	.LVL60:
 141:main.c        **** 
 534              		.loc 1 141 24 is_stmt 0
 535 0220 A94B     		li	s7,10
 144:main.c        **** 
 536              		.loc 1 144 28
 537 0222 854C     		li	s9,1
 143:main.c        ****               startAnalysis=1;
 538              		.loc 1 143 30
 539 0224 014B     		li	s6,0
 139:main.c        ****               currentPos = 0;
 540              		.loc 1 139 30
 541 0226 014C     		li	s8,0
 542              	.LVL61:
 543              	.L17:
 187:main.c        **** 
 188:main.c        ****             }
 189:main.c        **** 
 190:main.c        ****          
 191:main.c        ****             
 192:main.c        ****             
 193:main.c        **** 
 194:main.c        ****             
 195:main.c        ****             if(usart_flag_get(USART0, USART_FLAG_TBE) && message[currentMessage] != '\n'){
 544              		.loc 1 195 13 is_stmt 1
 545              		.loc 1 195 16 is_stmt 0
 546 0228 9D45     		li	a1,7
 547 022a 2685     		mv	a0,s1
 548 022c 97000000 		call	usart_flag_get
 548      E7800000 
 549              	.LVL62:
 550 0234 93172C00 		slli	a5,s8,2
 551              		.loc 1 195 65
 552 0238 1801     		addi	a4,sp,128
 553 023a BA97     		add	a5,a4,a5
 554              		.loc 1 195 15
 555 023c 59C1     		beq	a0,zero,.L23
 556              		.loc 1 195 65 discriminator 1
 557 023e 83A587FA 		lw	a1,-88(a5)
 558              		.loc 1 195 55 discriminator 1
 559 0242 A947     		li	a5,10
 560 0244 6384F508 		beq	a1,a5,.L24
 196:main.c        ****               usart_data_transmit(USART0, message[currentMessage++]);
 561              		.loc 1 196 15 is_stmt 1
 562 0248 2685     		mv	a0,s1
 563              		.loc 1 196 65 is_stmt 0
 564 024a 050C     		addi	s8,s8,1
 565              	.LVL63:
 566              		.loc 1 196 15
 567 024c 97000000 		call	usart_data_transmit
GAS LISTING C:\Users\Duckb\AppData\Local\Temp\ccimqVQb.s 			page 17


 567      E7800000 
 568              	.LVL64:
 569              	.L25:
 197:main.c        ****             }
 198:main.c        ****             else
 199:main.c        ****             {
 200:main.c        ****               if(message[currentMessage] == '\n' && currentAnalysis < 3 && startAnalysis==1){
 201:main.c        ****               
 202:main.c        ****                 usart_data_transmit(USART0, analysis[currentAnalysis]);
 203:main.c        ****                 currentAnalysis++;
 204:main.c        ****               
 205:main.c        ****               }
 206:main.c        **** 
 207:main.c        ****               if(currentAnalysis >= 3){
 208:main.c        ****                 startAnalysis=0;
 209:main.c        ****               }
 210:main.c        ****             }
 211:main.c        **** 
 212:main.c        **** 
 213:main.c        ****                
 214:main.c        **** 
 215:main.c        ****             
 216:main.c        ****                        
 217:main.c        ****             adc_software_trigger_enable(ADC0, //Trigger another ADC conversion!
 570              		.loc 1 217 13 is_stmt 1
 571 0254 8545     		li	a1,1
 572 0256 2285     		mv	a0,s0
 573 0258 97000000 		call	adc_software_trigger_enable
 573      E7800000 
 574              	.LVL65:
 575 0260 B9BD     		j	.L11
 576              	.L13:
 114:main.c        ****             // usart_data_transmit(USART0, adcr);
 577              		.loc 1 114 13
 114:main.c        ****             // usart_data_transmit(USART0, adcr);
 578              		.loc 1 114 20 is_stmt 0
 579 0262 2285     		mv	a0,s0
 580 0264 97000000 		call	adc_regular_data_read
 580      E7800000 
 581              	.LVL66:
 117:main.c        ****             adc_software_trigger_enable(ADC0, ADC_REGULAR_CHANNEL);
 582              		.loc 1 117 13 is_stmt 1
 583 026c 2285     		mv	a0,s0
 584 026e 8945     		li	a1,2
 585 0270 97000000 		call	adc_flag_clear
 585      E7800000 
 586              	.LVL67:
 118:main.c        ****           }
 587              		.loc 1 118 13
 588 0278 8545     		li	a1,1
 589 027a 2285     		mv	a0,s0
 590 027c 97000000 		call	adc_software_trigger_enable
 590      E7800000 
 591              	.LVL68:
 592 0284 4DB5     		j	.L12
 593              	.LVL69:
 594              	.L21:
GAS LISTING C:\Users\Duckb\AppData\Local\Temp\ccimqVQb.s 			page 18


 595              	.LBB8:
 159:main.c        ****                   }
 596              		.loc 1 159 21
 159:main.c        ****                   }
 597              		.loc 1 159 31 is_stmt 0
 598 0286 1307D002 		li	a4,45
 599 028a 91BF     		j	.L35
 600              	.L18:
 175:main.c        ****                 break;
 601              		.loc 1 175 19 is_stmt 1
 602 028c 9946     		li	a3,6
 603 028e 13060A00 		addi	a2,s4,%lo(.LC1)
 604 0292 8A85     		mv	a1,sp
 605 0294 2810     		addi	a0,sp,40
 606 0296 97000000 		call	addToMessage
 606      E7800000 
 607              	.LVL70:
 176:main.c        ****                 case 12:
 608              		.loc 1 176 17
 609 029e A5BF     		j	.L20
 610              	.L19:
 178:main.c        ****                   analysis[0] = 'E';
 611              		.loc 1 178 19
 612 02a0 9946     		li	a3,6
 613 02a2 13860A00 		addi	a2,s5,%lo(.LC2)
 614 02a6 8A85     		mv	a1,sp
 615 02a8 2810     		addi	a0,sp,40
 616 02aa 97000000 		call	addToMessage
 616      E7800000 
 617              	.LVL71:
 179:main.c        ****                   analysis[1] = 'R';
 618              		.loc 1 179 19
 179:main.c        ****                   analysis[1] = 'R';
 619              		.loc 1 179 31 is_stmt 0
 620 02b2 93075004 		li	a5,69
 621 02b6 3EC2     		sw	a5,4(sp)
 180:main.c        ****                   analysis[2] = 'R';
 622              		.loc 1 180 19 is_stmt 1
 180:main.c        ****                   analysis[2] = 'R';
 623              		.loc 1 180 31 is_stmt 0
 624 02b8 93072005 		li	a5,82
 625 02bc 3EC4     		sw	a5,8(sp)
 181:main.c        ****                 break;
 626              		.loc 1 181 19 is_stmt 1
 181:main.c        ****                 break;
 627              		.loc 1 181 31 is_stmt 0
 628 02be 3EC6     		sw	a5,12(sp)
 182:main.c        ****               }
 629              		.loc 1 182 17 is_stmt 1
 630 02c0 99BF     		j	.L20
 631              	.LVL72:
 632              	.L23:
 633              	.LBE8:
 200:main.c        ****               
 634              		.loc 1 200 15
 200:main.c        ****               
 635              		.loc 1 200 17 is_stmt 0
GAS LISTING C:\Users\Duckb\AppData\Local\Temp\ccimqVQb.s 			page 19


 636 02c2 03A787FA 		lw	a4,-88(a5)
 637 02c6 A947     		li	a5,10
 638 02c8 6313F702 		bne	a4,a5,.L26
 639              	.L24:
 200:main.c        ****               
 640              		.loc 1 200 50 discriminator 1
 641 02cc 8947     		li	a5,2
 642 02ce 63C36703 		bgt	s6,a5,.L27
 200:main.c        ****               
 643              		.loc 1 200 73 discriminator 2
 644 02d2 E3810CF8 		beq	s9,zero,.L25
 202:main.c        ****                 currentAnalysis++;
 645              		.loc 1 202 17 is_stmt 1
 202:main.c        ****                 currentAnalysis++;
 646              		.loc 1 202 53 is_stmt 0
 647 02d6 93172B00 		slli	a5,s6,2
 648 02da 1801     		addi	a4,sp,128
 649 02dc BA97     		add	a5,a4,a5
 202:main.c        ****                 currentAnalysis++;
 650              		.loc 1 202 17
 651 02de 83A547F8 		lw	a1,-124(a5)
 652 02e2 2685     		mv	a0,s1
 203:main.c        ****               
 653              		.loc 1 203 32
 654 02e4 050B     		addi	s6,s6,1
 655              	.LVL73:
 202:main.c        ****                 currentAnalysis++;
 656              		.loc 1 202 17
 657 02e6 97000000 		call	usart_data_transmit
 657      E7800000 
 658              	.LVL74:
 203:main.c        ****               
 659              		.loc 1 203 17 is_stmt 1
 660              	.L26:
 207:main.c        ****                 startAnalysis=0;
 661              		.loc 1 207 15
 207:main.c        ****                 startAnalysis=0;
 662              		.loc 1 207 17 is_stmt 0
 663 02ee 8947     		li	a5,2
 664 02f0 E3D267F7 		ble	s6,a5,.L25
 665              	.L27:
 208:main.c        ****               }
 666              		.loc 1 208 30
 667 02f4 814C     		li	s9,0
 668              	.LVL75:
 669 02f6 B9BF     		j	.L25
 670              		.cfi_endproc
 671              	.LFE5:
 673              		.section	.rodata
 674              		.align	2
 675              		.set	.LANCHOR0,. + 0
 676              	.LC0:
 677 0000 01000000 		.word	1
 678 0004 04000000 		.word	4
 679 0008 07000000 		.word	7
 680 000c 0E000000 		.word	14
 681 0010 02000000 		.word	2
GAS LISTING C:\Users\Duckb\AppData\Local\Temp\ccimqVQb.s 			page 20


 682 0014 05000000 		.word	5
 683 0018 08000000 		.word	8
 684 001c 00000000 		.word	0
 685 0020 03000000 		.word	3
 686 0024 06000000 		.word	6
 687 0028 09000000 		.word	9
 688 002c 0F000000 		.word	15
 689 0030 0A000000 		.word	10
 690 0034 0B000000 		.word	11
 691 0038 0C000000 		.word	12
 692 003c 0D000000 		.word	13
 693              		.section	.rodata.main.str1.4,"aMS",@progbits,1
 694              		.align	2
 695              	.LC1:
 696 0000 49442D30 		.string	"ID-000"
 696      303000
 697 0007 00       		.zero	1
 698              	.LC2:
 699 0008 49442A30 		.string	"ID*000"
 699      303000
 700              		.text
 701              	.Letext0:
 702              		.file 2 "c:\\programming\\assembler\\toolchain-gd32v-v202-win\\toolchain-gd32v-v202-win\\compiler\
 703              		.file 3 "c:\\programming\\assembler\\toolchain-gd32v-v202-win\\toolchain-gd32v-v202-win\\compiler\
 704              		.file 4 "./../../firmware/GD32VF103_standard_peripheral/gd32vf103.h"
 705              		.file 5 "./../../firmware/GD32VF103_standard_peripheral/Include/gd32vf103_rcu.h"
 706              		.file 6 "./../../firmware/GD32VF103_standard_peripheral/Include/gd32vf103_usart.h"
 707              		.file 7 "c:\\programming\\assembler\\toolchain-gd32v-v202-win\\toolchain-gd32v-v202-win\\compiler\
 708              		.file 8 "c:\\programming\\assembler\\toolchain-gd32v-v202-win\\toolchain-gd32v-v202-win\\compiler\
 709              		.file 9 "c:\\programming\\assembler\\toolchain-gd32v-v202-win\\toolchain-gd32v-v202-win\\compiler\
 710              		.file 10 "c:\\programming\\assembler\\toolchain-gd32v-v202-win\\toolchain-gd32v-v202-win\\compiler
 711              		.file 11 "./../../firmware/GD32VF103_standard_peripheral/system_gd32vf103.h"
 712              		.file 12 "c:\\programming\\assembler\\toolchain-gd32v-v202-win\\toolchain-gd32v-v202-win\\compiler
 713              		.file 13 "lcd.h"
 714              		.file 14 "<built-in>"
 715              		.file 15 "drivers.h"
 716              		.file 16 "adc.h"
 717              		.file 17 "usart.h"
 718              		.file 18 "./../../firmware/GD32VF103_standard_peripheral/Include/gd32vf103_eclic.h"
 719              		.file 19 "./../../firmware/GD32VF103_standard_peripheral/Include/gd32vf103_adc.h"
 720              		.file 20 "./../../firmware/GD32VF103_standard_peripheral/Include/gd32vf103_pmu.h"
 721              		.file 21 "./../../firmware/GD32VF103_standard_peripheral/Include/gd32vf103_bkp.h"
 722              		.file 22 "./../../firmware/GD32VF103_standard_peripheral/Include/gd32vf103_rtc.h"
GAS LISTING C:\Users\Duckb\AppData\Local\Temp\ccimqVQb.s 			page 21

